   100401080: 48 c7 c0 ff ff ff 7f  mov    rax,0x7fffffff
   100401087: 48 89 c0              mov    rax,rax
   10040108a: 48 8b 00              mov    rax,QWORD PTR [rax]
   10040108d: 48 89 00              mov    QWORD PTR [rax],rax
   100401090: 48 8b 80 ff ff ff 7f  mov    rax,QWORD PTR [rax+0x7fffffff]
   100401097: 48 89 80 ff ff ff 7f  mov    QWORD PTR [rax+0x7fffffff],rax
   10040109e: 48 89 c8              mov    rax,rcx
   1004010a1: 48 8b 01              mov    rax,QWORD PTR [rcx]
   1004010a4: 48 89 08              mov    QWORD PTR [rax],rcx
   1004010a7: 48 8b 81 ff ff ff 7f  mov    rax,QWORD PTR [rcx+0x7fffffff]
   1004010ae: 48 89 88 ff ff ff 7f  mov    QWORD PTR [rax+0x7fffffff],rcx
   1004010b5: 48 89 d0              mov    rax,rdx
   1004010b8: 48 8b 02              mov    rax,QWORD PTR [rdx]
   1004010bb: 48 89 10              mov    QWORD PTR [rax],rdx
   1004010be: 48 8b 82 ff ff ff 7f  mov    rax,QWORD PTR [rdx+0x7fffffff]
   1004010c5: 48 89 90 ff ff ff 7f  mov    QWORD PTR [rax+0x7fffffff],rdx
   1004010cc: 48 89 d8              mov    rax,rbx
   1004010cf: 48 8b 03              mov    rax,QWORD PTR [rbx]
   1004010d2: 48 89 18              mov    QWORD PTR [rax],rbx
   1004010d5: 48 8b 83 ff ff ff 7f  mov    rax,QWORD PTR [rbx+0x7fffffff]
   1004010dc: 48 89 98 ff ff ff 7f  mov    QWORD PTR [rax+0x7fffffff],rbx
   1004010e3: 48 89 e0              mov    rax,rsp
   1004010e6: 48 8b 04 24           mov    rax,QWORD PTR [rsp]
   1004010ea: 48 89 20              mov    QWORD PTR [rax],rsp
   1004010ed: 48 8b 84 24 ff ff ff 7f   mov    rax,QWORD PTR [rsp+0x7fffffff]
   1004010f5: 48 89 a0 ff ff ff 7f  mov    QWORD PTR [rax+0x7fffffff],rsp
   1004010fc: 48 89 e8              mov    rax,rbp
   1004010ff: 48 8b 45 00           mov    rax,QWORD PTR [rbp+0x0]
   100401103: 48 89 28              mov    QWORD PTR [rax],rbp
   100401106: 48 8b 85 ff ff ff 7f  mov    rax,QWORD PTR [rbp+0x7fffffff]
   10040110d: 48 89 a8 ff ff ff 7f  mov    QWORD PTR [rax+0x7fffffff],rbp
   100401114: 48 89 f0              mov    rax,rsi
   100401117: 48 8b 06              mov    rax,QWORD PTR [rsi]
   10040111a: 48 89 30              mov    QWORD PTR [rax],rsi
   10040111d: 48 8b 86 ff ff ff 7f  mov    rax,QWORD PTR [rsi+0x7fffffff]
   100401124: 48 89 b0 ff ff ff 7f  mov    QWORD PTR [rax+0x7fffffff],rsi
   10040112b: 48 89 f8              mov    rax,rdi
   10040112e: 48 8b 07              mov    rax,QWORD PTR [rdi]
   100401131: 48 89 38              mov    QWORD PTR [rax],rdi
   100401134: 48 8b 87 ff ff ff 7f  mov    rax,QWORD PTR [rdi+0x7fffffff]
   10040113b: 48 89 b8 ff ff ff 7f  mov    QWORD PTR [rax+0x7fffffff],rdi
   100401142: 4c 89 c0              mov    rax,r8
   100401145: 49 8b 00              mov    rax,QWORD PTR [r8]
   100401148: 4c 89 00              mov    QWORD PTR [rax],r8
   10040114b: 49 8b 80 ff ff ff 7f  mov    rax,QWORD PTR [r8+0x7fffffff]
   100401152: 4c 89 80 ff ff ff 7f  mov    QWORD PTR [rax+0x7fffffff],r8
   100401159: 4c 89 c8              mov    rax,r9
   10040115c: 49 8b 01              mov    rax,QWORD PTR [r9]
   10040115f: 4c 89 08              mov    QWORD PTR [rax],r9
   100401162: 49 8b 81 ff ff ff 7f  mov    rax,QWORD PTR [r9+0x7fffffff]
   100401169: 4c 89 88 ff ff ff 7f  mov    QWORD PTR [rax+0x7fffffff],r9
   100401170: 4c 89 d0              mov    rax,r10
   100401173: 49 8b 02              mov    rax,QWORD PTR [r10]
   100401176: 4c 89 10              mov    QWORD PTR [rax],r10
   100401179: 49 8b 82 ff ff ff 7f  mov    rax,QWORD PTR [r10+0x7fffffff]
   100401180: 4c 89 90 ff ff ff 7f  mov    QWORD PTR [rax+0x7fffffff],r10
   100401187: 4c 89 d8              mov    rax,r11
   10040118a: 49 8b 03              mov    rax,QWORD PTR [r11]
   10040118d: 4c 89 18              mov    QWORD PTR [rax],r11
   100401190: 49 8b 83 ff ff ff 7f  mov    rax,QWORD PTR [r11+0x7fffffff]
   100401197: 4c 89 98 ff ff ff 7f  mov    QWORD PTR [rax+0x7fffffff],r11
   10040119e: 4c 89 e0              mov    rax,r12
   1004011a1: 49 8b 04 24           mov    rax,QWORD PTR [r12]
   1004011a5: 4c 89 20              mov    QWORD PTR [rax],r12
   1004011a8: 49 8b 84 24 ff ff ff 7f   mov    rax,QWORD PTR [r12+0x7fffffff]
   1004011b0: 4c 89 a0 ff ff ff 7f  mov    QWORD PTR [rax+0x7fffffff],r12
   1004011b7: 4c 89 e8              mov    rax,r13
   1004011ba: 49 8b 45 00           mov    rax,QWORD PTR [r13+0x0]
   1004011be: 4c 89 28              mov    QWORD PTR [rax],r13
   1004011c1: 49 8b 85 ff ff ff 7f  mov    rax,QWORD PTR [r13+0x7fffffff]
   1004011c8: 4c 89 a8 ff ff ff 7f  mov    QWORD PTR [rax+0x7fffffff],r13
   1004011cf: 4c 89 f0              mov    rax,r14
   1004011d2: 49 8b 06              mov    rax,QWORD PTR [r14]
   1004011d5: 4c 89 30              mov    QWORD PTR [rax],r14
   1004011d8: 49 8b 86 ff ff ff 7f  mov    rax,QWORD PTR [r14+0x7fffffff]
   1004011df: 4c 89 b0 ff ff ff 7f  mov    QWORD PTR [rax+0x7fffffff],r14
   1004011e6: 4c 89 f8              mov    rax,r15
   1004011e9: 49 8b 07              mov    rax,QWORD PTR [r15]
   1004011ec: 4c 89 38              mov    QWORD PTR [rax],r15
   1004011ef: 49 8b 87 ff ff ff 7f  mov    rax,QWORD PTR [r15+0x7fffffff]
   1004011f6: 4c 89 b8 ff ff ff 7f  mov    QWORD PTR [rax+0x7fffffff],r15
   1004011fd: 48 c7 c1 ff ff ff 7f  mov    rcx,0x7fffffff
   100401204: 48 89 c1              mov    rcx,rax
   100401207: 48 8b 08              mov    rcx,QWORD PTR [rax]
   10040120a: 48 89 01              mov    QWORD PTR [rcx],rax
   10040120d: 48 8b 88 ff ff ff 7f  mov    rcx,QWORD PTR [rax+0x7fffffff]
   100401214: 48 89 81 ff ff ff 7f  mov    QWORD PTR [rcx+0x7fffffff],rax
   10040121b: 48 89 c9              mov    rcx,rcx
   10040121e: 48 8b 09              mov    rcx,QWORD PTR [rcx]
   100401221: 48 89 09              mov    QWORD PTR [rcx],rcx
   100401224: 48 8b 89 ff ff ff 7f  mov    rcx,QWORD PTR [rcx+0x7fffffff]
   10040122b: 48 89 89 ff ff ff 7f  mov    QWORD PTR [rcx+0x7fffffff],rcx
   100401232: 48 89 d1              mov    rcx,rdx
   100401235: 48 8b 0a              mov    rcx,QWORD PTR [rdx]
   100401238: 48 89 11              mov    QWORD PTR [rcx],rdx
   10040123b: 48 8b 8a ff ff ff 7f  mov    rcx,QWORD PTR [rdx+0x7fffffff]
   100401242: 48 89 91 ff ff ff 7f  mov    QWORD PTR [rcx+0x7fffffff],rdx
   100401249: 48 89 d9              mov    rcx,rbx
   10040124c: 48 8b 0b              mov    rcx,QWORD PTR [rbx]
   10040124f: 48 89 19              mov    QWORD PTR [rcx],rbx
   100401252: 48 8b 8b ff ff ff 7f  mov    rcx,QWORD PTR [rbx+0x7fffffff]
   100401259: 48 89 99 ff ff ff 7f  mov    QWORD PTR [rcx+0x7fffffff],rbx
   100401260: 48 89 e1              mov    rcx,rsp
   100401263: 48 8b 0c 24           mov    rcx,QWORD PTR [rsp]
   100401267: 48 89 21              mov    QWORD PTR [rcx],rsp
   10040126a: 48 8b 8c 24 ff ff ff 7f   mov    rcx,QWORD PTR [rsp+0x7fffffff]
   100401272: 48 89 a1 ff ff ff 7f  mov    QWORD PTR [rcx+0x7fffffff],rsp
   100401279: 48 89 e9              mov    rcx,rbp
   10040127c: 48 8b 4d 00           mov    rcx,QWORD PTR [rbp+0x0]
   100401280: 48 89 29              mov    QWORD PTR [rcx],rbp
   100401283: 48 8b 8d ff ff ff 7f  mov    rcx,QWORD PTR [rbp+0x7fffffff]
   10040128a: 48 89 a9 ff ff ff 7f  mov    QWORD PTR [rcx+0x7fffffff],rbp
   100401291: 48 89 f1              mov    rcx,rsi
   100401294: 48 8b 0e              mov    rcx,QWORD PTR [rsi]
   100401297: 48 89 31              mov    QWORD PTR [rcx],rsi
   10040129a: 48 8b 8e ff ff ff 7f  mov    rcx,QWORD PTR [rsi+0x7fffffff]
   1004012a1: 48 89 b1 ff ff ff 7f  mov    QWORD PTR [rcx+0x7fffffff],rsi
   1004012a8: 48 89 f9              mov    rcx,rdi
   1004012ab: 48 8b 0f              mov    rcx,QWORD PTR [rdi]
   1004012ae: 48 89 39              mov    QWORD PTR [rcx],rdi
   1004012b1: 48 8b 8f ff ff ff 7f  mov    rcx,QWORD PTR [rdi+0x7fffffff]
   1004012b8: 48 89 b9 ff ff ff 7f  mov    QWORD PTR [rcx+0x7fffffff],rdi
   1004012bf: 4c 89 c1              mov    rcx,r8
   1004012c2: 49 8b 08              mov    rcx,QWORD PTR [r8]
   1004012c5: 4c 89 01              mov    QWORD PTR [rcx],r8
   1004012c8: 49 8b 88 ff ff ff 7f  mov    rcx,QWORD PTR [r8+0x7fffffff]
   1004012cf: 4c 89 81 ff ff ff 7f  mov    QWORD PTR [rcx+0x7fffffff],r8
   1004012d6: 4c 89 c9              mov    rcx,r9
   1004012d9: 49 8b 09              mov    rcx,QWORD PTR [r9]
   1004012dc: 4c 89 09              mov    QWORD PTR [rcx],r9
   1004012df: 49 8b 89 ff ff ff 7f  mov    rcx,QWORD PTR [r9+0x7fffffff]
   1004012e6: 4c 89 89 ff ff ff 7f  mov    QWORD PTR [rcx+0x7fffffff],r9
   1004012ed: 4c 89 d1              mov    rcx,r10
   1004012f0: 49 8b 0a              mov    rcx,QWORD PTR [r10]
   1004012f3: 4c 89 11              mov    QWORD PTR [rcx],r10
   1004012f6: 49 8b 8a ff ff ff 7f  mov    rcx,QWORD PTR [r10+0x7fffffff]
   1004012fd: 4c 89 91 ff ff ff 7f  mov    QWORD PTR [rcx+0x7fffffff],r10
   100401304: 4c 89 d9              mov    rcx,r11
   100401307: 49 8b 0b              mov    rcx,QWORD PTR [r11]
   10040130a: 4c 89 19              mov    QWORD PTR [rcx],r11
   10040130d: 49 8b 8b ff ff ff 7f  mov    rcx,QWORD PTR [r11+0x7fffffff]
   100401314: 4c 89 99 ff ff ff 7f  mov    QWORD PTR [rcx+0x7fffffff],r11
   10040131b: 4c 89 e1              mov    rcx,r12
   10040131e: 49 8b 0c 24           mov    rcx,QWORD PTR [r12]
   100401322: 4c 89 21              mov    QWORD PTR [rcx],r12
   100401325: 49 8b 8c 24 ff ff ff 7f   mov    rcx,QWORD PTR [r12+0x7fffffff]
   10040132d: 4c 89 a1 ff ff ff 7f  mov    QWORD PTR [rcx+0x7fffffff],r12
   100401334: 4c 89 e9              mov    rcx,r13
   100401337: 49 8b 4d 00           mov    rcx,QWORD PTR [r13+0x0]
   10040133b: 4c 89 29              mov    QWORD PTR [rcx],r13
   10040133e: 49 8b 8d ff ff ff 7f  mov    rcx,QWORD PTR [r13+0x7fffffff]
   100401345: 4c 89 a9 ff ff ff 7f  mov    QWORD PTR [rcx+0x7fffffff],r13
   10040134c: 4c 89 f1              mov    rcx,r14
   10040134f: 49 8b 0e              mov    rcx,QWORD PTR [r14]
   100401352: 4c 89 31              mov    QWORD PTR [rcx],r14
   100401355: 49 8b 8e ff ff ff 7f  mov    rcx,QWORD PTR [r14+0x7fffffff]
   10040135c: 4c 89 b1 ff ff ff 7f  mov    QWORD PTR [rcx+0x7fffffff],r14
   100401363: 4c 89 f9              mov    rcx,r15
   100401366: 49 8b 0f              mov    rcx,QWORD PTR [r15]
   100401369: 4c 89 39              mov    QWORD PTR [rcx],r15
   10040136c: 49 8b 8f ff ff ff 7f  mov    rcx,QWORD PTR [r15+0x7fffffff]
   100401373: 4c 89 b9 ff ff ff 7f  mov    QWORD PTR [rcx+0x7fffffff],r15
   10040137a: 48 c7 c2 ff ff ff 7f  mov    rdx,0x7fffffff
   100401381: 48 89 c2              mov    rdx,rax
   100401384: 48 8b 10              mov    rdx,QWORD PTR [rax]
   100401387: 48 89 02              mov    QWORD PTR [rdx],rax
   10040138a: 48 8b 90 ff ff ff 7f  mov    rdx,QWORD PTR [rax+0x7fffffff]
   100401391: 48 89 82 ff ff ff 7f  mov    QWORD PTR [rdx+0x7fffffff],rax
   100401398: 48 89 ca              mov    rdx,rcx
   10040139b: 48 8b 11              mov    rdx,QWORD PTR [rcx]
   10040139e: 48 89 0a              mov    QWORD PTR [rdx],rcx
   1004013a1: 48 8b 91 ff ff ff 7f  mov    rdx,QWORD PTR [rcx+0x7fffffff]
   1004013a8: 48 89 8a ff ff ff 7f  mov    QWORD PTR [rdx+0x7fffffff],rcx
   1004013af: 48 89 d2              mov    rdx,rdx
   1004013b2: 48 8b 12              mov    rdx,QWORD PTR [rdx]
   1004013b5: 48 89 12              mov    QWORD PTR [rdx],rdx
   1004013b8: 48 8b 92 ff ff ff 7f  mov    rdx,QWORD PTR [rdx+0x7fffffff]
   1004013bf: 48 89 92 ff ff ff 7f  mov    QWORD PTR [rdx+0x7fffffff],rdx
   1004013c6: 48 89 da              mov    rdx,rbx
   1004013c9: 48 8b 13              mov    rdx,QWORD PTR [rbx]
   1004013cc: 48 89 1a              mov    QWORD PTR [rdx],rbx
   1004013cf: 48 8b 93 ff ff ff 7f  mov    rdx,QWORD PTR [rbx+0x7fffffff]
   1004013d6: 48 89 9a ff ff ff 7f  mov    QWORD PTR [rdx+0x7fffffff],rbx
   1004013dd: 48 89 e2              mov    rdx,rsp
   1004013e0: 48 8b 14 24           mov    rdx,QWORD PTR [rsp]
   1004013e4: 48 89 22              mov    QWORD PTR [rdx],rsp
   1004013e7: 48 8b 94 24 ff ff ff 7f   mov    rdx,QWORD PTR [rsp+0x7fffffff]
   1004013ef: 48 89 a2 ff ff ff 7f  mov    QWORD PTR [rdx+0x7fffffff],rsp
   1004013f6: 48 89 ea              mov    rdx,rbp
   1004013f9: 48 8b 55 00           mov    rdx,QWORD PTR [rbp+0x0]
   1004013fd: 48 89 2a              mov    QWORD PTR [rdx],rbp
   100401400: 48 8b 95 ff ff ff 7f  mov    rdx,QWORD PTR [rbp+0x7fffffff]
   100401407: 48 89 aa ff ff ff 7f  mov    QWORD PTR [rdx+0x7fffffff],rbp
   10040140e: 48 89 f2              mov    rdx,rsi
   100401411: 48 8b 16              mov    rdx,QWORD PTR [rsi]
   100401414: 48 89 32              mov    QWORD PTR [rdx],rsi
   100401417: 48 8b 96 ff ff ff 7f  mov    rdx,QWORD PTR [rsi+0x7fffffff]
   10040141e: 48 89 b2 ff ff ff 7f  mov    QWORD PTR [rdx+0x7fffffff],rsi
   100401425: 48 89 fa              mov    rdx,rdi
   100401428: 48 8b 17              mov    rdx,QWORD PTR [rdi]
   10040142b: 48 89 3a              mov    QWORD PTR [rdx],rdi
   10040142e: 48 8b 97 ff ff ff 7f  mov    rdx,QWORD PTR [rdi+0x7fffffff]
   100401435: 48 89 ba ff ff ff 7f  mov    QWORD PTR [rdx+0x7fffffff],rdi
   10040143c: 4c 89 c2              mov    rdx,r8
   10040143f: 49 8b 10              mov    rdx,QWORD PTR [r8]
   100401442: 4c 89 02              mov    QWORD PTR [rdx],r8
   100401445: 49 8b 90 ff ff ff 7f  mov    rdx,QWORD PTR [r8+0x7fffffff]
   10040144c: 4c 89 82 ff ff ff 7f  mov    QWORD PTR [rdx+0x7fffffff],r8
   100401453: 4c 89 ca              mov    rdx,r9
   100401456: 49 8b 11              mov    rdx,QWORD PTR [r9]
   100401459: 4c 89 0a              mov    QWORD PTR [rdx],r9
   10040145c: 49 8b 91 ff ff ff 7f  mov    rdx,QWORD PTR [r9+0x7fffffff]
   100401463: 4c 89 8a ff ff ff 7f  mov    QWORD PTR [rdx+0x7fffffff],r9
   10040146a: 4c 89 d2              mov    rdx,r10
   10040146d: 49 8b 12              mov    rdx,QWORD PTR [r10]
   100401470: 4c 89 12              mov    QWORD PTR [rdx],r10
   100401473: 49 8b 92 ff ff ff 7f  mov    rdx,QWORD PTR [r10+0x7fffffff]
   10040147a: 4c 89 92 ff ff ff 7f  mov    QWORD PTR [rdx+0x7fffffff],r10
   100401481: 4c 89 da              mov    rdx,r11
   100401484: 49 8b 13              mov    rdx,QWORD PTR [r11]
   100401487: 4c 89 1a              mov    QWORD PTR [rdx],r11
   10040148a: 49 8b 93 ff ff ff 7f  mov    rdx,QWORD PTR [r11+0x7fffffff]
   100401491: 4c 89 9a ff ff ff 7f  mov    QWORD PTR [rdx+0x7fffffff],r11
   100401498: 4c 89 e2              mov    rdx,r12
   10040149b: 49 8b 14 24           mov    rdx,QWORD PTR [r12]
   10040149f: 4c 89 22              mov    QWORD PTR [rdx],r12
   1004014a2: 49 8b 94 24 ff ff ff 7f   mov    rdx,QWORD PTR [r12+0x7fffffff]
   1004014aa: 4c 89 a2 ff ff ff 7f  mov    QWORD PTR [rdx+0x7fffffff],r12
   1004014b1: 4c 89 ea              mov    rdx,r13
   1004014b4: 49 8b 55 00           mov    rdx,QWORD PTR [r13+0x0]
   1004014b8: 4c 89 2a              mov    QWORD PTR [rdx],r13
   1004014bb: 49 8b 95 ff ff ff 7f  mov    rdx,QWORD PTR [r13+0x7fffffff]
   1004014c2: 4c 89 aa ff ff ff 7f  mov    QWORD PTR [rdx+0x7fffffff],r13
   1004014c9: 4c 89 f2              mov    rdx,r14
   1004014cc: 49 8b 16              mov    rdx,QWORD PTR [r14]
   1004014cf: 4c 89 32              mov    QWORD PTR [rdx],r14
   1004014d2: 49 8b 96 ff ff ff 7f  mov    rdx,QWORD PTR [r14+0x7fffffff]
   1004014d9: 4c 89 b2 ff ff ff 7f  mov    QWORD PTR [rdx+0x7fffffff],r14
   1004014e0: 4c 89 fa              mov    rdx,r15
   1004014e3: 49 8b 17              mov    rdx,QWORD PTR [r15]
   1004014e6: 4c 89 3a              mov    QWORD PTR [rdx],r15
   1004014e9: 49 8b 97 ff ff ff 7f  mov    rdx,QWORD PTR [r15+0x7fffffff]
   1004014f0: 4c 89 ba ff ff ff 7f  mov    QWORD PTR [rdx+0x7fffffff],r15
   1004014f7: 48 c7 c3 ff ff ff 7f  mov    rbx,0x7fffffff
   1004014fe: 48 89 c3              mov    rbx,rax
   100401501: 48 8b 18              mov    rbx,QWORD PTR [rax]
   100401504: 48 89 03              mov    QWORD PTR [rbx],rax
   100401507: 48 8b 98 ff ff ff 7f  mov    rbx,QWORD PTR [rax+0x7fffffff]
   10040150e: 48 89 83 ff ff ff 7f  mov    QWORD PTR [rbx+0x7fffffff],rax
   100401515: 48 89 cb              mov    rbx,rcx
   100401518: 48 8b 19              mov    rbx,QWORD PTR [rcx]
   10040151b: 48 89 0b              mov    QWORD PTR [rbx],rcx
   10040151e: 48 8b 99 ff ff ff 7f  mov    rbx,QWORD PTR [rcx+0x7fffffff]
   100401525: 48 89 8b ff ff ff 7f  mov    QWORD PTR [rbx+0x7fffffff],rcx
   10040152c: 48 89 d3              mov    rbx,rdx
   10040152f: 48 8b 1a              mov    rbx,QWORD PTR [rdx]
   100401532: 48 89 13              mov    QWORD PTR [rbx],rdx
   100401535: 48 8b 9a ff ff ff 7f  mov    rbx,QWORD PTR [rdx+0x7fffffff]
   10040153c: 48 89 93 ff ff ff 7f  mov    QWORD PTR [rbx+0x7fffffff],rdx
   100401543: 48 89 db              mov    rbx,rbx
   100401546: 48 8b 1b              mov    rbx,QWORD PTR [rbx]
   100401549: 48 89 1b              mov    QWORD PTR [rbx],rbx
   10040154c: 48 8b 9b ff ff ff 7f  mov    rbx,QWORD PTR [rbx+0x7fffffff]
   100401553: 48 89 9b ff ff ff 7f  mov    QWORD PTR [rbx+0x7fffffff],rbx
   10040155a: 48 89 e3              mov    rbx,rsp
   10040155d: 48 8b 1c 24           mov    rbx,QWORD PTR [rsp]
   100401561: 48 89 23              mov    QWORD PTR [rbx],rsp
   100401564: 48 8b 9c 24 ff ff ff 7f   mov    rbx,QWORD PTR [rsp+0x7fffffff]
   10040156c: 48 89 a3 ff ff ff 7f  mov    QWORD PTR [rbx+0x7fffffff],rsp
   100401573: 48 89 eb              mov    rbx,rbp
   100401576: 48 8b 5d 00           mov    rbx,QWORD PTR [rbp+0x0]
   10040157a: 48 89 2b              mov    QWORD PTR [rbx],rbp
   10040157d: 48 8b 9d ff ff ff 7f  mov    rbx,QWORD PTR [rbp+0x7fffffff]
   100401584: 48 89 ab ff ff ff 7f  mov    QWORD PTR [rbx+0x7fffffff],rbp
   10040158b: 48 89 f3              mov    rbx,rsi
   10040158e: 48 8b 1e              mov    rbx,QWORD PTR [rsi]
   100401591: 48 89 33              mov    QWORD PTR [rbx],rsi
   100401594: 48 8b 9e ff ff ff 7f  mov    rbx,QWORD PTR [rsi+0x7fffffff]
   10040159b: 48 89 b3 ff ff ff 7f  mov    QWORD PTR [rbx+0x7fffffff],rsi
   1004015a2: 48 89 fb              mov    rbx,rdi
   1004015a5: 48 8b 1f              mov    rbx,QWORD PTR [rdi]
   1004015a8: 48 89 3b              mov    QWORD PTR [rbx],rdi
   1004015ab: 48 8b 9f ff ff ff 7f  mov    rbx,QWORD PTR [rdi+0x7fffffff]
   1004015b2: 48 89 bb ff ff ff 7f  mov    QWORD PTR [rbx+0x7fffffff],rdi
   1004015b9: 4c 89 c3              mov    rbx,r8
   1004015bc: 49 8b 18              mov    rbx,QWORD PTR [r8]
   1004015bf: 4c 89 03              mov    QWORD PTR [rbx],r8
   1004015c2: 49 8b 98 ff ff ff 7f  mov    rbx,QWORD PTR [r8+0x7fffffff]
   1004015c9: 4c 89 83 ff ff ff 7f  mov    QWORD PTR [rbx+0x7fffffff],r8
   1004015d0: 4c 89 cb              mov    rbx,r9
   1004015d3: 49 8b 19              mov    rbx,QWORD PTR [r9]
   1004015d6: 4c 89 0b              mov    QWORD PTR [rbx],r9
   1004015d9: 49 8b 99 ff ff ff 7f  mov    rbx,QWORD PTR [r9+0x7fffffff]
   1004015e0: 4c 89 8b ff ff ff 7f  mov    QWORD PTR [rbx+0x7fffffff],r9
   1004015e7: 4c 89 d3              mov    rbx,r10
   1004015ea: 49 8b 1a              mov    rbx,QWORD PTR [r10]
   1004015ed: 4c 89 13              mov    QWORD PTR [rbx],r10
   1004015f0: 49 8b 9a ff ff ff 7f  mov    rbx,QWORD PTR [r10+0x7fffffff]
   1004015f7: 4c 89 93 ff ff ff 7f  mov    QWORD PTR [rbx+0x7fffffff],r10
   1004015fe: 4c 89 db              mov    rbx,r11
   100401601: 49 8b 1b              mov    rbx,QWORD PTR [r11]
   100401604: 4c 89 1b              mov    QWORD PTR [rbx],r11
   100401607: 49 8b 9b ff ff ff 7f  mov    rbx,QWORD PTR [r11+0x7fffffff]
   10040160e: 4c 89 9b ff ff ff 7f  mov    QWORD PTR [rbx+0x7fffffff],r11
   100401615: 4c 89 e3              mov    rbx,r12
   100401618: 49 8b 1c 24           mov    rbx,QWORD PTR [r12]
   10040161c: 4c 89 23              mov    QWORD PTR [rbx],r12
   10040161f: 49 8b 9c 24 ff ff ff 7f   mov    rbx,QWORD PTR [r12+0x7fffffff]
   100401627: 4c 89 a3 ff ff ff 7f  mov    QWORD PTR [rbx+0x7fffffff],r12
   10040162e: 4c 89 eb              mov    rbx,r13
   100401631: 49 8b 5d 00           mov    rbx,QWORD PTR [r13+0x0]
   100401635: 4c 89 2b              mov    QWORD PTR [rbx],r13
   100401638: 49 8b 9d ff ff ff 7f  mov    rbx,QWORD PTR [r13+0x7fffffff]
   10040163f: 4c 89 ab ff ff ff 7f  mov    QWORD PTR [rbx+0x7fffffff],r13
   100401646: 4c 89 f3              mov    rbx,r14
   100401649: 49 8b 1e              mov    rbx,QWORD PTR [r14]
   10040164c: 4c 89 33              mov    QWORD PTR [rbx],r14
   10040164f: 49 8b 9e ff ff ff 7f  mov    rbx,QWORD PTR [r14+0x7fffffff]
   100401656: 4c 89 b3 ff ff ff 7f  mov    QWORD PTR [rbx+0x7fffffff],r14
   10040165d: 4c 89 fb              mov    rbx,r15
   100401660: 49 8b 1f              mov    rbx,QWORD PTR [r15]
   100401663: 4c 89 3b              mov    QWORD PTR [rbx],r15
   100401666: 49 8b 9f ff ff ff 7f  mov    rbx,QWORD PTR [r15+0x7fffffff]
   10040166d: 4c 89 bb ff ff ff 7f  mov    QWORD PTR [rbx+0x7fffffff],r15
   100401674: 48 c7 c4 ff ff ff 7f  mov    rsp,0x7fffffff
   10040167b: 48 89 c4              mov    rsp,rax
   10040167e: 48 8b 20              mov    rsp,QWORD PTR [rax]
   100401681: 48 89 04 24           mov    QWORD PTR [rsp],rax
   100401685: 48 8b a0 ff ff ff 7f  mov    rsp,QWORD PTR [rax+0x7fffffff]
   10040168c: 48 89 84 24 ff ff ff 7f   mov    QWORD PTR [rsp+0x7fffffff],rax
   100401694: 48 89 cc              mov    rsp,rcx
   100401697: 48 8b 21              mov    rsp,QWORD PTR [rcx]
   10040169a: 48 89 0c 24           mov    QWORD PTR [rsp],rcx
   10040169e: 48 8b a1 ff ff ff 7f  mov    rsp,QWORD PTR [rcx+0x7fffffff]
   1004016a5: 48 89 8c 24 ff ff ff 7f   mov    QWORD PTR [rsp+0x7fffffff],rcx
   1004016ad: 48 89 d4              mov    rsp,rdx
   1004016b0: 48 8b 22              mov    rsp,QWORD PTR [rdx]
   1004016b3: 48 89 14 24           mov    QWORD PTR [rsp],rdx
   1004016b7: 48 8b a2 ff ff ff 7f  mov    rsp,QWORD PTR [rdx+0x7fffffff]
   1004016be: 48 89 94 24 ff ff ff 7f   mov    QWORD PTR [rsp+0x7fffffff],rdx
   1004016c6: 48 89 dc              mov    rsp,rbx
   1004016c9: 48 8b 23              mov    rsp,QWORD PTR [rbx]
   1004016cc: 48 89 1c 24           mov    QWORD PTR [rsp],rbx
   1004016d0: 48 8b a3 ff ff ff 7f  mov    rsp,QWORD PTR [rbx+0x7fffffff]
   1004016d7: 48 89 9c 24 ff ff ff 7f   mov    QWORD PTR [rsp+0x7fffffff],rbx
   1004016df: 48 89 e4              mov    rsp,rsp
   1004016e2: 48 8b 24 24           mov    rsp,QWORD PTR [rsp]
   1004016e6: 48 89 24 24           mov    QWORD PTR [rsp],rsp
   1004016ea: 48 8b a4 24 ff ff ff 7f   mov    rsp,QWORD PTR [rsp+0x7fffffff]
   1004016f2: 48 89 a4 24 ff ff ff 7f   mov    QWORD PTR [rsp+0x7fffffff],rsp
   1004016fa: 48 89 ec              mov    rsp,rbp
   1004016fd: 48 8b 65 00           mov    rsp,QWORD PTR [rbp+0x0]
   100401701: 48 89 2c 24           mov    QWORD PTR [rsp],rbp
   100401705: 48 8b a5 ff ff ff 7f  mov    rsp,QWORD PTR [rbp+0x7fffffff]
   10040170c: 48 89 ac 24 ff ff ff 7f   mov    QWORD PTR [rsp+0x7fffffff],rbp
   100401714: 48 89 f4              mov    rsp,rsi
   100401717: 48 8b 26              mov    rsp,QWORD PTR [rsi]
   10040171a: 48 89 34 24           mov    QWORD PTR [rsp],rsi
   10040171e: 48 8b a6 ff ff ff 7f  mov    rsp,QWORD PTR [rsi+0x7fffffff]
   100401725: 48 89 b4 24 ff ff ff 7f   mov    QWORD PTR [rsp+0x7fffffff],rsi
   10040172d: 48 89 fc              mov    rsp,rdi
   100401730: 48 8b 27              mov    rsp,QWORD PTR [rdi]
   100401733: 48 89 3c 24           mov    QWORD PTR [rsp],rdi
   100401737: 48 8b a7 ff ff ff 7f  mov    rsp,QWORD PTR [rdi+0x7fffffff]
   10040173e: 48 89 bc 24 ff ff ff 7f   mov    QWORD PTR [rsp+0x7fffffff],rdi
   100401746: 4c 89 c4              mov    rsp,r8
   100401749: 49 8b 20              mov    rsp,QWORD PTR [r8]
   10040174c: 4c 89 04 24           mov    QWORD PTR [rsp],r8
   100401750: 49 8b a0 ff ff ff 7f  mov    rsp,QWORD PTR [r8+0x7fffffff]
   100401757: 4c 89 84 24 ff ff ff 7f   mov    QWORD PTR [rsp+0x7fffffff],r8
   10040175f: 4c 89 cc              mov    rsp,r9
   100401762: 49 8b 21              mov    rsp,QWORD PTR [r9]
   100401765: 4c 89 0c 24           mov    QWORD PTR [rsp],r9
   100401769: 49 8b a1 ff ff ff 7f  mov    rsp,QWORD PTR [r9+0x7fffffff]
   100401770: 4c 89 8c 24 ff ff ff 7f   mov    QWORD PTR [rsp+0x7fffffff],r9
   100401778: 4c 89 d4              mov    rsp,r10
   10040177b: 49 8b 22              mov    rsp,QWORD PTR [r10]
   10040177e: 4c 89 14 24           mov    QWORD PTR [rsp],r10
   100401782: 49 8b a2 ff ff ff 7f  mov    rsp,QWORD PTR [r10+0x7fffffff]
   100401789: 4c 89 94 24 ff ff ff 7f   mov    QWORD PTR [rsp+0x7fffffff],r10
   100401791: 4c 89 dc              mov    rsp,r11
   100401794: 49 8b 23              mov    rsp,QWORD PTR [r11]
   100401797: 4c 89 1c 24           mov    QWORD PTR [rsp],r11
   10040179b: 49 8b a3 ff ff ff 7f  mov    rsp,QWORD PTR [r11+0x7fffffff]
   1004017a2: 4c 89 9c 24 ff ff ff 7f   mov    QWORD PTR [rsp+0x7fffffff],r11
   1004017aa: 4c 89 e4              mov    rsp,r12
   1004017ad: 49 8b 24 24           mov    rsp,QWORD PTR [r12]
   1004017b1: 4c 89 24 24           mov    QWORD PTR [rsp],r12
   1004017b5: 49 8b a4 24 ff ff ff 7f   mov    rsp,QWORD PTR [r12+0x7fffffff]
   1004017bd: 4c 89 a4 24 ff ff ff 7f   mov    QWORD PTR [rsp+0x7fffffff],r12
   1004017c5: 4c 89 ec              mov    rsp,r13
   1004017c8: 49 8b 65 00           mov    rsp,QWORD PTR [r13+0x0]
   1004017cc: 4c 89 2c 24           mov    QWORD PTR [rsp],r13
   1004017d0: 49 8b a5 ff ff ff 7f  mov    rsp,QWORD PTR [r13+0x7fffffff]
   1004017d7: 4c 89 ac 24 ff ff ff 7f   mov    QWORD PTR [rsp+0x7fffffff],r13
   1004017df: 4c 89 f4              mov    rsp,r14
   1004017e2: 49 8b 26              mov    rsp,QWORD PTR [r14]
   1004017e5: 4c 89 34 24           mov    QWORD PTR [rsp],r14
   1004017e9: 49 8b a6 ff ff ff 7f  mov    rsp,QWORD PTR [r14+0x7fffffff]
   1004017f0: 4c 89 b4 24 ff ff ff 7f   mov    QWORD PTR [rsp+0x7fffffff],r14
   1004017f8: 4c 89 fc              mov    rsp,r15
   1004017fb: 49 8b 27              mov    rsp,QWORD PTR [r15]
   1004017fe: 4c 89 3c 24           mov    QWORD PTR [rsp],r15
   100401802: 49 8b a7 ff ff ff 7f  mov    rsp,QWORD PTR [r15+0x7fffffff]
   100401809: 4c 89 bc 24 ff ff ff 7f   mov    QWORD PTR [rsp+0x7fffffff],r15
   100401811: 48 c7 c5 ff ff ff 7f  mov    rbp,0x7fffffff
   100401818: 48 89 c5              mov    rbp,rax
   10040181b: 48 8b 28              mov    rbp,QWORD PTR [rax]
   10040181e: 48 89 45 00           mov    QWORD PTR [rbp+0x0],rax
   100401822: 48 8b a8 ff ff ff 7f  mov    rbp,QWORD PTR [rax+0x7fffffff]
   100401829: 48 89 85 ff ff ff 7f  mov    QWORD PTR [rbp+0x7fffffff],rax
   100401830: 48 89 cd              mov    rbp,rcx
   100401833: 48 8b 29              mov    rbp,QWORD PTR [rcx]
   100401836: 48 89 4d 00           mov    QWORD PTR [rbp+0x0],rcx
   10040183a: 48 8b a9 ff ff ff 7f  mov    rbp,QWORD PTR [rcx+0x7fffffff]
   100401841: 48 89 8d ff ff ff 7f  mov    QWORD PTR [rbp+0x7fffffff],rcx
   100401848: 48 89 d5              mov    rbp,rdx
   10040184b: 48 8b 2a              mov    rbp,QWORD PTR [rdx]
   10040184e: 48 89 55 00           mov    QWORD PTR [rbp+0x0],rdx
   100401852: 48 8b aa ff ff ff 7f  mov    rbp,QWORD PTR [rdx+0x7fffffff]
   100401859: 48 89 95 ff ff ff 7f  mov    QWORD PTR [rbp+0x7fffffff],rdx
   100401860: 48 89 dd              mov    rbp,rbx
   100401863: 48 8b 2b              mov    rbp,QWORD PTR [rbx]
   100401866: 48 89 5d 00           mov    QWORD PTR [rbp+0x0],rbx
   10040186a: 48 8b ab ff ff ff 7f  mov    rbp,QWORD PTR [rbx+0x7fffffff]
   100401871: 48 89 9d ff ff ff 7f  mov    QWORD PTR [rbp+0x7fffffff],rbx
   100401878: 48 89 e5              mov    rbp,rsp
   10040187b: 48 8b 2c 24           mov    rbp,QWORD PTR [rsp]
   10040187f: 48 89 65 00           mov    QWORD PTR [rbp+0x0],rsp
   100401883: 48 8b ac 24 ff ff ff 7f   mov    rbp,QWORD PTR [rsp+0x7fffffff]
   10040188b: 48 89 a5 ff ff ff 7f  mov    QWORD PTR [rbp+0x7fffffff],rsp
   100401892: 48 89 ed              mov    rbp,rbp
   100401895: 48 8b 6d 00           mov    rbp,QWORD PTR [rbp+0x0]
   100401899: 48 89 6d 00           mov    QWORD PTR [rbp+0x0],rbp
   10040189d: 48 8b ad ff ff ff 7f  mov    rbp,QWORD PTR [rbp+0x7fffffff]
   1004018a4: 48 89 ad ff ff ff 7f  mov    QWORD PTR [rbp+0x7fffffff],rbp
   1004018ab: 48 89 f5              mov    rbp,rsi
   1004018ae: 48 8b 2e              mov    rbp,QWORD PTR [rsi]
   1004018b1: 48 89 75 00           mov    QWORD PTR [rbp+0x0],rsi
   1004018b5: 48 8b ae ff ff ff 7f  mov    rbp,QWORD PTR [rsi+0x7fffffff]
   1004018bc: 48 89 b5 ff ff ff 7f  mov    QWORD PTR [rbp+0x7fffffff],rsi
   1004018c3: 48 89 fd              mov    rbp,rdi
   1004018c6: 48 8b 2f              mov    rbp,QWORD PTR [rdi]
   1004018c9: 48 89 7d 00           mov    QWORD PTR [rbp+0x0],rdi
   1004018cd: 48 8b af ff ff ff 7f  mov    rbp,QWORD PTR [rdi+0x7fffffff]
   1004018d4: 48 89 bd ff ff ff 7f  mov    QWORD PTR [rbp+0x7fffffff],rdi
   1004018db: 4c 89 c5              mov    rbp,r8
   1004018de: 49 8b 28              mov    rbp,QWORD PTR [r8]
   1004018e1: 4c 89 45 00           mov    QWORD PTR [rbp+0x0],r8
   1004018e5: 49 8b a8 ff ff ff 7f  mov    rbp,QWORD PTR [r8+0x7fffffff]
   1004018ec: 4c 89 85 ff ff ff 7f  mov    QWORD PTR [rbp+0x7fffffff],r8
   1004018f3: 4c 89 cd              mov    rbp,r9
   1004018f6: 49 8b 29              mov    rbp,QWORD PTR [r9]
   1004018f9: 4c 89 4d 00           mov    QWORD PTR [rbp+0x0],r9
   1004018fd: 49 8b a9 ff ff ff 7f  mov    rbp,QWORD PTR [r9+0x7fffffff]
   100401904: 4c 89 8d ff ff ff 7f  mov    QWORD PTR [rbp+0x7fffffff],r9
   10040190b: 4c 89 d5              mov    rbp,r10
   10040190e: 49 8b 2a              mov    rbp,QWORD PTR [r10]
   100401911: 4c 89 55 00           mov    QWORD PTR [rbp+0x0],r10
   100401915: 49 8b aa ff ff ff 7f  mov    rbp,QWORD PTR [r10+0x7fffffff]
   10040191c: 4c 89 95 ff ff ff 7f  mov    QWORD PTR [rbp+0x7fffffff],r10
   100401923: 4c 89 dd              mov    rbp,r11
   100401926: 49 8b 2b              mov    rbp,QWORD PTR [r11]
   100401929: 4c 89 5d 00           mov    QWORD PTR [rbp+0x0],r11
   10040192d: 49 8b ab ff ff ff 7f  mov    rbp,QWORD PTR [r11+0x7fffffff]
   100401934: 4c 89 9d ff ff ff 7f  mov    QWORD PTR [rbp+0x7fffffff],r11
   10040193b: 4c 89 e5              mov    rbp,r12
   10040193e: 49 8b 2c 24           mov    rbp,QWORD PTR [r12]
   100401942: 4c 89 65 00           mov    QWORD PTR [rbp+0x0],r12
   100401946: 49 8b ac 24 ff ff ff 7f   mov    rbp,QWORD PTR [r12+0x7fffffff]
   10040194e: 4c 89 a5 ff ff ff 7f  mov    QWORD PTR [rbp+0x7fffffff],r12
   100401955: 4c 89 ed              mov    rbp,r13
   100401958: 49 8b 6d 00           mov    rbp,QWORD PTR [r13+0x0]
   10040195c: 4c 89 6d 00           mov    QWORD PTR [rbp+0x0],r13
   100401960: 49 8b ad ff ff ff 7f  mov    rbp,QWORD PTR [r13+0x7fffffff]
   100401967: 4c 89 ad ff ff ff 7f  mov    QWORD PTR [rbp+0x7fffffff],r13
   10040196e: 4c 89 f5              mov    rbp,r14
   100401971: 49 8b 2e              mov    rbp,QWORD PTR [r14]
   100401974: 4c 89 75 00           mov    QWORD PTR [rbp+0x0],r14
   100401978: 49 8b ae ff ff ff 7f  mov    rbp,QWORD PTR [r14+0x7fffffff]
   10040197f: 4c 89 b5 ff ff ff 7f  mov    QWORD PTR [rbp+0x7fffffff],r14
   100401986: 4c 89 fd              mov    rbp,r15
   100401989: 49 8b 2f              mov    rbp,QWORD PTR [r15]
   10040198c: 4c 89 7d 00           mov    QWORD PTR [rbp+0x0],r15
   100401990: 49 8b af ff ff ff 7f  mov    rbp,QWORD PTR [r15+0x7fffffff]
   100401997: 4c 89 bd ff ff ff 7f  mov    QWORD PTR [rbp+0x7fffffff],r15
   10040199e: 48 c7 c6 ff ff ff 7f  mov    rsi,0x7fffffff
   1004019a5: 48 89 c6              mov    rsi,rax
   1004019a8: 48 8b 30              mov    rsi,QWORD PTR [rax]
   1004019ab: 48 89 06              mov    QWORD PTR [rsi],rax
   1004019ae: 48 8b b0 ff ff ff 7f  mov    rsi,QWORD PTR [rax+0x7fffffff]
   1004019b5: 48 89 86 ff ff ff 7f  mov    QWORD PTR [rsi+0x7fffffff],rax
   1004019bc: 48 89 ce              mov    rsi,rcx
   1004019bf: 48 8b 31              mov    rsi,QWORD PTR [rcx]
   1004019c2: 48 89 0e              mov    QWORD PTR [rsi],rcx
   1004019c5: 48 8b b1 ff ff ff 7f  mov    rsi,QWORD PTR [rcx+0x7fffffff]
   1004019cc: 48 89 8e ff ff ff 7f  mov    QWORD PTR [rsi+0x7fffffff],rcx
   1004019d3: 48 89 d6              mov    rsi,rdx
   1004019d6: 48 8b 32              mov    rsi,QWORD PTR [rdx]
   1004019d9: 48 89 16              mov    QWORD PTR [rsi],rdx
   1004019dc: 48 8b b2 ff ff ff 7f  mov    rsi,QWORD PTR [rdx+0x7fffffff]
   1004019e3: 48 89 96 ff ff ff 7f  mov    QWORD PTR [rsi+0x7fffffff],rdx
   1004019ea: 48 89 de              mov    rsi,rbx
   1004019ed: 48 8b 33              mov    rsi,QWORD PTR [rbx]
   1004019f0: 48 89 1e              mov    QWORD PTR [rsi],rbx
   1004019f3: 48 8b b3 ff ff ff 7f  mov    rsi,QWORD PTR [rbx+0x7fffffff]
   1004019fa: 48 89 9e ff ff ff 7f  mov    QWORD PTR [rsi+0x7fffffff],rbx
   100401a01: 48 89 e6              mov    rsi,rsp
   100401a04: 48 8b 34 24           mov    rsi,QWORD PTR [rsp]
   100401a08: 48 89 26              mov    QWORD PTR [rsi],rsp
   100401a0b: 48 8b b4 24 ff ff ff 7f   mov    rsi,QWORD PTR [rsp+0x7fffffff]
   100401a13: 48 89 a6 ff ff ff 7f  mov    QWORD PTR [rsi+0x7fffffff],rsp
   100401a1a: 48 89 ee              mov    rsi,rbp
   100401a1d: 48 8b 75 00           mov    rsi,QWORD PTR [rbp+0x0]
   100401a21: 48 89 2e              mov    QWORD PTR [rsi],rbp
   100401a24: 48 8b b5 ff ff ff 7f  mov    rsi,QWORD PTR [rbp+0x7fffffff]
   100401a2b: 48 89 ae ff ff ff 7f  mov    QWORD PTR [rsi+0x7fffffff],rbp
   100401a32: 48 89 f6              mov    rsi,rsi
   100401a35: 48 8b 36              mov    rsi,QWORD PTR [rsi]
   100401a38: 48 89 36              mov    QWORD PTR [rsi],rsi
   100401a3b: 48 8b b6 ff ff ff 7f  mov    rsi,QWORD PTR [rsi+0x7fffffff]
   100401a42: 48 89 b6 ff ff ff 7f  mov    QWORD PTR [rsi+0x7fffffff],rsi
   100401a49: 48 89 fe              mov    rsi,rdi
   100401a4c: 48 8b 37              mov    rsi,QWORD PTR [rdi]
   100401a4f: 48 89 3e              mov    QWORD PTR [rsi],rdi
   100401a52: 48 8b b7 ff ff ff 7f  mov    rsi,QWORD PTR [rdi+0x7fffffff]
   100401a59: 48 89 be ff ff ff 7f  mov    QWORD PTR [rsi+0x7fffffff],rdi
   100401a60: 4c 89 c6              mov    rsi,r8
   100401a63: 49 8b 30              mov    rsi,QWORD PTR [r8]
   100401a66: 4c 89 06              mov    QWORD PTR [rsi],r8
   100401a69: 49 8b b0 ff ff ff 7f  mov    rsi,QWORD PTR [r8+0x7fffffff]
   100401a70: 4c 89 86 ff ff ff 7f  mov    QWORD PTR [rsi+0x7fffffff],r8
   100401a77: 4c 89 ce              mov    rsi,r9
   100401a7a: 49 8b 31              mov    rsi,QWORD PTR [r9]
   100401a7d: 4c 89 0e              mov    QWORD PTR [rsi],r9
   100401a80: 49 8b b1 ff ff ff 7f  mov    rsi,QWORD PTR [r9+0x7fffffff]
   100401a87: 4c 89 8e ff ff ff 7f  mov    QWORD PTR [rsi+0x7fffffff],r9
   100401a8e: 4c 89 d6              mov    rsi,r10
   100401a91: 49 8b 32              mov    rsi,QWORD PTR [r10]
   100401a94: 4c 89 16              mov    QWORD PTR [rsi],r10
   100401a97: 49 8b b2 ff ff ff 7f  mov    rsi,QWORD PTR [r10+0x7fffffff]
   100401a9e: 4c 89 96 ff ff ff 7f  mov    QWORD PTR [rsi+0x7fffffff],r10
   100401aa5: 4c 89 de              mov    rsi,r11
   100401aa8: 49 8b 33              mov    rsi,QWORD PTR [r11]
   100401aab: 4c 89 1e              mov    QWORD PTR [rsi],r11
   100401aae: 49 8b b3 ff ff ff 7f  mov    rsi,QWORD PTR [r11+0x7fffffff]
   100401ab5: 4c 89 9e ff ff ff 7f  mov    QWORD PTR [rsi+0x7fffffff],r11
   100401abc: 4c 89 e6              mov    rsi,r12
   100401abf: 49 8b 34 24           mov    rsi,QWORD PTR [r12]
   100401ac3: 4c 89 26              mov    QWORD PTR [rsi],r12
   100401ac6: 49 8b b4 24 ff ff ff 7f   mov    rsi,QWORD PTR [r12+0x7fffffff]
   100401ace: 4c 89 a6 ff ff ff 7f  mov    QWORD PTR [rsi+0x7fffffff],r12
   100401ad5: 4c 89 ee              mov    rsi,r13
   100401ad8: 49 8b 75 00           mov    rsi,QWORD PTR [r13+0x0]
   100401adc: 4c 89 2e              mov    QWORD PTR [rsi],r13
   100401adf: 49 8b b5 ff ff ff 7f  mov    rsi,QWORD PTR [r13+0x7fffffff]
   100401ae6: 4c 89 ae ff ff ff 7f  mov    QWORD PTR [rsi+0x7fffffff],r13
   100401aed: 4c 89 f6              mov    rsi,r14
   100401af0: 49 8b 36              mov    rsi,QWORD PTR [r14]
   100401af3: 4c 89 36              mov    QWORD PTR [rsi],r14
   100401af6: 49 8b b6 ff ff ff 7f  mov    rsi,QWORD PTR [r14+0x7fffffff]
   100401afd: 4c 89 b6 ff ff ff 7f  mov    QWORD PTR [rsi+0x7fffffff],r14
   100401b04: 4c 89 fe              mov    rsi,r15
   100401b07: 49 8b 37              mov    rsi,QWORD PTR [r15]
   100401b0a: 4c 89 3e              mov    QWORD PTR [rsi],r15
   100401b0d: 49 8b b7 ff ff ff 7f  mov    rsi,QWORD PTR [r15+0x7fffffff]
   100401b14: 4c 89 be ff ff ff 7f  mov    QWORD PTR [rsi+0x7fffffff],r15
   100401b1b: 48 c7 c7 ff ff ff 7f  mov    rdi,0x7fffffff
   100401b22: 48 89 c7              mov    rdi,rax
   100401b25: 48 8b 38              mov    rdi,QWORD PTR [rax]
   100401b28: 48 89 07              mov    QWORD PTR [rdi],rax
   100401b2b: 48 8b b8 ff ff ff 7f  mov    rdi,QWORD PTR [rax+0x7fffffff]
   100401b32: 48 89 87 ff ff ff 7f  mov    QWORD PTR [rdi+0x7fffffff],rax
   100401b39: 48 89 cf              mov    rdi,rcx
   100401b3c: 48 8b 39              mov    rdi,QWORD PTR [rcx]
   100401b3f: 48 89 0f              mov    QWORD PTR [rdi],rcx
   100401b42: 48 8b b9 ff ff ff 7f  mov    rdi,QWORD PTR [rcx+0x7fffffff]
   100401b49: 48 89 8f ff ff ff 7f  mov    QWORD PTR [rdi+0x7fffffff],rcx
   100401b50: 48 89 d7              mov    rdi,rdx
   100401b53: 48 8b 3a              mov    rdi,QWORD PTR [rdx]
   100401b56: 48 89 17              mov    QWORD PTR [rdi],rdx
   100401b59: 48 8b ba ff ff ff 7f  mov    rdi,QWORD PTR [rdx+0x7fffffff]
   100401b60: 48 89 97 ff ff ff 7f  mov    QWORD PTR [rdi+0x7fffffff],rdx
   100401b67: 48 89 df              mov    rdi,rbx
   100401b6a: 48 8b 3b              mov    rdi,QWORD PTR [rbx]
   100401b6d: 48 89 1f              mov    QWORD PTR [rdi],rbx
   100401b70: 48 8b bb ff ff ff 7f  mov    rdi,QWORD PTR [rbx+0x7fffffff]
   100401b77: 48 89 9f ff ff ff 7f  mov    QWORD PTR [rdi+0x7fffffff],rbx
   100401b7e: 48 89 e7              mov    rdi,rsp
   100401b81: 48 8b 3c 24           mov    rdi,QWORD PTR [rsp]
   100401b85: 48 89 27              mov    QWORD PTR [rdi],rsp
   100401b88: 48 8b bc 24 ff ff ff 7f   mov    rdi,QWORD PTR [rsp+0x7fffffff]
   100401b90: 48 89 a7 ff ff ff 7f  mov    QWORD PTR [rdi+0x7fffffff],rsp
   100401b97: 48 89 ef              mov    rdi,rbp
   100401b9a: 48 8b 7d 00           mov    rdi,QWORD PTR [rbp+0x0]
   100401b9e: 48 89 2f              mov    QWORD PTR [rdi],rbp
   100401ba1: 48 8b bd ff ff ff 7f  mov    rdi,QWORD PTR [rbp+0x7fffffff]
   100401ba8: 48 89 af ff ff ff 7f  mov    QWORD PTR [rdi+0x7fffffff],rbp
   100401baf: 48 89 f7              mov    rdi,rsi
   100401bb2: 48 8b 3e              mov    rdi,QWORD PTR [rsi]
   100401bb5: 48 89 37              mov    QWORD PTR [rdi],rsi
   100401bb8: 48 8b be ff ff ff 7f  mov    rdi,QWORD PTR [rsi+0x7fffffff]
   100401bbf: 48 89 b7 ff ff ff 7f  mov    QWORD PTR [rdi+0x7fffffff],rsi
   100401bc6: 48 89 ff              mov    rdi,rdi
   100401bc9: 48 8b 3f              mov    rdi,QWORD PTR [rdi]
   100401bcc: 48 89 3f              mov    QWORD PTR [rdi],rdi
   100401bcf: 48 8b bf ff ff ff 7f  mov    rdi,QWORD PTR [rdi+0x7fffffff]
   100401bd6: 48 89 bf ff ff ff 7f  mov    QWORD PTR [rdi+0x7fffffff],rdi
   100401bdd: 4c 89 c7              mov    rdi,r8
   100401be0: 49 8b 38              mov    rdi,QWORD PTR [r8]
   100401be3: 4c 89 07              mov    QWORD PTR [rdi],r8
   100401be6: 49 8b b8 ff ff ff 7f  mov    rdi,QWORD PTR [r8+0x7fffffff]
   100401bed: 4c 89 87 ff ff ff 7f  mov    QWORD PTR [rdi+0x7fffffff],r8
   100401bf4: 4c 89 cf              mov    rdi,r9
   100401bf7: 49 8b 39              mov    rdi,QWORD PTR [r9]
   100401bfa: 4c 89 0f              mov    QWORD PTR [rdi],r9
   100401bfd: 49 8b b9 ff ff ff 7f  mov    rdi,QWORD PTR [r9+0x7fffffff]
   100401c04: 4c 89 8f ff ff ff 7f  mov    QWORD PTR [rdi+0x7fffffff],r9
   100401c0b: 4c 89 d7              mov    rdi,r10
   100401c0e: 49 8b 3a              mov    rdi,QWORD PTR [r10]
   100401c11: 4c 89 17              mov    QWORD PTR [rdi],r10
   100401c14: 49 8b ba ff ff ff 7f  mov    rdi,QWORD PTR [r10+0x7fffffff]
   100401c1b: 4c 89 97 ff ff ff 7f  mov    QWORD PTR [rdi+0x7fffffff],r10
   100401c22: 4c 89 df              mov    rdi,r11
   100401c25: 49 8b 3b              mov    rdi,QWORD PTR [r11]
   100401c28: 4c 89 1f              mov    QWORD PTR [rdi],r11
   100401c2b: 49 8b bb ff ff ff 7f  mov    rdi,QWORD PTR [r11+0x7fffffff]
   100401c32: 4c 89 9f ff ff ff 7f  mov    QWORD PTR [rdi+0x7fffffff],r11
   100401c39: 4c 89 e7              mov    rdi,r12
   100401c3c: 49 8b 3c 24           mov    rdi,QWORD PTR [r12]
   100401c40: 4c 89 27              mov    QWORD PTR [rdi],r12
   100401c43: 49 8b bc 24 ff ff ff 7f   mov    rdi,QWORD PTR [r12+0x7fffffff]
   100401c4b: 4c 89 a7 ff ff ff 7f  mov    QWORD PTR [rdi+0x7fffffff],r12
   100401c52: 4c 89 ef              mov    rdi,r13
   100401c55: 49 8b 7d 00           mov    rdi,QWORD PTR [r13+0x0]
   100401c59: 4c 89 2f              mov    QWORD PTR [rdi],r13
   100401c5c: 49 8b bd ff ff ff 7f  mov    rdi,QWORD PTR [r13+0x7fffffff]
   100401c63: 4c 89 af ff ff ff 7f  mov    QWORD PTR [rdi+0x7fffffff],r13
   100401c6a: 4c 89 f7              mov    rdi,r14
   100401c6d: 49 8b 3e              mov    rdi,QWORD PTR [r14]
   100401c70: 4c 89 37              mov    QWORD PTR [rdi],r14
   100401c73: 49 8b be ff ff ff 7f  mov    rdi,QWORD PTR [r14+0x7fffffff]
   100401c7a: 4c 89 b7 ff ff ff 7f  mov    QWORD PTR [rdi+0x7fffffff],r14
   100401c81: 4c 89 ff              mov    rdi,r15
   100401c84: 49 8b 3f              mov    rdi,QWORD PTR [r15]
   100401c87: 4c 89 3f              mov    QWORD PTR [rdi],r15
   100401c8a: 49 8b bf ff ff ff 7f  mov    rdi,QWORD PTR [r15+0x7fffffff]
   100401c91: 4c 89 bf ff ff ff 7f  mov    QWORD PTR [rdi+0x7fffffff],r15
   100401c98: 49 c7 c0 ff ff ff 7f  mov    r8,0x7fffffff
   100401c9f: 49 89 c0              mov    r8,rax
   100401ca2: 4c 8b 00              mov    r8,QWORD PTR [rax]
   100401ca5: 49 89 00              mov    QWORD PTR [r8],rax
   100401ca8: 4c 8b 80 ff ff ff 7f  mov    r8,QWORD PTR [rax+0x7fffffff]
   100401caf: 49 89 80 ff ff ff 7f  mov    QWORD PTR [r8+0x7fffffff],rax
   100401cb6: 49 89 c8              mov    r8,rcx
   100401cb9: 4c 8b 01              mov    r8,QWORD PTR [rcx]
   100401cbc: 49 89 08              mov    QWORD PTR [r8],rcx
   100401cbf: 4c 8b 81 ff ff ff 7f  mov    r8,QWORD PTR [rcx+0x7fffffff]
   100401cc6: 49 89 88 ff ff ff 7f  mov    QWORD PTR [r8+0x7fffffff],rcx
   100401ccd: 49 89 d0              mov    r8,rdx
   100401cd0: 4c 8b 02              mov    r8,QWORD PTR [rdx]
   100401cd3: 49 89 10              mov    QWORD PTR [r8],rdx
   100401cd6: 4c 8b 82 ff ff ff 7f  mov    r8,QWORD PTR [rdx+0x7fffffff]
   100401cdd: 49 89 90 ff ff ff 7f  mov    QWORD PTR [r8+0x7fffffff],rdx
   100401ce4: 49 89 d8              mov    r8,rbx
   100401ce7: 4c 8b 03              mov    r8,QWORD PTR [rbx]
   100401cea: 49 89 18              mov    QWORD PTR [r8],rbx
   100401ced: 4c 8b 83 ff ff ff 7f  mov    r8,QWORD PTR [rbx+0x7fffffff]
   100401cf4: 49 89 98 ff ff ff 7f  mov    QWORD PTR [r8+0x7fffffff],rbx
   100401cfb: 49 89 e0              mov    r8,rsp
   100401cfe: 4c 8b 04 24           mov    r8,QWORD PTR [rsp]
   100401d02: 49 89 20              mov    QWORD PTR [r8],rsp
   100401d05: 4c 8b 84 24 ff ff ff 7f   mov    r8,QWORD PTR [rsp+0x7fffffff]
   100401d0d: 49 89 a0 ff ff ff 7f  mov    QWORD PTR [r8+0x7fffffff],rsp
   100401d14: 49 89 e8              mov    r8,rbp
   100401d17: 4c 8b 45 00           mov    r8,QWORD PTR [rbp+0x0]
   100401d1b: 49 89 28              mov    QWORD PTR [r8],rbp
   100401d1e: 4c 8b 85 ff ff ff 7f  mov    r8,QWORD PTR [rbp+0x7fffffff]
   100401d25: 49 89 a8 ff ff ff 7f  mov    QWORD PTR [r8+0x7fffffff],rbp
   100401d2c: 49 89 f0              mov    r8,rsi
   100401d2f: 4c 8b 06              mov    r8,QWORD PTR [rsi]
   100401d32: 49 89 30              mov    QWORD PTR [r8],rsi
   100401d35: 4c 8b 86 ff ff ff 7f  mov    r8,QWORD PTR [rsi+0x7fffffff]
   100401d3c: 49 89 b0 ff ff ff 7f  mov    QWORD PTR [r8+0x7fffffff],rsi
   100401d43: 49 89 f8              mov    r8,rdi
   100401d46: 4c 8b 07              mov    r8,QWORD PTR [rdi]
   100401d49: 49 89 38              mov    QWORD PTR [r8],rdi
   100401d4c: 4c 8b 87 ff ff ff 7f  mov    r8,QWORD PTR [rdi+0x7fffffff]
   100401d53: 49 89 b8 ff ff ff 7f  mov    QWORD PTR [r8+0x7fffffff],rdi
   100401d5a: 4d 89 c0              mov    r8,r8
   100401d5d: 4d 8b 00              mov    r8,QWORD PTR [r8]
   100401d60: 4d 89 00              mov    QWORD PTR [r8],r8
   100401d63: 4d 8b 80 ff ff ff 7f  mov    r8,QWORD PTR [r8+0x7fffffff]
   100401d6a: 4d 89 80 ff ff ff 7f  mov    QWORD PTR [r8+0x7fffffff],r8
   100401d71: 4d 89 c8              mov    r8,r9
   100401d74: 4d 8b 01              mov    r8,QWORD PTR [r9]
   100401d77: 4d 89 08              mov    QWORD PTR [r8],r9
   100401d7a: 4d 8b 81 ff ff ff 7f  mov    r8,QWORD PTR [r9+0x7fffffff]
   100401d81: 4d 89 88 ff ff ff 7f  mov    QWORD PTR [r8+0x7fffffff],r9
   100401d88: 4d 89 d0              mov    r8,r10
   100401d8b: 4d 8b 02              mov    r8,QWORD PTR [r10]
   100401d8e: 4d 89 10              mov    QWORD PTR [r8],r10
   100401d91: 4d 8b 82 ff ff ff 7f  mov    r8,QWORD PTR [r10+0x7fffffff]
   100401d98: 4d 89 90 ff ff ff 7f  mov    QWORD PTR [r8+0x7fffffff],r10
   100401d9f: 4d 89 d8              mov    r8,r11
   100401da2: 4d 8b 03              mov    r8,QWORD PTR [r11]
   100401da5: 4d 89 18              mov    QWORD PTR [r8],r11
   100401da8: 4d 8b 83 ff ff ff 7f  mov    r8,QWORD PTR [r11+0x7fffffff]
   100401daf: 4d 89 98 ff ff ff 7f  mov    QWORD PTR [r8+0x7fffffff],r11
   100401db6: 4d 89 e0              mov    r8,r12
   100401db9: 4d 8b 04 24           mov    r8,QWORD PTR [r12]
   100401dbd: 4d 89 20              mov    QWORD PTR [r8],r12
   100401dc0: 4d 8b 84 24 ff ff ff 7f   mov    r8,QWORD PTR [r12+0x7fffffff]
   100401dc8: 4d 89 a0 ff ff ff 7f  mov    QWORD PTR [r8+0x7fffffff],r12
   100401dcf: 4d 89 e8              mov    r8,r13
   100401dd2: 4d 8b 45 00           mov    r8,QWORD PTR [r13+0x0]
   100401dd6: 4d 89 28              mov    QWORD PTR [r8],r13
   100401dd9: 4d 8b 85 ff ff ff 7f  mov    r8,QWORD PTR [r13+0x7fffffff]
   100401de0: 4d 89 a8 ff ff ff 7f  mov    QWORD PTR [r8+0x7fffffff],r13
   100401de7: 4d 89 f0              mov    r8,r14
   100401dea: 4d 8b 06              mov    r8,QWORD PTR [r14]
   100401ded: 4d 89 30              mov    QWORD PTR [r8],r14
   100401df0: 4d 8b 86 ff ff ff 7f  mov    r8,QWORD PTR [r14+0x7fffffff]
   100401df7: 4d 89 b0 ff ff ff 7f  mov    QWORD PTR [r8+0x7fffffff],r14
   100401dfe: 4d 89 f8              mov    r8,r15
   100401e01: 4d 8b 07              mov    r8,QWORD PTR [r15]
   100401e04: 4d 89 38              mov    QWORD PTR [r8],r15
   100401e07: 4d 8b 87 ff ff ff 7f  mov    r8,QWORD PTR [r15+0x7fffffff]
   100401e0e: 4d 89 b8 ff ff ff 7f  mov    QWORD PTR [r8+0x7fffffff],r15
   100401e15: 49 c7 c1 ff ff ff 7f  mov    r9,0x7fffffff
   100401e1c: 49 89 c1              mov    r9,rax
   100401e1f: 4c 8b 08              mov    r9,QWORD PTR [rax]
   100401e22: 49 89 01              mov    QWORD PTR [r9],rax
   100401e25: 4c 8b 88 ff ff ff 7f  mov    r9,QWORD PTR [rax+0x7fffffff]
   100401e2c: 49 89 81 ff ff ff 7f  mov    QWORD PTR [r9+0x7fffffff],rax
   100401e33: 49 89 c9              mov    r9,rcx
   100401e36: 4c 8b 09              mov    r9,QWORD PTR [rcx]
   100401e39: 49 89 09              mov    QWORD PTR [r9],rcx
   100401e3c: 4c 8b 89 ff ff ff 7f  mov    r9,QWORD PTR [rcx+0x7fffffff]
   100401e43: 49 89 89 ff ff ff 7f  mov    QWORD PTR [r9+0x7fffffff],rcx
   100401e4a: 49 89 d1              mov    r9,rdx
   100401e4d: 4c 8b 0a              mov    r9,QWORD PTR [rdx]
   100401e50: 49 89 11              mov    QWORD PTR [r9],rdx
   100401e53: 4c 8b 8a ff ff ff 7f  mov    r9,QWORD PTR [rdx+0x7fffffff]
   100401e5a: 49 89 91 ff ff ff 7f  mov    QWORD PTR [r9+0x7fffffff],rdx
   100401e61: 49 89 d9              mov    r9,rbx
   100401e64: 4c 8b 0b              mov    r9,QWORD PTR [rbx]
   100401e67: 49 89 19              mov    QWORD PTR [r9],rbx
   100401e6a: 4c 8b 8b ff ff ff 7f  mov    r9,QWORD PTR [rbx+0x7fffffff]
   100401e71: 49 89 99 ff ff ff 7f  mov    QWORD PTR [r9+0x7fffffff],rbx
   100401e78: 49 89 e1              mov    r9,rsp
   100401e7b: 4c 8b 0c 24           mov    r9,QWORD PTR [rsp]
   100401e7f: 49 89 21              mov    QWORD PTR [r9],rsp
   100401e82: 4c 8b 8c 24 ff ff ff 7f   mov    r9,QWORD PTR [rsp+0x7fffffff]
   100401e8a: 49 89 a1 ff ff ff 7f  mov    QWORD PTR [r9+0x7fffffff],rsp
   100401e91: 49 89 e9              mov    r9,rbp
   100401e94: 4c 8b 4d 00           mov    r9,QWORD PTR [rbp+0x0]
   100401e98: 49 89 29              mov    QWORD PTR [r9],rbp
   100401e9b: 4c 8b 8d ff ff ff 7f  mov    r9,QWORD PTR [rbp+0x7fffffff]
   100401ea2: 49 89 a9 ff ff ff 7f  mov    QWORD PTR [r9+0x7fffffff],rbp
   100401ea9: 49 89 f1              mov    r9,rsi
   100401eac: 4c 8b 0e              mov    r9,QWORD PTR [rsi]
   100401eaf: 49 89 31              mov    QWORD PTR [r9],rsi
   100401eb2: 4c 8b 8e ff ff ff 7f  mov    r9,QWORD PTR [rsi+0x7fffffff]
   100401eb9: 49 89 b1 ff ff ff 7f  mov    QWORD PTR [r9+0x7fffffff],rsi
   100401ec0: 49 89 f9              mov    r9,rdi
   100401ec3: 4c 8b 0f              mov    r9,QWORD PTR [rdi]
   100401ec6: 49 89 39              mov    QWORD PTR [r9],rdi
   100401ec9: 4c 8b 8f ff ff ff 7f  mov    r9,QWORD PTR [rdi+0x7fffffff]
   100401ed0: 49 89 b9 ff ff ff 7f  mov    QWORD PTR [r9+0x7fffffff],rdi
   100401ed7: 4d 89 c1              mov    r9,r8
   100401eda: 4d 8b 08              mov    r9,QWORD PTR [r8]
   100401edd: 4d 89 01              mov    QWORD PTR [r9],r8
   100401ee0: 4d 8b 88 ff ff ff 7f  mov    r9,QWORD PTR [r8+0x7fffffff]
   100401ee7: 4d 89 81 ff ff ff 7f  mov    QWORD PTR [r9+0x7fffffff],r8
   100401eee: 4d 89 c9              mov    r9,r9
   100401ef1: 4d 8b 09              mov    r9,QWORD PTR [r9]
   100401ef4: 4d 89 09              mov    QWORD PTR [r9],r9
   100401ef7: 4d 8b 89 ff ff ff 7f  mov    r9,QWORD PTR [r9+0x7fffffff]
   100401efe: 4d 89 89 ff ff ff 7f  mov    QWORD PTR [r9+0x7fffffff],r9
   100401f05: 4d 89 d1              mov    r9,r10
   100401f08: 4d 8b 0a              mov    r9,QWORD PTR [r10]
   100401f0b: 4d 89 11              mov    QWORD PTR [r9],r10
   100401f0e: 4d 8b 8a ff ff ff 7f  mov    r9,QWORD PTR [r10+0x7fffffff]
   100401f15: 4d 89 91 ff ff ff 7f  mov    QWORD PTR [r9+0x7fffffff],r10
   100401f1c: 4d 89 d9              mov    r9,r11
   100401f1f: 4d 8b 0b              mov    r9,QWORD PTR [r11]
   100401f22: 4d 89 19              mov    QWORD PTR [r9],r11
   100401f25: 4d 8b 8b ff ff ff 7f  mov    r9,QWORD PTR [r11+0x7fffffff]
   100401f2c: 4d 89 99 ff ff ff 7f  mov    QWORD PTR [r9+0x7fffffff],r11
   100401f33: 4d 89 e1              mov    r9,r12
   100401f36: 4d 8b 0c 24           mov    r9,QWORD PTR [r12]
   100401f3a: 4d 89 21              mov    QWORD PTR [r9],r12
   100401f3d: 4d 8b 8c 24 ff ff ff 7f   mov    r9,QWORD PTR [r12+0x7fffffff]
   100401f45: 4d 89 a1 ff ff ff 7f  mov    QWORD PTR [r9+0x7fffffff],r12
   100401f4c: 4d 89 e9              mov    r9,r13
   100401f4f: 4d 8b 4d 00           mov    r9,QWORD PTR [r13+0x0]
   100401f53: 4d 89 29              mov    QWORD PTR [r9],r13
   100401f56: 4d 8b 8d ff ff ff 7f  mov    r9,QWORD PTR [r13+0x7fffffff]
   100401f5d: 4d 89 a9 ff ff ff 7f  mov    QWORD PTR [r9+0x7fffffff],r13
   100401f64: 4d 89 f1              mov    r9,r14
   100401f67: 4d 8b 0e              mov    r9,QWORD PTR [r14]
   100401f6a: 4d 89 31              mov    QWORD PTR [r9],r14
   100401f6d: 4d 8b 8e ff ff ff 7f  mov    r9,QWORD PTR [r14+0x7fffffff]
   100401f74: 4d 89 b1 ff ff ff 7f  mov    QWORD PTR [r9+0x7fffffff],r14
   100401f7b: 4d 89 f9              mov    r9,r15
   100401f7e: 4d 8b 0f              mov    r9,QWORD PTR [r15]
   100401f81: 4d 89 39              mov    QWORD PTR [r9],r15
   100401f84: 4d 8b 8f ff ff ff 7f  mov    r9,QWORD PTR [r15+0x7fffffff]
   100401f8b: 4d 89 b9 ff ff ff 7f  mov    QWORD PTR [r9+0x7fffffff],r15
   100401f92: 49 c7 c2 ff ff ff 7f  mov    r10,0x7fffffff
   100401f99: 49 89 c2              mov    r10,rax
   100401f9c: 4c 8b 10              mov    r10,QWORD PTR [rax]
   100401f9f: 49 89 02              mov    QWORD PTR [r10],rax
   100401fa2: 4c 8b 90 ff ff ff 7f  mov    r10,QWORD PTR [rax+0x7fffffff]
   100401fa9: 49 89 82 ff ff ff 7f  mov    QWORD PTR [r10+0x7fffffff],rax
   100401fb0: 49 89 ca              mov    r10,rcx
   100401fb3: 4c 8b 11              mov    r10,QWORD PTR [rcx]
   100401fb6: 49 89 0a              mov    QWORD PTR [r10],rcx
   100401fb9: 4c 8b 91 ff ff ff 7f  mov    r10,QWORD PTR [rcx+0x7fffffff]
   100401fc0: 49 89 8a ff ff ff 7f  mov    QWORD PTR [r10+0x7fffffff],rcx
   100401fc7: 49 89 d2              mov    r10,rdx
   100401fca: 4c 8b 12              mov    r10,QWORD PTR [rdx]
   100401fcd: 49 89 12              mov    QWORD PTR [r10],rdx
   100401fd0: 4c 8b 92 ff ff ff 7f  mov    r10,QWORD PTR [rdx+0x7fffffff]
   100401fd7: 49 89 92 ff ff ff 7f  mov    QWORD PTR [r10+0x7fffffff],rdx
   100401fde: 49 89 da              mov    r10,rbx
   100401fe1: 4c 8b 13              mov    r10,QWORD PTR [rbx]
   100401fe4: 49 89 1a              mov    QWORD PTR [r10],rbx
   100401fe7: 4c 8b 93 ff ff ff 7f  mov    r10,QWORD PTR [rbx+0x7fffffff]
   100401fee: 49 89 9a ff ff ff 7f  mov    QWORD PTR [r10+0x7fffffff],rbx
   100401ff5: 49 89 e2              mov    r10,rsp
   100401ff8: 4c 8b 14 24           mov    r10,QWORD PTR [rsp]
   100401ffc: 49 89 22              mov    QWORD PTR [r10],rsp
   100401fff: 4c 8b 94 24 ff ff ff 7f   mov    r10,QWORD PTR [rsp+0x7fffffff]
   100402007: 49 89 a2 ff ff ff 7f  mov    QWORD PTR [r10+0x7fffffff],rsp
   10040200e: 49 89 ea              mov    r10,rbp
   100402011: 4c 8b 55 00           mov    r10,QWORD PTR [rbp+0x0]
   100402015: 49 89 2a              mov    QWORD PTR [r10],rbp
   100402018: 4c 8b 95 ff ff ff 7f  mov    r10,QWORD PTR [rbp+0x7fffffff]
   10040201f: 49 89 aa ff ff ff 7f  mov    QWORD PTR [r10+0x7fffffff],rbp
   100402026: 49 89 f2              mov    r10,rsi
   100402029: 4c 8b 16              mov    r10,QWORD PTR [rsi]
   10040202c: 49 89 32              mov    QWORD PTR [r10],rsi
   10040202f: 4c 8b 96 ff ff ff 7f  mov    r10,QWORD PTR [rsi+0x7fffffff]
   100402036: 49 89 b2 ff ff ff 7f  mov    QWORD PTR [r10+0x7fffffff],rsi
   10040203d: 49 89 fa              mov    r10,rdi
   100402040: 4c 8b 17              mov    r10,QWORD PTR [rdi]
   100402043: 49 89 3a              mov    QWORD PTR [r10],rdi
   100402046: 4c 8b 97 ff ff ff 7f  mov    r10,QWORD PTR [rdi+0x7fffffff]
   10040204d: 49 89 ba ff ff ff 7f  mov    QWORD PTR [r10+0x7fffffff],rdi
   100402054: 4d 89 c2              mov    r10,r8
   100402057: 4d 8b 10              mov    r10,QWORD PTR [r8]
   10040205a: 4d 89 02              mov    QWORD PTR [r10],r8
   10040205d: 4d 8b 90 ff ff ff 7f  mov    r10,QWORD PTR [r8+0x7fffffff]
   100402064: 4d 89 82 ff ff ff 7f  mov    QWORD PTR [r10+0x7fffffff],r8
   10040206b: 4d 89 ca              mov    r10,r9
   10040206e: 4d 8b 11              mov    r10,QWORD PTR [r9]
   100402071: 4d 89 0a              mov    QWORD PTR [r10],r9
   100402074: 4d 8b 91 ff ff ff 7f  mov    r10,QWORD PTR [r9+0x7fffffff]
   10040207b: 4d 89 8a ff ff ff 7f  mov    QWORD PTR [r10+0x7fffffff],r9
   100402082: 4d 89 d2              mov    r10,r10
   100402085: 4d 8b 12              mov    r10,QWORD PTR [r10]
   100402088: 4d 89 12              mov    QWORD PTR [r10],r10
   10040208b: 4d 8b 92 ff ff ff 7f  mov    r10,QWORD PTR [r10+0x7fffffff]
   100402092: 4d 89 92 ff ff ff 7f  mov    QWORD PTR [r10+0x7fffffff],r10
   100402099: 4d 89 da              mov    r10,r11
   10040209c: 4d 8b 13              mov    r10,QWORD PTR [r11]
   10040209f: 4d 89 1a              mov    QWORD PTR [r10],r11
   1004020a2: 4d 8b 93 ff ff ff 7f  mov    r10,QWORD PTR [r11+0x7fffffff]
   1004020a9: 4d 89 9a ff ff ff 7f  mov    QWORD PTR [r10+0x7fffffff],r11
   1004020b0: 4d 89 e2              mov    r10,r12
   1004020b3: 4d 8b 14 24           mov    r10,QWORD PTR [r12]
   1004020b7: 4d 89 22              mov    QWORD PTR [r10],r12
   1004020ba: 4d 8b 94 24 ff ff ff 7f   mov    r10,QWORD PTR [r12+0x7fffffff]
   1004020c2: 4d 89 a2 ff ff ff 7f  mov    QWORD PTR [r10+0x7fffffff],r12
   1004020c9: 4d 89 ea              mov    r10,r13
   1004020cc: 4d 8b 55 00           mov    r10,QWORD PTR [r13+0x0]
   1004020d0: 4d 89 2a              mov    QWORD PTR [r10],r13
   1004020d3: 4d 8b 95 ff ff ff 7f  mov    r10,QWORD PTR [r13+0x7fffffff]
   1004020da: 4d 89 aa ff ff ff 7f  mov    QWORD PTR [r10+0x7fffffff],r13
   1004020e1: 4d 89 f2              mov    r10,r14
   1004020e4: 4d 8b 16              mov    r10,QWORD PTR [r14]
   1004020e7: 4d 89 32              mov    QWORD PTR [r10],r14
   1004020ea: 4d 8b 96 ff ff ff 7f  mov    r10,QWORD PTR [r14+0x7fffffff]
   1004020f1: 4d 89 b2 ff ff ff 7f  mov    QWORD PTR [r10+0x7fffffff],r14
   1004020f8: 4d 89 fa              mov    r10,r15
   1004020fb: 4d 8b 17              mov    r10,QWORD PTR [r15]
   1004020fe: 4d 89 3a              mov    QWORD PTR [r10],r15
   100402101: 4d 8b 97 ff ff ff 7f  mov    r10,QWORD PTR [r15+0x7fffffff]
   100402108: 4d 89 ba ff ff ff 7f  mov    QWORD PTR [r10+0x7fffffff],r15
   10040210f: 49 c7 c3 ff ff ff 7f  mov    r11,0x7fffffff
   100402116: 49 89 c3              mov    r11,rax
   100402119: 4c 8b 18              mov    r11,QWORD PTR [rax]
   10040211c: 49 89 03              mov    QWORD PTR [r11],rax
   10040211f: 4c 8b 98 ff ff ff 7f  mov    r11,QWORD PTR [rax+0x7fffffff]
   100402126: 49 89 83 ff ff ff 7f  mov    QWORD PTR [r11+0x7fffffff],rax
   10040212d: 49 89 cb              mov    r11,rcx
   100402130: 4c 8b 19              mov    r11,QWORD PTR [rcx]
   100402133: 49 89 0b              mov    QWORD PTR [r11],rcx
   100402136: 4c 8b 99 ff ff ff 7f  mov    r11,QWORD PTR [rcx+0x7fffffff]
   10040213d: 49 89 8b ff ff ff 7f  mov    QWORD PTR [r11+0x7fffffff],rcx
   100402144: 49 89 d3              mov    r11,rdx
   100402147: 4c 8b 1a              mov    r11,QWORD PTR [rdx]
   10040214a: 49 89 13              mov    QWORD PTR [r11],rdx
   10040214d: 4c 8b 9a ff ff ff 7f  mov    r11,QWORD PTR [rdx+0x7fffffff]
   100402154: 49 89 93 ff ff ff 7f  mov    QWORD PTR [r11+0x7fffffff],rdx
   10040215b: 49 89 db              mov    r11,rbx
   10040215e: 4c 8b 1b              mov    r11,QWORD PTR [rbx]
   100402161: 49 89 1b              mov    QWORD PTR [r11],rbx
   100402164: 4c 8b 9b ff ff ff 7f  mov    r11,QWORD PTR [rbx+0x7fffffff]
   10040216b: 49 89 9b ff ff ff 7f  mov    QWORD PTR [r11+0x7fffffff],rbx
   100402172: 49 89 e3              mov    r11,rsp
   100402175: 4c 8b 1c 24           mov    r11,QWORD PTR [rsp]
   100402179: 49 89 23              mov    QWORD PTR [r11],rsp
   10040217c: 4c 8b 9c 24 ff ff ff 7f   mov    r11,QWORD PTR [rsp+0x7fffffff]
   100402184: 49 89 a3 ff ff ff 7f  mov    QWORD PTR [r11+0x7fffffff],rsp
   10040218b: 49 89 eb              mov    r11,rbp
   10040218e: 4c 8b 5d 00           mov    r11,QWORD PTR [rbp+0x0]
   100402192: 49 89 2b              mov    QWORD PTR [r11],rbp
   100402195: 4c 8b 9d ff ff ff 7f  mov    r11,QWORD PTR [rbp+0x7fffffff]
   10040219c: 49 89 ab ff ff ff 7f  mov    QWORD PTR [r11+0x7fffffff],rbp
   1004021a3: 49 89 f3              mov    r11,rsi
   1004021a6: 4c 8b 1e              mov    r11,QWORD PTR [rsi]
   1004021a9: 49 89 33              mov    QWORD PTR [r11],rsi
   1004021ac: 4c 8b 9e ff ff ff 7f  mov    r11,QWORD PTR [rsi+0x7fffffff]
   1004021b3: 49 89 b3 ff ff ff 7f  mov    QWORD PTR [r11+0x7fffffff],rsi
   1004021ba: 49 89 fb              mov    r11,rdi
   1004021bd: 4c 8b 1f              mov    r11,QWORD PTR [rdi]
   1004021c0: 49 89 3b              mov    QWORD PTR [r11],rdi
   1004021c3: 4c 8b 9f ff ff ff 7f  mov    r11,QWORD PTR [rdi+0x7fffffff]
   1004021ca: 49 89 bb ff ff ff 7f  mov    QWORD PTR [r11+0x7fffffff],rdi
   1004021d1: 4d 89 c3              mov    r11,r8
   1004021d4: 4d 8b 18              mov    r11,QWORD PTR [r8]
   1004021d7: 4d 89 03              mov    QWORD PTR [r11],r8
   1004021da: 4d 8b 98 ff ff ff 7f  mov    r11,QWORD PTR [r8+0x7fffffff]
   1004021e1: 4d 89 83 ff ff ff 7f  mov    QWORD PTR [r11+0x7fffffff],r8
   1004021e8: 4d 89 cb              mov    r11,r9
   1004021eb: 4d 8b 19              mov    r11,QWORD PTR [r9]
   1004021ee: 4d 89 0b              mov    QWORD PTR [r11],r9
   1004021f1: 4d 8b 99 ff ff ff 7f  mov    r11,QWORD PTR [r9+0x7fffffff]
   1004021f8: 4d 89 8b ff ff ff 7f  mov    QWORD PTR [r11+0x7fffffff],r9
   1004021ff: 4d 89 d3              mov    r11,r10
   100402202: 4d 8b 1a              mov    r11,QWORD PTR [r10]
   100402205: 4d 89 13              mov    QWORD PTR [r11],r10
   100402208: 4d 8b 9a ff ff ff 7f  mov    r11,QWORD PTR [r10+0x7fffffff]
   10040220f: 4d 89 93 ff ff ff 7f  mov    QWORD PTR [r11+0x7fffffff],r10
   100402216: 4d 89 db              mov    r11,r11
   100402219: 4d 8b 1b              mov    r11,QWORD PTR [r11]
   10040221c: 4d 89 1b              mov    QWORD PTR [r11],r11
   10040221f: 4d 8b 9b ff ff ff 7f  mov    r11,QWORD PTR [r11+0x7fffffff]
   100402226: 4d 89 9b ff ff ff 7f  mov    QWORD PTR [r11+0x7fffffff],r11
   10040222d: 4d 89 e3              mov    r11,r12
   100402230: 4d 8b 1c 24           mov    r11,QWORD PTR [r12]
   100402234: 4d 89 23              mov    QWORD PTR [r11],r12
   100402237: 4d 8b 9c 24 ff ff ff 7f   mov    r11,QWORD PTR [r12+0x7fffffff]
   10040223f: 4d 89 a3 ff ff ff 7f  mov    QWORD PTR [r11+0x7fffffff],r12
   100402246: 4d 89 eb              mov    r11,r13
   100402249: 4d 8b 5d 00           mov    r11,QWORD PTR [r13+0x0]
   10040224d: 4d 89 2b              mov    QWORD PTR [r11],r13
   100402250: 4d 8b 9d ff ff ff 7f  mov    r11,QWORD PTR [r13+0x7fffffff]
   100402257: 4d 89 ab ff ff ff 7f  mov    QWORD PTR [r11+0x7fffffff],r13
   10040225e: 4d 89 f3              mov    r11,r14
   100402261: 4d 8b 1e              mov    r11,QWORD PTR [r14]
   100402264: 4d 89 33              mov    QWORD PTR [r11],r14
   100402267: 4d 8b 9e ff ff ff 7f  mov    r11,QWORD PTR [r14+0x7fffffff]
   10040226e: 4d 89 b3 ff ff ff 7f  mov    QWORD PTR [r11+0x7fffffff],r14
   100402275: 4d 89 fb              mov    r11,r15
   100402278: 4d 8b 1f              mov    r11,QWORD PTR [r15]
   10040227b: 4d 89 3b              mov    QWORD PTR [r11],r15
   10040227e: 4d 8b 9f ff ff ff 7f  mov    r11,QWORD PTR [r15+0x7fffffff]
   100402285: 4d 89 bb ff ff ff 7f  mov    QWORD PTR [r11+0x7fffffff],r15
   10040228c: 49 c7 c4 ff ff ff 7f  mov    r12,0x7fffffff
   100402293: 49 89 c4              mov    r12,rax
   100402296: 4c 8b 20              mov    r12,QWORD PTR [rax]
   100402299: 49 89 04 24           mov    QWORD PTR [r12],rax
   10040229d: 4c 8b a0 ff ff ff 7f  mov    r12,QWORD PTR [rax+0x7fffffff]
   1004022a4: 49 89 84 24 ff ff ff 7f   mov    QWORD PTR [r12+0x7fffffff],rax
   1004022ac: 49 89 cc              mov    r12,rcx
   1004022af: 4c 8b 21              mov    r12,QWORD PTR [rcx]
   1004022b2: 49 89 0c 24           mov    QWORD PTR [r12],rcx
   1004022b6: 4c 8b a1 ff ff ff 7f  mov    r12,QWORD PTR [rcx+0x7fffffff]
   1004022bd: 49 89 8c 24 ff ff ff 7f   mov    QWORD PTR [r12+0x7fffffff],rcx
   1004022c5: 49 89 d4              mov    r12,rdx
   1004022c8: 4c 8b 22              mov    r12,QWORD PTR [rdx]
   1004022cb: 49 89 14 24           mov    QWORD PTR [r12],rdx
   1004022cf: 4c 8b a2 ff ff ff 7f  mov    r12,QWORD PTR [rdx+0x7fffffff]
   1004022d6: 49 89 94 24 ff ff ff 7f   mov    QWORD PTR [r12+0x7fffffff],rdx
   1004022de: 49 89 dc              mov    r12,rbx
   1004022e1: 4c 8b 23              mov    r12,QWORD PTR [rbx]
   1004022e4: 49 89 1c 24           mov    QWORD PTR [r12],rbx
   1004022e8: 4c 8b a3 ff ff ff 7f  mov    r12,QWORD PTR [rbx+0x7fffffff]
   1004022ef: 49 89 9c 24 ff ff ff 7f   mov    QWORD PTR [r12+0x7fffffff],rbx
   1004022f7: 49 89 e4              mov    r12,rsp
   1004022fa: 4c 8b 24 24           mov    r12,QWORD PTR [rsp]
   1004022fe: 49 89 24 24           mov    QWORD PTR [r12],rsp
   100402302: 4c 8b a4 24 ff ff ff 7f   mov    r12,QWORD PTR [rsp+0x7fffffff]
   10040230a: 49 89 a4 24 ff ff ff 7f   mov    QWORD PTR [r12+0x7fffffff],rsp
   100402312: 49 89 ec              mov    r12,rbp
   100402315: 4c 8b 65 00           mov    r12,QWORD PTR [rbp+0x0]
   100402319: 49 89 2c 24           mov    QWORD PTR [r12],rbp
   10040231d: 4c 8b a5 ff ff ff 7f  mov    r12,QWORD PTR [rbp+0x7fffffff]
   100402324: 49 89 ac 24 ff ff ff 7f   mov    QWORD PTR [r12+0x7fffffff],rbp
   10040232c: 49 89 f4              mov    r12,rsi
   10040232f: 4c 8b 26              mov    r12,QWORD PTR [rsi]
   100402332: 49 89 34 24           mov    QWORD PTR [r12],rsi
   100402336: 4c 8b a6 ff ff ff 7f  mov    r12,QWORD PTR [rsi+0x7fffffff]
   10040233d: 49 89 b4 24 ff ff ff 7f   mov    QWORD PTR [r12+0x7fffffff],rsi
   100402345: 49 89 fc              mov    r12,rdi
   100402348: 4c 8b 27              mov    r12,QWORD PTR [rdi]
   10040234b: 49 89 3c 24           mov    QWORD PTR [r12],rdi
   10040234f: 4c 8b a7 ff ff ff 7f  mov    r12,QWORD PTR [rdi+0x7fffffff]
   100402356: 49 89 bc 24 ff ff ff 7f   mov    QWORD PTR [r12+0x7fffffff],rdi
   10040235e: 4d 89 c4              mov    r12,r8
   100402361: 4d 8b 20              mov    r12,QWORD PTR [r8]
   100402364: 4d 89 04 24           mov    QWORD PTR [r12],r8
   100402368: 4d 8b a0 ff ff ff 7f  mov    r12,QWORD PTR [r8+0x7fffffff]
   10040236f: 4d 89 84 24 ff ff ff 7f   mov    QWORD PTR [r12+0x7fffffff],r8
   100402377: 4d 89 cc              mov    r12,r9
   10040237a: 4d 8b 21              mov    r12,QWORD PTR [r9]
   10040237d: 4d 89 0c 24           mov    QWORD PTR [r12],r9
   100402381: 4d 8b a1 ff ff ff 7f  mov    r12,QWORD PTR [r9+0x7fffffff]
   100402388: 4d 89 8c 24 ff ff ff 7f   mov    QWORD PTR [r12+0x7fffffff],r9
   100402390: 4d 89 d4              mov    r12,r10
   100402393: 4d 8b 22              mov    r12,QWORD PTR [r10]
   100402396: 4d 89 14 24           mov    QWORD PTR [r12],r10
   10040239a: 4d 8b a2 ff ff ff 7f  mov    r12,QWORD PTR [r10+0x7fffffff]
   1004023a1: 4d 89 94 24 ff ff ff 7f   mov    QWORD PTR [r12+0x7fffffff],r10
   1004023a9: 4d 89 dc              mov    r12,r11
   1004023ac: 4d 8b 23              mov    r12,QWORD PTR [r11]
   1004023af: 4d 89 1c 24           mov    QWORD PTR [r12],r11
   1004023b3: 4d 8b a3 ff ff ff 7f  mov    r12,QWORD PTR [r11+0x7fffffff]
   1004023ba: 4d 89 9c 24 ff ff ff 7f   mov    QWORD PTR [r12+0x7fffffff],r11
   1004023c2: 4d 89 e4              mov    r12,r12
   1004023c5: 4d 8b 24 24           mov    r12,QWORD PTR [r12]
   1004023c9: 4d 89 24 24           mov    QWORD PTR [r12],r12
   1004023cd: 4d 8b a4 24 ff ff ff 7f   mov    r12,QWORD PTR [r12+0x7fffffff]
   1004023d5: 4d 89 a4 24 ff ff ff 7f   mov    QWORD PTR [r12+0x7fffffff],r12
   1004023dd: 4d 89 ec              mov    r12,r13
   1004023e0: 4d 8b 65 00           mov    r12,QWORD PTR [r13+0x0]
   1004023e4: 4d 89 2c 24           mov    QWORD PTR [r12],r13
   1004023e8: 4d 8b a5 ff ff ff 7f  mov    r12,QWORD PTR [r13+0x7fffffff]
   1004023ef: 4d 89 ac 24 ff ff ff 7f   mov    QWORD PTR [r12+0x7fffffff],r13
   1004023f7: 4d 89 f4              mov    r12,r14
   1004023fa: 4d 8b 26              mov    r12,QWORD PTR [r14]
   1004023fd: 4d 89 34 24           mov    QWORD PTR [r12],r14
   100402401: 4d 8b a6 ff ff ff 7f  mov    r12,QWORD PTR [r14+0x7fffffff]
   100402408: 4d 89 b4 24 ff ff ff 7f   mov    QWORD PTR [r12+0x7fffffff],r14
   100402410: 4d 89 fc              mov    r12,r15
   100402413: 4d 8b 27              mov    r12,QWORD PTR [r15]
   100402416: 4d 89 3c 24           mov    QWORD PTR [r12],r15
   10040241a: 4d 8b a7 ff ff ff 7f  mov    r12,QWORD PTR [r15+0x7fffffff]
   100402421: 4d 89 bc 24 ff ff ff 7f   mov    QWORD PTR [r12+0x7fffffff],r15
   100402429: 49 c7 c5 ff ff ff 7f  mov    r13,0x7fffffff
   100402430: 49 89 c5              mov    r13,rax
   100402433: 4c 8b 28              mov    r13,QWORD PTR [rax]
   100402436: 49 89 45 00           mov    QWORD PTR [r13+0x0],rax
   10040243a: 4c 8b a8 ff ff ff 7f  mov    r13,QWORD PTR [rax+0x7fffffff]
   100402441: 49 89 85 ff ff ff 7f  mov    QWORD PTR [r13+0x7fffffff],rax
   100402448: 49 89 cd              mov    r13,rcx
   10040244b: 4c 8b 29              mov    r13,QWORD PTR [rcx]
   10040244e: 49 89 4d 00           mov    QWORD PTR [r13+0x0],rcx
   100402452: 4c 8b a9 ff ff ff 7f  mov    r13,QWORD PTR [rcx+0x7fffffff]
   100402459: 49 89 8d ff ff ff 7f  mov    QWORD PTR [r13+0x7fffffff],rcx
   100402460: 49 89 d5              mov    r13,rdx
   100402463: 4c 8b 2a              mov    r13,QWORD PTR [rdx]
   100402466: 49 89 55 00           mov    QWORD PTR [r13+0x0],rdx
   10040246a: 4c 8b aa ff ff ff 7f  mov    r13,QWORD PTR [rdx+0x7fffffff]
   100402471: 49 89 95 ff ff ff 7f  mov    QWORD PTR [r13+0x7fffffff],rdx
   100402478: 49 89 dd              mov    r13,rbx
   10040247b: 4c 8b 2b              mov    r13,QWORD PTR [rbx]
   10040247e: 49 89 5d 00           mov    QWORD PTR [r13+0x0],rbx
   100402482: 4c 8b ab ff ff ff 7f  mov    r13,QWORD PTR [rbx+0x7fffffff]
   100402489: 49 89 9d ff ff ff 7f  mov    QWORD PTR [r13+0x7fffffff],rbx
   100402490: 49 89 e5              mov    r13,rsp
   100402493: 4c 8b 2c 24           mov    r13,QWORD PTR [rsp]
   100402497: 49 89 65 00           mov    QWORD PTR [r13+0x0],rsp
   10040249b: 4c 8b ac 24 ff ff ff 7f   mov    r13,QWORD PTR [rsp+0x7fffffff]
   1004024a3: 49 89 a5 ff ff ff 7f  mov    QWORD PTR [r13+0x7fffffff],rsp
   1004024aa: 49 89 ed              mov    r13,rbp
   1004024ad: 4c 8b 6d 00           mov    r13,QWORD PTR [rbp+0x0]
   1004024b1: 49 89 6d 00           mov    QWORD PTR [r13+0x0],rbp
   1004024b5: 4c 8b ad ff ff ff 7f  mov    r13,QWORD PTR [rbp+0x7fffffff]
   1004024bc: 49 89 ad ff ff ff 7f  mov    QWORD PTR [r13+0x7fffffff],rbp
   1004024c3: 49 89 f5              mov    r13,rsi
   1004024c6: 4c 8b 2e              mov    r13,QWORD PTR [rsi]
   1004024c9: 49 89 75 00           mov    QWORD PTR [r13+0x0],rsi
   1004024cd: 4c 8b ae ff ff ff 7f  mov    r13,QWORD PTR [rsi+0x7fffffff]
   1004024d4: 49 89 b5 ff ff ff 7f  mov    QWORD PTR [r13+0x7fffffff],rsi
   1004024db: 49 89 fd              mov    r13,rdi
   1004024de: 4c 8b 2f              mov    r13,QWORD PTR [rdi]
   1004024e1: 49 89 7d 00           mov    QWORD PTR [r13+0x0],rdi
   1004024e5: 4c 8b af ff ff ff 7f  mov    r13,QWORD PTR [rdi+0x7fffffff]
   1004024ec: 49 89 bd ff ff ff 7f  mov    QWORD PTR [r13+0x7fffffff],rdi
   1004024f3: 4d 89 c5              mov    r13,r8
   1004024f6: 4d 8b 28              mov    r13,QWORD PTR [r8]
   1004024f9: 4d 89 45 00           mov    QWORD PTR [r13+0x0],r8
   1004024fd: 4d 8b a8 ff ff ff 7f  mov    r13,QWORD PTR [r8+0x7fffffff]
   100402504: 4d 89 85 ff ff ff 7f  mov    QWORD PTR [r13+0x7fffffff],r8
   10040250b: 4d 89 cd              mov    r13,r9
   10040250e: 4d 8b 29              mov    r13,QWORD PTR [r9]
   100402511: 4d 89 4d 00           mov    QWORD PTR [r13+0x0],r9
   100402515: 4d 8b a9 ff ff ff 7f  mov    r13,QWORD PTR [r9+0x7fffffff]
   10040251c: 4d 89 8d ff ff ff 7f  mov    QWORD PTR [r13+0x7fffffff],r9
   100402523: 4d 89 d5              mov    r13,r10
   100402526: 4d 8b 2a              mov    r13,QWORD PTR [r10]
   100402529: 4d 89 55 00           mov    QWORD PTR [r13+0x0],r10
   10040252d: 4d 8b aa ff ff ff 7f  mov    r13,QWORD PTR [r10+0x7fffffff]
   100402534: 4d 89 95 ff ff ff 7f  mov    QWORD PTR [r13+0x7fffffff],r10
   10040253b: 4d 89 dd              mov    r13,r11
   10040253e: 4d 8b 2b              mov    r13,QWORD PTR [r11]
   100402541: 4d 89 5d 00           mov    QWORD PTR [r13+0x0],r11
   100402545: 4d 8b ab ff ff ff 7f  mov    r13,QWORD PTR [r11+0x7fffffff]
   10040254c: 4d 89 9d ff ff ff 7f  mov    QWORD PTR [r13+0x7fffffff],r11
   100402553: 4d 89 e5              mov    r13,r12
   100402556: 4d 8b 2c 24           mov    r13,QWORD PTR [r12]
   10040255a: 4d 89 65 00           mov    QWORD PTR [r13+0x0],r12
   10040255e: 4d 8b ac 24 ff ff ff 7f   mov    r13,QWORD PTR [r12+0x7fffffff]
   100402566: 4d 89 a5 ff ff ff 7f  mov    QWORD PTR [r13+0x7fffffff],r12
   10040256d: 4d 89 ed              mov    r13,r13
   100402570: 4d 8b 6d 00           mov    r13,QWORD PTR [r13+0x0]
   100402574: 4d 89 6d 00           mov    QWORD PTR [r13+0x0],r13
   100402578: 4d 8b ad ff ff ff 7f  mov    r13,QWORD PTR [r13+0x7fffffff]
   10040257f: 4d 89 ad ff ff ff 7f  mov    QWORD PTR [r13+0x7fffffff],r13
   100402586: 4d 89 f5              mov    r13,r14
   100402589: 4d 8b 2e              mov    r13,QWORD PTR [r14]
   10040258c: 4d 89 75 00           mov    QWORD PTR [r13+0x0],r14
   100402590: 4d 8b ae ff ff ff 7f  mov    r13,QWORD PTR [r14+0x7fffffff]
   100402597: 4d 89 b5 ff ff ff 7f  mov    QWORD PTR [r13+0x7fffffff],r14
   10040259e: 4d 89 fd              mov    r13,r15
   1004025a1: 4d 8b 2f              mov    r13,QWORD PTR [r15]
   1004025a4: 4d 89 7d 00           mov    QWORD PTR [r13+0x0],r15
   1004025a8: 4d 8b af ff ff ff 7f  mov    r13,QWORD PTR [r15+0x7fffffff]
   1004025af: 4d 89 bd ff ff ff 7f  mov    QWORD PTR [r13+0x7fffffff],r15
   1004025b6: 49 c7 c6 ff ff ff 7f  mov    r14,0x7fffffff
   1004025bd: 49 89 c6              mov    r14,rax
   1004025c0: 4c 8b 30              mov    r14,QWORD PTR [rax]
   1004025c3: 49 89 06              mov    QWORD PTR [r14],rax
   1004025c6: 4c 8b b0 ff ff ff 7f  mov    r14,QWORD PTR [rax+0x7fffffff]
   1004025cd: 49 89 86 ff ff ff 7f  mov    QWORD PTR [r14+0x7fffffff],rax
   1004025d4: 49 89 ce              mov    r14,rcx
   1004025d7: 4c 8b 31              mov    r14,QWORD PTR [rcx]
   1004025da: 49 89 0e              mov    QWORD PTR [r14],rcx
   1004025dd: 4c 8b b1 ff ff ff 7f  mov    r14,QWORD PTR [rcx+0x7fffffff]
   1004025e4: 49 89 8e ff ff ff 7f  mov    QWORD PTR [r14+0x7fffffff],rcx
   1004025eb: 49 89 d6              mov    r14,rdx
   1004025ee: 4c 8b 32              mov    r14,QWORD PTR [rdx]
   1004025f1: 49 89 16              mov    QWORD PTR [r14],rdx
   1004025f4: 4c 8b b2 ff ff ff 7f  mov    r14,QWORD PTR [rdx+0x7fffffff]
   1004025fb: 49 89 96 ff ff ff 7f  mov    QWORD PTR [r14+0x7fffffff],rdx
   100402602: 49 89 de              mov    r14,rbx
   100402605: 4c 8b 33              mov    r14,QWORD PTR [rbx]
   100402608: 49 89 1e              mov    QWORD PTR [r14],rbx
   10040260b: 4c 8b b3 ff ff ff 7f  mov    r14,QWORD PTR [rbx+0x7fffffff]
   100402612: 49 89 9e ff ff ff 7f  mov    QWORD PTR [r14+0x7fffffff],rbx
   100402619: 49 89 e6              mov    r14,rsp
   10040261c: 4c 8b 34 24           mov    r14,QWORD PTR [rsp]
   100402620: 49 89 26              mov    QWORD PTR [r14],rsp
   100402623: 4c 8b b4 24 ff ff ff 7f   mov    r14,QWORD PTR [rsp+0x7fffffff]
   10040262b: 49 89 a6 ff ff ff 7f  mov    QWORD PTR [r14+0x7fffffff],rsp
   100402632: 49 89 ee              mov    r14,rbp
   100402635: 4c 8b 75 00           mov    r14,QWORD PTR [rbp+0x0]
   100402639: 49 89 2e              mov    QWORD PTR [r14],rbp
   10040263c: 4c 8b b5 ff ff ff 7f  mov    r14,QWORD PTR [rbp+0x7fffffff]
   100402643: 49 89 ae ff ff ff 7f  mov    QWORD PTR [r14+0x7fffffff],rbp
   10040264a: 49 89 f6              mov    r14,rsi
   10040264d: 4c 8b 36              mov    r14,QWORD PTR [rsi]
   100402650: 49 89 36              mov    QWORD PTR [r14],rsi
   100402653: 4c 8b b6 ff ff ff 7f  mov    r14,QWORD PTR [rsi+0x7fffffff]
   10040265a: 49 89 b6 ff ff ff 7f  mov    QWORD PTR [r14+0x7fffffff],rsi
   100402661: 49 89 fe              mov    r14,rdi
   100402664: 4c 8b 37              mov    r14,QWORD PTR [rdi]
   100402667: 49 89 3e              mov    QWORD PTR [r14],rdi
   10040266a: 4c 8b b7 ff ff ff 7f  mov    r14,QWORD PTR [rdi+0x7fffffff]
   100402671: 49 89 be ff ff ff 7f  mov    QWORD PTR [r14+0x7fffffff],rdi
   100402678: 4d 89 c6              mov    r14,r8
   10040267b: 4d 8b 30              mov    r14,QWORD PTR [r8]
   10040267e: 4d 89 06              mov    QWORD PTR [r14],r8
   100402681: 4d 8b b0 ff ff ff 7f  mov    r14,QWORD PTR [r8+0x7fffffff]
   100402688: 4d 89 86 ff ff ff 7f  mov    QWORD PTR [r14+0x7fffffff],r8
   10040268f: 4d 89 ce              mov    r14,r9
   100402692: 4d 8b 31              mov    r14,QWORD PTR [r9]
   100402695: 4d 89 0e              mov    QWORD PTR [r14],r9
   100402698: 4d 8b b1 ff ff ff 7f  mov    r14,QWORD PTR [r9+0x7fffffff]
   10040269f: 4d 89 8e ff ff ff 7f  mov    QWORD PTR [r14+0x7fffffff],r9
   1004026a6: 4d 89 d6              mov    r14,r10
   1004026a9: 4d 8b 32              mov    r14,QWORD PTR [r10]
   1004026ac: 4d 89 16              mov    QWORD PTR [r14],r10
   1004026af: 4d 8b b2 ff ff ff 7f  mov    r14,QWORD PTR [r10+0x7fffffff]
   1004026b6: 4d 89 96 ff ff ff 7f  mov    QWORD PTR [r14+0x7fffffff],r10
   1004026bd: 4d 89 de              mov    r14,r11
   1004026c0: 4d 8b 33              mov    r14,QWORD PTR [r11]
   1004026c3: 4d 89 1e              mov    QWORD PTR [r14],r11
   1004026c6: 4d 8b b3 ff ff ff 7f  mov    r14,QWORD PTR [r11+0x7fffffff]
   1004026cd: 4d 89 9e ff ff ff 7f  mov    QWORD PTR [r14+0x7fffffff],r11
   1004026d4: 4d 89 e6              mov    r14,r12
   1004026d7: 4d 8b 34 24           mov    r14,QWORD PTR [r12]
   1004026db: 4d 89 26              mov    QWORD PTR [r14],r12
   1004026de: 4d 8b b4 24 ff ff ff 7f   mov    r14,QWORD PTR [r12+0x7fffffff]
   1004026e6: 4d 89 a6 ff ff ff 7f  mov    QWORD PTR [r14+0x7fffffff],r12
   1004026ed: 4d 89 ee              mov    r14,r13
   1004026f0: 4d 8b 75 00           mov    r14,QWORD PTR [r13+0x0]
   1004026f4: 4d 89 2e              mov    QWORD PTR [r14],r13
   1004026f7: 4d 8b b5 ff ff ff 7f  mov    r14,QWORD PTR [r13+0x7fffffff]
   1004026fe: 4d 89 ae ff ff ff 7f  mov    QWORD PTR [r14+0x7fffffff],r13
   100402705: 4d 89 f6              mov    r14,r14
   100402708: 4d 8b 36              mov    r14,QWORD PTR [r14]
   10040270b: 4d 89 36              mov    QWORD PTR [r14],r14
   10040270e: 4d 8b b6 ff ff ff 7f  mov    r14,QWORD PTR [r14+0x7fffffff]
   100402715: 4d 89 b6 ff ff ff 7f  mov    QWORD PTR [r14+0x7fffffff],r14
   10040271c: 4d 89 fe              mov    r14,r15
   10040271f: 4d 8b 37              mov    r14,QWORD PTR [r15]
   100402722: 4d 89 3e              mov    QWORD PTR [r14],r15
   100402725: 4d 8b b7 ff ff ff 7f  mov    r14,QWORD PTR [r15+0x7fffffff]
   10040272c: 4d 89 be ff ff ff 7f  mov    QWORD PTR [r14+0x7fffffff],r15
   100402733: 49 c7 c7 ff ff ff 7f  mov    r15,0x7fffffff
   10040273a: 49 89 c7              mov    r15,rax
   10040273d: 4c 8b 38              mov    r15,QWORD PTR [rax]
   100402740: 49 89 07              mov    QWORD PTR [r15],rax
   100402743: 4c 8b b8 ff ff ff 7f  mov    r15,QWORD PTR [rax+0x7fffffff]
   10040274a: 49 89 87 ff ff ff 7f  mov    QWORD PTR [r15+0x7fffffff],rax
   100402751: 49 89 cf              mov    r15,rcx
   100402754: 4c 8b 39              mov    r15,QWORD PTR [rcx]
   100402757: 49 89 0f              mov    QWORD PTR [r15],rcx
   10040275a: 4c 8b b9 ff ff ff 7f  mov    r15,QWORD PTR [rcx+0x7fffffff]
   100402761: 49 89 8f ff ff ff 7f  mov    QWORD PTR [r15+0x7fffffff],rcx
   100402768: 49 89 d7              mov    r15,rdx
   10040276b: 4c 8b 3a              mov    r15,QWORD PTR [rdx]
   10040276e: 49 89 17              mov    QWORD PTR [r15],rdx
   100402771: 4c 8b ba ff ff ff 7f  mov    r15,QWORD PTR [rdx+0x7fffffff]
   100402778: 49 89 97 ff ff ff 7f  mov    QWORD PTR [r15+0x7fffffff],rdx
   10040277f: 49 89 df              mov    r15,rbx
   100402782: 4c 8b 3b              mov    r15,QWORD PTR [rbx]
   100402785: 49 89 1f              mov    QWORD PTR [r15],rbx
   100402788: 4c 8b bb ff ff ff 7f  mov    r15,QWORD PTR [rbx+0x7fffffff]
   10040278f: 49 89 9f ff ff ff 7f  mov    QWORD PTR [r15+0x7fffffff],rbx
   100402796: 49 89 e7              mov    r15,rsp
   100402799: 4c 8b 3c 24           mov    r15,QWORD PTR [rsp]
   10040279d: 49 89 27              mov    QWORD PTR [r15],rsp
   1004027a0: 4c 8b bc 24 ff ff ff 7f   mov    r15,QWORD PTR [rsp+0x7fffffff]
   1004027a8: 49 89 a7 ff ff ff 7f  mov    QWORD PTR [r15+0x7fffffff],rsp
   1004027af: 49 89 ef              mov    r15,rbp
   1004027b2: 4c 8b 7d 00           mov    r15,QWORD PTR [rbp+0x0]
   1004027b6: 49 89 2f              mov    QWORD PTR [r15],rbp
   1004027b9: 4c 8b bd ff ff ff 7f  mov    r15,QWORD PTR [rbp+0x7fffffff]
   1004027c0: 49 89 af ff ff ff 7f  mov    QWORD PTR [r15+0x7fffffff],rbp
   1004027c7: 49 89 f7              mov    r15,rsi
   1004027ca: 4c 8b 3e              mov    r15,QWORD PTR [rsi]
   1004027cd: 49 89 37              mov    QWORD PTR [r15],rsi
   1004027d0: 4c 8b be ff ff ff 7f  mov    r15,QWORD PTR [rsi+0x7fffffff]
   1004027d7: 49 89 b7 ff ff ff 7f  mov    QWORD PTR [r15+0x7fffffff],rsi
   1004027de: 49 89 ff              mov    r15,rdi
   1004027e1: 4c 8b 3f              mov    r15,QWORD PTR [rdi]
   1004027e4: 49 89 3f              mov    QWORD PTR [r15],rdi
   1004027e7: 4c 8b bf ff ff ff 7f  mov    r15,QWORD PTR [rdi+0x7fffffff]
   1004027ee: 49 89 bf ff ff ff 7f  mov    QWORD PTR [r15+0x7fffffff],rdi
   1004027f5: 4d 89 c7              mov    r15,r8
   1004027f8: 4d 8b 38              mov    r15,QWORD PTR [r8]
   1004027fb: 4d 89 07              mov    QWORD PTR [r15],r8
   1004027fe: 4d 8b b8 ff ff ff 7f  mov    r15,QWORD PTR [r8+0x7fffffff]
   100402805: 4d 89 87 ff ff ff 7f  mov    QWORD PTR [r15+0x7fffffff],r8
   10040280c: 4d 89 cf              mov    r15,r9
   10040280f: 4d 8b 39              mov    r15,QWORD PTR [r9]
   100402812: 4d 89 0f              mov    QWORD PTR [r15],r9
   100402815: 4d 8b b9 ff ff ff 7f  mov    r15,QWORD PTR [r9+0x7fffffff]
   10040281c: 4d 89 8f ff ff ff 7f  mov    QWORD PTR [r15+0x7fffffff],r9
   100402823: 4d 89 d7              mov    r15,r10
   100402826: 4d 8b 3a              mov    r15,QWORD PTR [r10]
   100402829: 4d 89 17              mov    QWORD PTR [r15],r10
   10040282c: 4d 8b ba ff ff ff 7f  mov    r15,QWORD PTR [r10+0x7fffffff]
   100402833: 4d 89 97 ff ff ff 7f  mov    QWORD PTR [r15+0x7fffffff],r10
   10040283a: 4d 89 df              mov    r15,r11
   10040283d: 4d 8b 3b              mov    r15,QWORD PTR [r11]
   100402840: 4d 89 1f              mov    QWORD PTR [r15],r11
   100402843: 4d 8b bb ff ff ff 7f  mov    r15,QWORD PTR [r11+0x7fffffff]
   10040284a: 4d 89 9f ff ff ff 7f  mov    QWORD PTR [r15+0x7fffffff],r11
   100402851: 4d 89 e7              mov    r15,r12
   100402854: 4d 8b 3c 24           mov    r15,QWORD PTR [r12]
   100402858: 4d 89 27              mov    QWORD PTR [r15],r12
   10040285b: 4d 8b bc 24 ff ff ff 7f   mov    r15,QWORD PTR [r12+0x7fffffff]
   100402863: 4d 89 a7 ff ff ff 7f  mov    QWORD PTR [r15+0x7fffffff],r12
   10040286a: 4d 89 ef              mov    r15,r13
   10040286d: 4d 8b 7d 00           mov    r15,QWORD PTR [r13+0x0]
   100402871: 4d 89 2f              mov    QWORD PTR [r15],r13
   100402874: 4d 8b bd ff ff ff 7f  mov    r15,QWORD PTR [r13+0x7fffffff]
   10040287b: 4d 89 af ff ff ff 7f  mov    QWORD PTR [r15+0x7fffffff],r13
   100402882: 4d 89 f7              mov    r15,r14
   100402885: 4d 8b 3e              mov    r15,QWORD PTR [r14]
   100402888: 4d 89 37              mov    QWORD PTR [r15],r14
   10040288b: 4d 8b be ff ff ff 7f  mov    r15,QWORD PTR [r14+0x7fffffff]
   100402892: 4d 89 b7 ff ff ff 7f  mov    QWORD PTR [r15+0x7fffffff],r14
   100402899: 4d 89 ff              mov    r15,r15
   10040289c: 4d 8b 3f              mov    r15,QWORD PTR [r15]
   10040289f: 4d 89 3f              mov    QWORD PTR [r15],r15
   1004028a2: 4d 8b bf ff ff ff 7f  mov    r15,QWORD PTR [r15+0x7fffffff]
   1004028a9: 4d 89 bf ff ff ff 7f  mov    QWORD PTR [r15+0x7fffffff],r15
   1004028b0: 48 05 ff ff ff 7f     add    rax,0x7fffffff
   1004028b6: 48 01 c0              add    rax,rax
   1004028b9: 48 03 00              add    rax,QWORD PTR [rax]
   1004028bc: 48 01 00              add    QWORD PTR [rax],rax
   1004028bf: 48 03 80 ff ff ff 7f  add    rax,QWORD PTR [rax+0x7fffffff]
   1004028c6: 48 01 80 ff ff ff 7f  add    QWORD PTR [rax+0x7fffffff],rax
   1004028cd: 48 01 c8              add    rax,rcx
   1004028d0: 48 03 01              add    rax,QWORD PTR [rcx]
   1004028d3: 48 01 08              add    QWORD PTR [rax],rcx
   1004028d6: 48 03 81 ff ff ff 7f  add    rax,QWORD PTR [rcx+0x7fffffff]
   1004028dd: 48 01 88 ff ff ff 7f  add    QWORD PTR [rax+0x7fffffff],rcx
   1004028e4: 48 01 d0              add    rax,rdx
   1004028e7: 48 03 02              add    rax,QWORD PTR [rdx]
   1004028ea: 48 01 10              add    QWORD PTR [rax],rdx
   1004028ed: 48 03 82 ff ff ff 7f  add    rax,QWORD PTR [rdx+0x7fffffff]
   1004028f4: 48 01 90 ff ff ff 7f  add    QWORD PTR [rax+0x7fffffff],rdx
   1004028fb: 48 01 d8              add    rax,rbx
   1004028fe: 48 03 03              add    rax,QWORD PTR [rbx]
   100402901: 48 01 18              add    QWORD PTR [rax],rbx
   100402904: 48 03 83 ff ff ff 7f  add    rax,QWORD PTR [rbx+0x7fffffff]
   10040290b: 48 01 98 ff ff ff 7f  add    QWORD PTR [rax+0x7fffffff],rbx
   100402912: 48 01 e0              add    rax,rsp
   100402915: 48 03 04 24           add    rax,QWORD PTR [rsp]
   100402919: 48 01 20              add    QWORD PTR [rax],rsp
   10040291c: 48 03 84 24 ff ff ff 7f   add    rax,QWORD PTR [rsp+0x7fffffff]
   100402924: 48 01 a0 ff ff ff 7f  add    QWORD PTR [rax+0x7fffffff],rsp
   10040292b: 48 01 e8              add    rax,rbp
   10040292e: 48 03 45 00           add    rax,QWORD PTR [rbp+0x0]
   100402932: 48 01 28              add    QWORD PTR [rax],rbp
   100402935: 48 03 85 ff ff ff 7f  add    rax,QWORD PTR [rbp+0x7fffffff]
   10040293c: 48 01 a8 ff ff ff 7f  add    QWORD PTR [rax+0x7fffffff],rbp
   100402943: 48 01 f0              add    rax,rsi
   100402946: 48 03 06              add    rax,QWORD PTR [rsi]
   100402949: 48 01 30              add    QWORD PTR [rax],rsi
   10040294c: 48 03 86 ff ff ff 7f  add    rax,QWORD PTR [rsi+0x7fffffff]
   100402953: 48 01 b0 ff ff ff 7f  add    QWORD PTR [rax+0x7fffffff],rsi
   10040295a: 48 01 f8              add    rax,rdi
   10040295d: 48 03 07              add    rax,QWORD PTR [rdi]
   100402960: 48 01 38              add    QWORD PTR [rax],rdi
   100402963: 48 03 87 ff ff ff 7f  add    rax,QWORD PTR [rdi+0x7fffffff]
   10040296a: 48 01 b8 ff ff ff 7f  add    QWORD PTR [rax+0x7fffffff],rdi
   100402971: 4c 01 c0              add    rax,r8
   100402974: 49 03 00              add    rax,QWORD PTR [r8]
   100402977: 4c 01 00              add    QWORD PTR [rax],r8
   10040297a: 49 03 80 ff ff ff 7f  add    rax,QWORD PTR [r8+0x7fffffff]
   100402981: 4c 01 80 ff ff ff 7f  add    QWORD PTR [rax+0x7fffffff],r8
   100402988: 4c 01 c8              add    rax,r9
   10040298b: 49 03 01              add    rax,QWORD PTR [r9]
   10040298e: 4c 01 08              add    QWORD PTR [rax],r9
   100402991: 49 03 81 ff ff ff 7f  add    rax,QWORD PTR [r9+0x7fffffff]
   100402998: 4c 01 88 ff ff ff 7f  add    QWORD PTR [rax+0x7fffffff],r9
   10040299f: 4c 01 d0              add    rax,r10
   1004029a2: 49 03 02              add    rax,QWORD PTR [r10]
   1004029a5: 4c 01 10              add    QWORD PTR [rax],r10
   1004029a8: 49 03 82 ff ff ff 7f  add    rax,QWORD PTR [r10+0x7fffffff]
   1004029af: 4c 01 90 ff ff ff 7f  add    QWORD PTR [rax+0x7fffffff],r10
   1004029b6: 4c 01 d8              add    rax,r11
   1004029b9: 49 03 03              add    rax,QWORD PTR [r11]
   1004029bc: 4c 01 18              add    QWORD PTR [rax],r11
   1004029bf: 49 03 83 ff ff ff 7f  add    rax,QWORD PTR [r11+0x7fffffff]
   1004029c6: 4c 01 98 ff ff ff 7f  add    QWORD PTR [rax+0x7fffffff],r11
   1004029cd: 4c 01 e0              add    rax,r12
   1004029d0: 49 03 04 24           add    rax,QWORD PTR [r12]
   1004029d4: 4c 01 20              add    QWORD PTR [rax],r12
   1004029d7: 49 03 84 24 ff ff ff 7f   add    rax,QWORD PTR [r12+0x7fffffff]
   1004029df: 4c 01 a0 ff ff ff 7f  add    QWORD PTR [rax+0x7fffffff],r12
   1004029e6: 4c 01 e8              add    rax,r13
   1004029e9: 49 03 45 00           add    rax,QWORD PTR [r13+0x0]
   1004029ed: 4c 01 28              add    QWORD PTR [rax],r13
   1004029f0: 49 03 85 ff ff ff 7f  add    rax,QWORD PTR [r13+0x7fffffff]
   1004029f7: 4c 01 a8 ff ff ff 7f  add    QWORD PTR [rax+0x7fffffff],r13
   1004029fe: 4c 01 f0              add    rax,r14
   100402a01: 49 03 06              add    rax,QWORD PTR [r14]
   100402a04: 4c 01 30              add    QWORD PTR [rax],r14
   100402a07: 49 03 86 ff ff ff 7f  add    rax,QWORD PTR [r14+0x7fffffff]
   100402a0e: 4c 01 b0 ff ff ff 7f  add    QWORD PTR [rax+0x7fffffff],r14
   100402a15: 4c 01 f8              add    rax,r15
   100402a18: 49 03 07              add    rax,QWORD PTR [r15]
   100402a1b: 4c 01 38              add    QWORD PTR [rax],r15
   100402a1e: 49 03 87 ff ff ff 7f  add    rax,QWORD PTR [r15+0x7fffffff]
   100402a25: 4c 01 b8 ff ff ff 7f  add    QWORD PTR [rax+0x7fffffff],r15
   100402a2c: 48 81 c1 ff ff ff 7f  add    rcx,0x7fffffff
   100402a33: 48 01 c1              add    rcx,rax
   100402a36: 48 03 08              add    rcx,QWORD PTR [rax]
   100402a39: 48 01 01              add    QWORD PTR [rcx],rax
   100402a3c: 48 03 88 ff ff ff 7f  add    rcx,QWORD PTR [rax+0x7fffffff]
   100402a43: 48 01 81 ff ff ff 7f  add    QWORD PTR [rcx+0x7fffffff],rax
   100402a4a: 48 01 c9              add    rcx,rcx
   100402a4d: 48 03 09              add    rcx,QWORD PTR [rcx]
   100402a50: 48 01 09              add    QWORD PTR [rcx],rcx
   100402a53: 48 03 89 ff ff ff 7f  add    rcx,QWORD PTR [rcx+0x7fffffff]
   100402a5a: 48 01 89 ff ff ff 7f  add    QWORD PTR [rcx+0x7fffffff],rcx
   100402a61: 48 01 d1              add    rcx,rdx
   100402a64: 48 03 0a              add    rcx,QWORD PTR [rdx]
   100402a67: 48 01 11              add    QWORD PTR [rcx],rdx
   100402a6a: 48 03 8a ff ff ff 7f  add    rcx,QWORD PTR [rdx+0x7fffffff]
   100402a71: 48 01 91 ff ff ff 7f  add    QWORD PTR [rcx+0x7fffffff],rdx
   100402a78: 48 01 d9              add    rcx,rbx
   100402a7b: 48 03 0b              add    rcx,QWORD PTR [rbx]
   100402a7e: 48 01 19              add    QWORD PTR [rcx],rbx
   100402a81: 48 03 8b ff ff ff 7f  add    rcx,QWORD PTR [rbx+0x7fffffff]
   100402a88: 48 01 99 ff ff ff 7f  add    QWORD PTR [rcx+0x7fffffff],rbx
   100402a8f: 48 01 e1              add    rcx,rsp
   100402a92: 48 03 0c 24           add    rcx,QWORD PTR [rsp]
   100402a96: 48 01 21              add    QWORD PTR [rcx],rsp
   100402a99: 48 03 8c 24 ff ff ff 7f   add    rcx,QWORD PTR [rsp+0x7fffffff]
   100402aa1: 48 01 a1 ff ff ff 7f  add    QWORD PTR [rcx+0x7fffffff],rsp
   100402aa8: 48 01 e9              add    rcx,rbp
   100402aab: 48 03 4d 00           add    rcx,QWORD PTR [rbp+0x0]
   100402aaf: 48 01 29              add    QWORD PTR [rcx],rbp
   100402ab2: 48 03 8d ff ff ff 7f  add    rcx,QWORD PTR [rbp+0x7fffffff]
   100402ab9: 48 01 a9 ff ff ff 7f  add    QWORD PTR [rcx+0x7fffffff],rbp
   100402ac0: 48 01 f1              add    rcx,rsi
   100402ac3: 48 03 0e              add    rcx,QWORD PTR [rsi]
   100402ac6: 48 01 31              add    QWORD PTR [rcx],rsi
   100402ac9: 48 03 8e ff ff ff 7f  add    rcx,QWORD PTR [rsi+0x7fffffff]
   100402ad0: 48 01 b1 ff ff ff 7f  add    QWORD PTR [rcx+0x7fffffff],rsi
   100402ad7: 48 01 f9              add    rcx,rdi
   100402ada: 48 03 0f              add    rcx,QWORD PTR [rdi]
   100402add: 48 01 39              add    QWORD PTR [rcx],rdi
   100402ae0: 48 03 8f ff ff ff 7f  add    rcx,QWORD PTR [rdi+0x7fffffff]
   100402ae7: 48 01 b9 ff ff ff 7f  add    QWORD PTR [rcx+0x7fffffff],rdi
   100402aee: 4c 01 c1              add    rcx,r8
   100402af1: 49 03 08              add    rcx,QWORD PTR [r8]
   100402af4: 4c 01 01              add    QWORD PTR [rcx],r8
   100402af7: 49 03 88 ff ff ff 7f  add    rcx,QWORD PTR [r8+0x7fffffff]
   100402afe: 4c 01 81 ff ff ff 7f  add    QWORD PTR [rcx+0x7fffffff],r8
   100402b05: 4c 01 c9              add    rcx,r9
   100402b08: 49 03 09              add    rcx,QWORD PTR [r9]
   100402b0b: 4c 01 09              add    QWORD PTR [rcx],r9
   100402b0e: 49 03 89 ff ff ff 7f  add    rcx,QWORD PTR [r9+0x7fffffff]
   100402b15: 4c 01 89 ff ff ff 7f  add    QWORD PTR [rcx+0x7fffffff],r9
   100402b1c: 4c 01 d1              add    rcx,r10
   100402b1f: 49 03 0a              add    rcx,QWORD PTR [r10]
   100402b22: 4c 01 11              add    QWORD PTR [rcx],r10
   100402b25: 49 03 8a ff ff ff 7f  add    rcx,QWORD PTR [r10+0x7fffffff]
   100402b2c: 4c 01 91 ff ff ff 7f  add    QWORD PTR [rcx+0x7fffffff],r10
   100402b33: 4c 01 d9              add    rcx,r11
   100402b36: 49 03 0b              add    rcx,QWORD PTR [r11]
   100402b39: 4c 01 19              add    QWORD PTR [rcx],r11
   100402b3c: 49 03 8b ff ff ff 7f  add    rcx,QWORD PTR [r11+0x7fffffff]
   100402b43: 4c 01 99 ff ff ff 7f  add    QWORD PTR [rcx+0x7fffffff],r11
   100402b4a: 4c 01 e1              add    rcx,r12
   100402b4d: 49 03 0c 24           add    rcx,QWORD PTR [r12]
   100402b51: 4c 01 21              add    QWORD PTR [rcx],r12
   100402b54: 49 03 8c 24 ff ff ff 7f   add    rcx,QWORD PTR [r12+0x7fffffff]
   100402b5c: 4c 01 a1 ff ff ff 7f  add    QWORD PTR [rcx+0x7fffffff],r12
   100402b63: 4c 01 e9              add    rcx,r13
   100402b66: 49 03 4d 00           add    rcx,QWORD PTR [r13+0x0]
   100402b6a: 4c 01 29              add    QWORD PTR [rcx],r13
   100402b6d: 49 03 8d ff ff ff 7f  add    rcx,QWORD PTR [r13+0x7fffffff]
   100402b74: 4c 01 a9 ff ff ff 7f  add    QWORD PTR [rcx+0x7fffffff],r13
   100402b7b: 4c 01 f1              add    rcx,r14
   100402b7e: 49 03 0e              add    rcx,QWORD PTR [r14]
   100402b81: 4c 01 31              add    QWORD PTR [rcx],r14
   100402b84: 49 03 8e ff ff ff 7f  add    rcx,QWORD PTR [r14+0x7fffffff]
   100402b8b: 4c 01 b1 ff ff ff 7f  add    QWORD PTR [rcx+0x7fffffff],r14
   100402b92: 4c 01 f9              add    rcx,r15
   100402b95: 49 03 0f              add    rcx,QWORD PTR [r15]
   100402b98: 4c 01 39              add    QWORD PTR [rcx],r15
   100402b9b: 49 03 8f ff ff ff 7f  add    rcx,QWORD PTR [r15+0x7fffffff]
   100402ba2: 4c 01 b9 ff ff ff 7f  add    QWORD PTR [rcx+0x7fffffff],r15
   100402ba9: 48 81 c2 ff ff ff 7f  add    rdx,0x7fffffff
   100402bb0: 48 01 c2              add    rdx,rax
   100402bb3: 48 03 10              add    rdx,QWORD PTR [rax]
   100402bb6: 48 01 02              add    QWORD PTR [rdx],rax
   100402bb9: 48 03 90 ff ff ff 7f  add    rdx,QWORD PTR [rax+0x7fffffff]
   100402bc0: 48 01 82 ff ff ff 7f  add    QWORD PTR [rdx+0x7fffffff],rax
   100402bc7: 48 01 ca              add    rdx,rcx
   100402bca: 48 03 11              add    rdx,QWORD PTR [rcx]
   100402bcd: 48 01 0a              add    QWORD PTR [rdx],rcx
   100402bd0: 48 03 91 ff ff ff 7f  add    rdx,QWORD PTR [rcx+0x7fffffff]
   100402bd7: 48 01 8a ff ff ff 7f  add    QWORD PTR [rdx+0x7fffffff],rcx
   100402bde: 48 01 d2              add    rdx,rdx
   100402be1: 48 03 12              add    rdx,QWORD PTR [rdx]
   100402be4: 48 01 12              add    QWORD PTR [rdx],rdx
   100402be7: 48 03 92 ff ff ff 7f  add    rdx,QWORD PTR [rdx+0x7fffffff]
   100402bee: 48 01 92 ff ff ff 7f  add    QWORD PTR [rdx+0x7fffffff],rdx
   100402bf5: 48 01 da              add    rdx,rbx
   100402bf8: 48 03 13              add    rdx,QWORD PTR [rbx]
   100402bfb: 48 01 1a              add    QWORD PTR [rdx],rbx
   100402bfe: 48 03 93 ff ff ff 7f  add    rdx,QWORD PTR [rbx+0x7fffffff]
   100402c05: 48 01 9a ff ff ff 7f  add    QWORD PTR [rdx+0x7fffffff],rbx
   100402c0c: 48 01 e2              add    rdx,rsp
   100402c0f: 48 03 14 24           add    rdx,QWORD PTR [rsp]
   100402c13: 48 01 22              add    QWORD PTR [rdx],rsp
   100402c16: 48 03 94 24 ff ff ff 7f   add    rdx,QWORD PTR [rsp+0x7fffffff]
   100402c1e: 48 01 a2 ff ff ff 7f  add    QWORD PTR [rdx+0x7fffffff],rsp
   100402c25: 48 01 ea              add    rdx,rbp
   100402c28: 48 03 55 00           add    rdx,QWORD PTR [rbp+0x0]
   100402c2c: 48 01 2a              add    QWORD PTR [rdx],rbp
   100402c2f: 48 03 95 ff ff ff 7f  add    rdx,QWORD PTR [rbp+0x7fffffff]
   100402c36: 48 01 aa ff ff ff 7f  add    QWORD PTR [rdx+0x7fffffff],rbp
   100402c3d: 48 01 f2              add    rdx,rsi
   100402c40: 48 03 16              add    rdx,QWORD PTR [rsi]
   100402c43: 48 01 32              add    QWORD PTR [rdx],rsi
   100402c46: 48 03 96 ff ff ff 7f  add    rdx,QWORD PTR [rsi+0x7fffffff]
   100402c4d: 48 01 b2 ff ff ff 7f  add    QWORD PTR [rdx+0x7fffffff],rsi
   100402c54: 48 01 fa              add    rdx,rdi
   100402c57: 48 03 17              add    rdx,QWORD PTR [rdi]
   100402c5a: 48 01 3a              add    QWORD PTR [rdx],rdi
   100402c5d: 48 03 97 ff ff ff 7f  add    rdx,QWORD PTR [rdi+0x7fffffff]
   100402c64: 48 01 ba ff ff ff 7f  add    QWORD PTR [rdx+0x7fffffff],rdi
   100402c6b: 4c 01 c2              add    rdx,r8
   100402c6e: 49 03 10              add    rdx,QWORD PTR [r8]
   100402c71: 4c 01 02              add    QWORD PTR [rdx],r8
   100402c74: 49 03 90 ff ff ff 7f  add    rdx,QWORD PTR [r8+0x7fffffff]
   100402c7b: 4c 01 82 ff ff ff 7f  add    QWORD PTR [rdx+0x7fffffff],r8
   100402c82: 4c 01 ca              add    rdx,r9
   100402c85: 49 03 11              add    rdx,QWORD PTR [r9]
   100402c88: 4c 01 0a              add    QWORD PTR [rdx],r9
   100402c8b: 49 03 91 ff ff ff 7f  add    rdx,QWORD PTR [r9+0x7fffffff]
   100402c92: 4c 01 8a ff ff ff 7f  add    QWORD PTR [rdx+0x7fffffff],r9
   100402c99: 4c 01 d2              add    rdx,r10
   100402c9c: 49 03 12              add    rdx,QWORD PTR [r10]
   100402c9f: 4c 01 12              add    QWORD PTR [rdx],r10
   100402ca2: 49 03 92 ff ff ff 7f  add    rdx,QWORD PTR [r10+0x7fffffff]
   100402ca9: 4c 01 92 ff ff ff 7f  add    QWORD PTR [rdx+0x7fffffff],r10
   100402cb0: 4c 01 da              add    rdx,r11
   100402cb3: 49 03 13              add    rdx,QWORD PTR [r11]
   100402cb6: 4c 01 1a              add    QWORD PTR [rdx],r11
   100402cb9: 49 03 93 ff ff ff 7f  add    rdx,QWORD PTR [r11+0x7fffffff]
   100402cc0: 4c 01 9a ff ff ff 7f  add    QWORD PTR [rdx+0x7fffffff],r11
   100402cc7: 4c 01 e2              add    rdx,r12
   100402cca: 49 03 14 24           add    rdx,QWORD PTR [r12]
   100402cce: 4c 01 22              add    QWORD PTR [rdx],r12
   100402cd1: 49 03 94 24 ff ff ff 7f   add    rdx,QWORD PTR [r12+0x7fffffff]
   100402cd9: 4c 01 a2 ff ff ff 7f  add    QWORD PTR [rdx+0x7fffffff],r12
   100402ce0: 4c 01 ea              add    rdx,r13
   100402ce3: 49 03 55 00           add    rdx,QWORD PTR [r13+0x0]
   100402ce7: 4c 01 2a              add    QWORD PTR [rdx],r13
   100402cea: 49 03 95 ff ff ff 7f  add    rdx,QWORD PTR [r13+0x7fffffff]
   100402cf1: 4c 01 aa ff ff ff 7f  add    QWORD PTR [rdx+0x7fffffff],r13
   100402cf8: 4c 01 f2              add    rdx,r14
   100402cfb: 49 03 16              add    rdx,QWORD PTR [r14]
   100402cfe: 4c 01 32              add    QWORD PTR [rdx],r14
   100402d01: 49 03 96 ff ff ff 7f  add    rdx,QWORD PTR [r14+0x7fffffff]
   100402d08: 4c 01 b2 ff ff ff 7f  add    QWORD PTR [rdx+0x7fffffff],r14
   100402d0f: 4c 01 fa              add    rdx,r15
   100402d12: 49 03 17              add    rdx,QWORD PTR [r15]
   100402d15: 4c 01 3a              add    QWORD PTR [rdx],r15
   100402d18: 49 03 97 ff ff ff 7f  add    rdx,QWORD PTR [r15+0x7fffffff]
   100402d1f: 4c 01 ba ff ff ff 7f  add    QWORD PTR [rdx+0x7fffffff],r15
   100402d26: 48 81 c3 ff ff ff 7f  add    rbx,0x7fffffff
   100402d2d: 48 01 c3              add    rbx,rax
   100402d30: 48 03 18              add    rbx,QWORD PTR [rax]
   100402d33: 48 01 03              add    QWORD PTR [rbx],rax
   100402d36: 48 03 98 ff ff ff 7f  add    rbx,QWORD PTR [rax+0x7fffffff]
   100402d3d: 48 01 83 ff ff ff 7f  add    QWORD PTR [rbx+0x7fffffff],rax
   100402d44: 48 01 cb              add    rbx,rcx
   100402d47: 48 03 19              add    rbx,QWORD PTR [rcx]
   100402d4a: 48 01 0b              add    QWORD PTR [rbx],rcx
   100402d4d: 48 03 99 ff ff ff 7f  add    rbx,QWORD PTR [rcx+0x7fffffff]
   100402d54: 48 01 8b ff ff ff 7f  add    QWORD PTR [rbx+0x7fffffff],rcx
   100402d5b: 48 01 d3              add    rbx,rdx
   100402d5e: 48 03 1a              add    rbx,QWORD PTR [rdx]
   100402d61: 48 01 13              add    QWORD PTR [rbx],rdx
   100402d64: 48 03 9a ff ff ff 7f  add    rbx,QWORD PTR [rdx+0x7fffffff]
   100402d6b: 48 01 93 ff ff ff 7f  add    QWORD PTR [rbx+0x7fffffff],rdx
   100402d72: 48 01 db              add    rbx,rbx
   100402d75: 48 03 1b              add    rbx,QWORD PTR [rbx]
   100402d78: 48 01 1b              add    QWORD PTR [rbx],rbx
   100402d7b: 48 03 9b ff ff ff 7f  add    rbx,QWORD PTR [rbx+0x7fffffff]
   100402d82: 48 01 9b ff ff ff 7f  add    QWORD PTR [rbx+0x7fffffff],rbx
   100402d89: 48 01 e3              add    rbx,rsp
   100402d8c: 48 03 1c 24           add    rbx,QWORD PTR [rsp]
   100402d90: 48 01 23              add    QWORD PTR [rbx],rsp
   100402d93: 48 03 9c 24 ff ff ff 7f   add    rbx,QWORD PTR [rsp+0x7fffffff]
   100402d9b: 48 01 a3 ff ff ff 7f  add    QWORD PTR [rbx+0x7fffffff],rsp
   100402da2: 48 01 eb              add    rbx,rbp
   100402da5: 48 03 5d 00           add    rbx,QWORD PTR [rbp+0x0]
   100402da9: 48 01 2b              add    QWORD PTR [rbx],rbp
   100402dac: 48 03 9d ff ff ff 7f  add    rbx,QWORD PTR [rbp+0x7fffffff]
   100402db3: 48 01 ab ff ff ff 7f  add    QWORD PTR [rbx+0x7fffffff],rbp
   100402dba: 48 01 f3              add    rbx,rsi
   100402dbd: 48 03 1e              add    rbx,QWORD PTR [rsi]
   100402dc0: 48 01 33              add    QWORD PTR [rbx],rsi
   100402dc3: 48 03 9e ff ff ff 7f  add    rbx,QWORD PTR [rsi+0x7fffffff]
   100402dca: 48 01 b3 ff ff ff 7f  add    QWORD PTR [rbx+0x7fffffff],rsi
   100402dd1: 48 01 fb              add    rbx,rdi
   100402dd4: 48 03 1f              add    rbx,QWORD PTR [rdi]
   100402dd7: 48 01 3b              add    QWORD PTR [rbx],rdi
   100402dda: 48 03 9f ff ff ff 7f  add    rbx,QWORD PTR [rdi+0x7fffffff]
   100402de1: 48 01 bb ff ff ff 7f  add    QWORD PTR [rbx+0x7fffffff],rdi
   100402de8: 4c 01 c3              add    rbx,r8
   100402deb: 49 03 18              add    rbx,QWORD PTR [r8]
   100402dee: 4c 01 03              add    QWORD PTR [rbx],r8
   100402df1: 49 03 98 ff ff ff 7f  add    rbx,QWORD PTR [r8+0x7fffffff]
   100402df8: 4c 01 83 ff ff ff 7f  add    QWORD PTR [rbx+0x7fffffff],r8
   100402dff: 4c 01 cb              add    rbx,r9
   100402e02: 49 03 19              add    rbx,QWORD PTR [r9]
   100402e05: 4c 01 0b              add    QWORD PTR [rbx],r9
   100402e08: 49 03 99 ff ff ff 7f  add    rbx,QWORD PTR [r9+0x7fffffff]
   100402e0f: 4c 01 8b ff ff ff 7f  add    QWORD PTR [rbx+0x7fffffff],r9
   100402e16: 4c 01 d3              add    rbx,r10
   100402e19: 49 03 1a              add    rbx,QWORD PTR [r10]
   100402e1c: 4c 01 13              add    QWORD PTR [rbx],r10
   100402e1f: 49 03 9a ff ff ff 7f  add    rbx,QWORD PTR [r10+0x7fffffff]
   100402e26: 4c 01 93 ff ff ff 7f  add    QWORD PTR [rbx+0x7fffffff],r10
   100402e2d: 4c 01 db              add    rbx,r11
   100402e30: 49 03 1b              add    rbx,QWORD PTR [r11]
   100402e33: 4c 01 1b              add    QWORD PTR [rbx],r11
   100402e36: 49 03 9b ff ff ff 7f  add    rbx,QWORD PTR [r11+0x7fffffff]
   100402e3d: 4c 01 9b ff ff ff 7f  add    QWORD PTR [rbx+0x7fffffff],r11
   100402e44: 4c 01 e3              add    rbx,r12
   100402e47: 49 03 1c 24           add    rbx,QWORD PTR [r12]
   100402e4b: 4c 01 23              add    QWORD PTR [rbx],r12
   100402e4e: 49 03 9c 24 ff ff ff 7f   add    rbx,QWORD PTR [r12+0x7fffffff]
   100402e56: 4c 01 a3 ff ff ff 7f  add    QWORD PTR [rbx+0x7fffffff],r12
   100402e5d: 4c 01 eb              add    rbx,r13
   100402e60: 49 03 5d 00           add    rbx,QWORD PTR [r13+0x0]
   100402e64: 4c 01 2b              add    QWORD PTR [rbx],r13
   100402e67: 49 03 9d ff ff ff 7f  add    rbx,QWORD PTR [r13+0x7fffffff]
   100402e6e: 4c 01 ab ff ff ff 7f  add    QWORD PTR [rbx+0x7fffffff],r13
   100402e75: 4c 01 f3              add    rbx,r14
   100402e78: 49 03 1e              add    rbx,QWORD PTR [r14]
   100402e7b: 4c 01 33              add    QWORD PTR [rbx],r14
   100402e7e: 49 03 9e ff ff ff 7f  add    rbx,QWORD PTR [r14+0x7fffffff]
   100402e85: 4c 01 b3 ff ff ff 7f  add    QWORD PTR [rbx+0x7fffffff],r14
   100402e8c: 4c 01 fb              add    rbx,r15
   100402e8f: 49 03 1f              add    rbx,QWORD PTR [r15]
   100402e92: 4c 01 3b              add    QWORD PTR [rbx],r15
   100402e95: 49 03 9f ff ff ff 7f  add    rbx,QWORD PTR [r15+0x7fffffff]
   100402e9c: 4c 01 bb ff ff ff 7f  add    QWORD PTR [rbx+0x7fffffff],r15
   100402ea3: 48 81 c4 ff ff ff 7f  add    rsp,0x7fffffff
   100402eaa: 48 01 c4              add    rsp,rax
   100402ead: 48 03 20              add    rsp,QWORD PTR [rax]
   100402eb0: 48 01 04 24           add    QWORD PTR [rsp],rax
   100402eb4: 48 03 a0 ff ff ff 7f  add    rsp,QWORD PTR [rax+0x7fffffff]
   100402ebb: 48 01 84 24 ff ff ff 7f   add    QWORD PTR [rsp+0x7fffffff],rax
   100402ec3: 48 01 cc              add    rsp,rcx
   100402ec6: 48 03 21              add    rsp,QWORD PTR [rcx]
   100402ec9: 48 01 0c 24           add    QWORD PTR [rsp],rcx
   100402ecd: 48 03 a1 ff ff ff 7f  add    rsp,QWORD PTR [rcx+0x7fffffff]
   100402ed4: 48 01 8c 24 ff ff ff 7f   add    QWORD PTR [rsp+0x7fffffff],rcx
   100402edc: 48 01 d4              add    rsp,rdx
   100402edf: 48 03 22              add    rsp,QWORD PTR [rdx]
   100402ee2: 48 01 14 24           add    QWORD PTR [rsp],rdx
   100402ee6: 48 03 a2 ff ff ff 7f  add    rsp,QWORD PTR [rdx+0x7fffffff]
   100402eed: 48 01 94 24 ff ff ff 7f   add    QWORD PTR [rsp+0x7fffffff],rdx
   100402ef5: 48 01 dc              add    rsp,rbx
   100402ef8: 48 03 23              add    rsp,QWORD PTR [rbx]
   100402efb: 48 01 1c 24           add    QWORD PTR [rsp],rbx
   100402eff: 48 03 a3 ff ff ff 7f  add    rsp,QWORD PTR [rbx+0x7fffffff]
   100402f06: 48 01 9c 24 ff ff ff 7f   add    QWORD PTR [rsp+0x7fffffff],rbx
   100402f0e: 48 01 e4              add    rsp,rsp
   100402f11: 48 03 24 24           add    rsp,QWORD PTR [rsp]
   100402f15: 48 01 24 24           add    QWORD PTR [rsp],rsp
   100402f19: 48 03 a4 24 ff ff ff 7f   add    rsp,QWORD PTR [rsp+0x7fffffff]
   100402f21: 48 01 a4 24 ff ff ff 7f   add    QWORD PTR [rsp+0x7fffffff],rsp
   100402f29: 48 01 ec              add    rsp,rbp
   100402f2c: 48 03 65 00           add    rsp,QWORD PTR [rbp+0x0]
   100402f30: 48 01 2c 24           add    QWORD PTR [rsp],rbp
   100402f34: 48 03 a5 ff ff ff 7f  add    rsp,QWORD PTR [rbp+0x7fffffff]
   100402f3b: 48 01 ac 24 ff ff ff 7f   add    QWORD PTR [rsp+0x7fffffff],rbp
   100402f43: 48 01 f4              add    rsp,rsi
   100402f46: 48 03 26              add    rsp,QWORD PTR [rsi]
   100402f49: 48 01 34 24           add    QWORD PTR [rsp],rsi
   100402f4d: 48 03 a6 ff ff ff 7f  add    rsp,QWORD PTR [rsi+0x7fffffff]
   100402f54: 48 01 b4 24 ff ff ff 7f   add    QWORD PTR [rsp+0x7fffffff],rsi
   100402f5c: 48 01 fc              add    rsp,rdi
   100402f5f: 48 03 27              add    rsp,QWORD PTR [rdi]
   100402f62: 48 01 3c 24           add    QWORD PTR [rsp],rdi
   100402f66: 48 03 a7 ff ff ff 7f  add    rsp,QWORD PTR [rdi+0x7fffffff]
   100402f6d: 48 01 bc 24 ff ff ff 7f   add    QWORD PTR [rsp+0x7fffffff],rdi
   100402f75: 4c 01 c4              add    rsp,r8
   100402f78: 49 03 20              add    rsp,QWORD PTR [r8]
   100402f7b: 4c 01 04 24           add    QWORD PTR [rsp],r8
   100402f7f: 49 03 a0 ff ff ff 7f  add    rsp,QWORD PTR [r8+0x7fffffff]
   100402f86: 4c 01 84 24 ff ff ff 7f   add    QWORD PTR [rsp+0x7fffffff],r8
   100402f8e: 4c 01 cc              add    rsp,r9
   100402f91: 49 03 21              add    rsp,QWORD PTR [r9]
   100402f94: 4c 01 0c 24           add    QWORD PTR [rsp],r9
   100402f98: 49 03 a1 ff ff ff 7f  add    rsp,QWORD PTR [r9+0x7fffffff]
   100402f9f: 4c 01 8c 24 ff ff ff 7f   add    QWORD PTR [rsp+0x7fffffff],r9
   100402fa7: 4c 01 d4              add    rsp,r10
   100402faa: 49 03 22              add    rsp,QWORD PTR [r10]
   100402fad: 4c 01 14 24           add    QWORD PTR [rsp],r10
   100402fb1: 49 03 a2 ff ff ff 7f  add    rsp,QWORD PTR [r10+0x7fffffff]
   100402fb8: 4c 01 94 24 ff ff ff 7f   add    QWORD PTR [rsp+0x7fffffff],r10
   100402fc0: 4c 01 dc              add    rsp,r11
   100402fc3: 49 03 23              add    rsp,QWORD PTR [r11]
   100402fc6: 4c 01 1c 24           add    QWORD PTR [rsp],r11
   100402fca: 49 03 a3 ff ff ff 7f  add    rsp,QWORD PTR [r11+0x7fffffff]
   100402fd1: 4c 01 9c 24 ff ff ff 7f   add    QWORD PTR [rsp+0x7fffffff],r11
   100402fd9: 4c 01 e4              add    rsp,r12
   100402fdc: 49 03 24 24           add    rsp,QWORD PTR [r12]
   100402fe0: 4c 01 24 24           add    QWORD PTR [rsp],r12
   100402fe4: 49 03 a4 24 ff ff ff 7f   add    rsp,QWORD PTR [r12+0x7fffffff]
   100402fec: 4c 01 a4 24 ff ff ff 7f   add    QWORD PTR [rsp+0x7fffffff],r12
   100402ff4: 4c 01 ec              add    rsp,r13
   100402ff7: 49 03 65 00           add    rsp,QWORD PTR [r13+0x0]
   100402ffb: 4c 01 2c 24           add    QWORD PTR [rsp],r13
   100402fff: 49 03 a5 ff ff ff 7f  add    rsp,QWORD PTR [r13+0x7fffffff]
   100403006: 4c 01 ac 24 ff ff ff 7f   add    QWORD PTR [rsp+0x7fffffff],r13
   10040300e: 4c 01 f4              add    rsp,r14
   100403011: 49 03 26              add    rsp,QWORD PTR [r14]
   100403014: 4c 01 34 24           add    QWORD PTR [rsp],r14
   100403018: 49 03 a6 ff ff ff 7f  add    rsp,QWORD PTR [r14+0x7fffffff]
   10040301f: 4c 01 b4 24 ff ff ff 7f   add    QWORD PTR [rsp+0x7fffffff],r14
   100403027: 4c 01 fc              add    rsp,r15
   10040302a: 49 03 27              add    rsp,QWORD PTR [r15]
   10040302d: 4c 01 3c 24           add    QWORD PTR [rsp],r15
   100403031: 49 03 a7 ff ff ff 7f  add    rsp,QWORD PTR [r15+0x7fffffff]
   100403038: 4c 01 bc 24 ff ff ff 7f   add    QWORD PTR [rsp+0x7fffffff],r15
   100403040: 48 81 c5 ff ff ff 7f  add    rbp,0x7fffffff
   100403047: 48 01 c5              add    rbp,rax
   10040304a: 48 03 28              add    rbp,QWORD PTR [rax]
   10040304d: 48 01 45 00           add    QWORD PTR [rbp+0x0],rax
   100403051: 48 03 a8 ff ff ff 7f  add    rbp,QWORD PTR [rax+0x7fffffff]
   100403058: 48 01 85 ff ff ff 7f  add    QWORD PTR [rbp+0x7fffffff],rax
   10040305f: 48 01 cd              add    rbp,rcx
   100403062: 48 03 29              add    rbp,QWORD PTR [rcx]
   100403065: 48 01 4d 00           add    QWORD PTR [rbp+0x0],rcx
   100403069: 48 03 a9 ff ff ff 7f  add    rbp,QWORD PTR [rcx+0x7fffffff]
   100403070: 48 01 8d ff ff ff 7f  add    QWORD PTR [rbp+0x7fffffff],rcx
   100403077: 48 01 d5              add    rbp,rdx
   10040307a: 48 03 2a              add    rbp,QWORD PTR [rdx]
   10040307d: 48 01 55 00           add    QWORD PTR [rbp+0x0],rdx
   100403081: 48 03 aa ff ff ff 7f  add    rbp,QWORD PTR [rdx+0x7fffffff]
   100403088: 48 01 95 ff ff ff 7f  add    QWORD PTR [rbp+0x7fffffff],rdx
   10040308f: 48 01 dd              add    rbp,rbx
   100403092: 48 03 2b              add    rbp,QWORD PTR [rbx]
   100403095: 48 01 5d 00           add    QWORD PTR [rbp+0x0],rbx
   100403099: 48 03 ab ff ff ff 7f  add    rbp,QWORD PTR [rbx+0x7fffffff]
   1004030a0: 48 01 9d ff ff ff 7f  add    QWORD PTR [rbp+0x7fffffff],rbx
   1004030a7: 48 01 e5              add    rbp,rsp
   1004030aa: 48 03 2c 24           add    rbp,QWORD PTR [rsp]
   1004030ae: 48 01 65 00           add    QWORD PTR [rbp+0x0],rsp
   1004030b2: 48 03 ac 24 ff ff ff 7f   add    rbp,QWORD PTR [rsp+0x7fffffff]
   1004030ba: 48 01 a5 ff ff ff 7f  add    QWORD PTR [rbp+0x7fffffff],rsp
   1004030c1: 48 01 ed              add    rbp,rbp
   1004030c4: 48 03 6d 00           add    rbp,QWORD PTR [rbp+0x0]
   1004030c8: 48 01 6d 00           add    QWORD PTR [rbp+0x0],rbp
   1004030cc: 48 03 ad ff ff ff 7f  add    rbp,QWORD PTR [rbp+0x7fffffff]
   1004030d3: 48 01 ad ff ff ff 7f  add    QWORD PTR [rbp+0x7fffffff],rbp
   1004030da: 48 01 f5              add    rbp,rsi
   1004030dd: 48 03 2e              add    rbp,QWORD PTR [rsi]
   1004030e0: 48 01 75 00           add    QWORD PTR [rbp+0x0],rsi
   1004030e4: 48 03 ae ff ff ff 7f  add    rbp,QWORD PTR [rsi+0x7fffffff]
   1004030eb: 48 01 b5 ff ff ff 7f  add    QWORD PTR [rbp+0x7fffffff],rsi
   1004030f2: 48 01 fd              add    rbp,rdi
   1004030f5: 48 03 2f              add    rbp,QWORD PTR [rdi]
   1004030f8: 48 01 7d 00           add    QWORD PTR [rbp+0x0],rdi
   1004030fc: 48 03 af ff ff ff 7f  add    rbp,QWORD PTR [rdi+0x7fffffff]
   100403103: 48 01 bd ff ff ff 7f  add    QWORD PTR [rbp+0x7fffffff],rdi
   10040310a: 4c 01 c5              add    rbp,r8
   10040310d: 49 03 28              add    rbp,QWORD PTR [r8]
   100403110: 4c 01 45 00           add    QWORD PTR [rbp+0x0],r8
   100403114: 49 03 a8 ff ff ff 7f  add    rbp,QWORD PTR [r8+0x7fffffff]
   10040311b: 4c 01 85 ff ff ff 7f  add    QWORD PTR [rbp+0x7fffffff],r8
   100403122: 4c 01 cd              add    rbp,r9
   100403125: 49 03 29              add    rbp,QWORD PTR [r9]
   100403128: 4c 01 4d 00           add    QWORD PTR [rbp+0x0],r9
   10040312c: 49 03 a9 ff ff ff 7f  add    rbp,QWORD PTR [r9+0x7fffffff]
   100403133: 4c 01 8d ff ff ff 7f  add    QWORD PTR [rbp+0x7fffffff],r9
   10040313a: 4c 01 d5              add    rbp,r10
   10040313d: 49 03 2a              add    rbp,QWORD PTR [r10]
   100403140: 4c 01 55 00           add    QWORD PTR [rbp+0x0],r10
   100403144: 49 03 aa ff ff ff 7f  add    rbp,QWORD PTR [r10+0x7fffffff]
   10040314b: 4c 01 95 ff ff ff 7f  add    QWORD PTR [rbp+0x7fffffff],r10
   100403152: 4c 01 dd              add    rbp,r11
   100403155: 49 03 2b              add    rbp,QWORD PTR [r11]
   100403158: 4c 01 5d 00           add    QWORD PTR [rbp+0x0],r11
   10040315c: 49 03 ab ff ff ff 7f  add    rbp,QWORD PTR [r11+0x7fffffff]
   100403163: 4c 01 9d ff ff ff 7f  add    QWORD PTR [rbp+0x7fffffff],r11
   10040316a: 4c 01 e5              add    rbp,r12
   10040316d: 49 03 2c 24           add    rbp,QWORD PTR [r12]
   100403171: 4c 01 65 00           add    QWORD PTR [rbp+0x0],r12
   100403175: 49 03 ac 24 ff ff ff 7f   add    rbp,QWORD PTR [r12+0x7fffffff]
   10040317d: 4c 01 a5 ff ff ff 7f  add    QWORD PTR [rbp+0x7fffffff],r12
   100403184: 4c 01 ed              add    rbp,r13
   100403187: 49 03 6d 00           add    rbp,QWORD PTR [r13+0x0]
   10040318b: 4c 01 6d 00           add    QWORD PTR [rbp+0x0],r13
   10040318f: 49 03 ad ff ff ff 7f  add    rbp,QWORD PTR [r13+0x7fffffff]
   100403196: 4c 01 ad ff ff ff 7f  add    QWORD PTR [rbp+0x7fffffff],r13
   10040319d: 4c 01 f5              add    rbp,r14
   1004031a0: 49 03 2e              add    rbp,QWORD PTR [r14]
   1004031a3: 4c 01 75 00           add    QWORD PTR [rbp+0x0],r14
   1004031a7: 49 03 ae ff ff ff 7f  add    rbp,QWORD PTR [r14+0x7fffffff]
   1004031ae: 4c 01 b5 ff ff ff 7f  add    QWORD PTR [rbp+0x7fffffff],r14
   1004031b5: 4c 01 fd              add    rbp,r15
   1004031b8: 49 03 2f              add    rbp,QWORD PTR [r15]
   1004031bb: 4c 01 7d 00           add    QWORD PTR [rbp+0x0],r15
   1004031bf: 49 03 af ff ff ff 7f  add    rbp,QWORD PTR [r15+0x7fffffff]
   1004031c6: 4c 01 bd ff ff ff 7f  add    QWORD PTR [rbp+0x7fffffff],r15
   1004031cd: 48 81 c6 ff ff ff 7f  add    rsi,0x7fffffff
   1004031d4: 48 01 c6              add    rsi,rax
   1004031d7: 48 03 30              add    rsi,QWORD PTR [rax]
   1004031da: 48 01 06              add    QWORD PTR [rsi],rax
   1004031dd: 48 03 b0 ff ff ff 7f  add    rsi,QWORD PTR [rax+0x7fffffff]
   1004031e4: 48 01 86 ff ff ff 7f  add    QWORD PTR [rsi+0x7fffffff],rax
   1004031eb: 48 01 ce              add    rsi,rcx
   1004031ee: 48 03 31              add    rsi,QWORD PTR [rcx]
   1004031f1: 48 01 0e              add    QWORD PTR [rsi],rcx
   1004031f4: 48 03 b1 ff ff ff 7f  add    rsi,QWORD PTR [rcx+0x7fffffff]
   1004031fb: 48 01 8e ff ff ff 7f  add    QWORD PTR [rsi+0x7fffffff],rcx
   100403202: 48 01 d6              add    rsi,rdx
   100403205: 48 03 32              add    rsi,QWORD PTR [rdx]
   100403208: 48 01 16              add    QWORD PTR [rsi],rdx
   10040320b: 48 03 b2 ff ff ff 7f  add    rsi,QWORD PTR [rdx+0x7fffffff]
   100403212: 48 01 96 ff ff ff 7f  add    QWORD PTR [rsi+0x7fffffff],rdx
   100403219: 48 01 de              add    rsi,rbx
   10040321c: 48 03 33              add    rsi,QWORD PTR [rbx]
   10040321f: 48 01 1e              add    QWORD PTR [rsi],rbx
   100403222: 48 03 b3 ff ff ff 7f  add    rsi,QWORD PTR [rbx+0x7fffffff]
   100403229: 48 01 9e ff ff ff 7f  add    QWORD PTR [rsi+0x7fffffff],rbx
   100403230: 48 01 e6              add    rsi,rsp
   100403233: 48 03 34 24           add    rsi,QWORD PTR [rsp]
   100403237: 48 01 26              add    QWORD PTR [rsi],rsp
   10040323a: 48 03 b4 24 ff ff ff 7f   add    rsi,QWORD PTR [rsp+0x7fffffff]
   100403242: 48 01 a6 ff ff ff 7f  add    QWORD PTR [rsi+0x7fffffff],rsp
   100403249: 48 01 ee              add    rsi,rbp
   10040324c: 48 03 75 00           add    rsi,QWORD PTR [rbp+0x0]
   100403250: 48 01 2e              add    QWORD PTR [rsi],rbp
   100403253: 48 03 b5 ff ff ff 7f  add    rsi,QWORD PTR [rbp+0x7fffffff]
   10040325a: 48 01 ae ff ff ff 7f  add    QWORD PTR [rsi+0x7fffffff],rbp
   100403261: 48 01 f6              add    rsi,rsi
   100403264: 48 03 36              add    rsi,QWORD PTR [rsi]
   100403267: 48 01 36              add    QWORD PTR [rsi],rsi
   10040326a: 48 03 b6 ff ff ff 7f  add    rsi,QWORD PTR [rsi+0x7fffffff]
   100403271: 48 01 b6 ff ff ff 7f  add    QWORD PTR [rsi+0x7fffffff],rsi
   100403278: 48 01 fe              add    rsi,rdi
   10040327b: 48 03 37              add    rsi,QWORD PTR [rdi]
   10040327e: 48 01 3e              add    QWORD PTR [rsi],rdi
   100403281: 48 03 b7 ff ff ff 7f  add    rsi,QWORD PTR [rdi+0x7fffffff]
   100403288: 48 01 be ff ff ff 7f  add    QWORD PTR [rsi+0x7fffffff],rdi
   10040328f: 4c 01 c6              add    rsi,r8
   100403292: 49 03 30              add    rsi,QWORD PTR [r8]
   100403295: 4c 01 06              add    QWORD PTR [rsi],r8
   100403298: 49 03 b0 ff ff ff 7f  add    rsi,QWORD PTR [r8+0x7fffffff]
   10040329f: 4c 01 86 ff ff ff 7f  add    QWORD PTR [rsi+0x7fffffff],r8
   1004032a6: 4c 01 ce              add    rsi,r9
   1004032a9: 49 03 31              add    rsi,QWORD PTR [r9]
   1004032ac: 4c 01 0e              add    QWORD PTR [rsi],r9
   1004032af: 49 03 b1 ff ff ff 7f  add    rsi,QWORD PTR [r9+0x7fffffff]
   1004032b6: 4c 01 8e ff ff ff 7f  add    QWORD PTR [rsi+0x7fffffff],r9
   1004032bd: 4c 01 d6              add    rsi,r10
   1004032c0: 49 03 32              add    rsi,QWORD PTR [r10]
   1004032c3: 4c 01 16              add    QWORD PTR [rsi],r10
   1004032c6: 49 03 b2 ff ff ff 7f  add    rsi,QWORD PTR [r10+0x7fffffff]
   1004032cd: 4c 01 96 ff ff ff 7f  add    QWORD PTR [rsi+0x7fffffff],r10
   1004032d4: 4c 01 de              add    rsi,r11
   1004032d7: 49 03 33              add    rsi,QWORD PTR [r11]
   1004032da: 4c 01 1e              add    QWORD PTR [rsi],r11
   1004032dd: 49 03 b3 ff ff ff 7f  add    rsi,QWORD PTR [r11+0x7fffffff]
   1004032e4: 4c 01 9e ff ff ff 7f  add    QWORD PTR [rsi+0x7fffffff],r11
   1004032eb: 4c 01 e6              add    rsi,r12
   1004032ee: 49 03 34 24           add    rsi,QWORD PTR [r12]
   1004032f2: 4c 01 26              add    QWORD PTR [rsi],r12
   1004032f5: 49 03 b4 24 ff ff ff 7f   add    rsi,QWORD PTR [r12+0x7fffffff]
   1004032fd: 4c 01 a6 ff ff ff 7f  add    QWORD PTR [rsi+0x7fffffff],r12
   100403304: 4c 01 ee              add    rsi,r13
   100403307: 49 03 75 00           add    rsi,QWORD PTR [r13+0x0]
   10040330b: 4c 01 2e              add    QWORD PTR [rsi],r13
   10040330e: 49 03 b5 ff ff ff 7f  add    rsi,QWORD PTR [r13+0x7fffffff]
   100403315: 4c 01 ae ff ff ff 7f  add    QWORD PTR [rsi+0x7fffffff],r13
   10040331c: 4c 01 f6              add    rsi,r14
   10040331f: 49 03 36              add    rsi,QWORD PTR [r14]
   100403322: 4c 01 36              add    QWORD PTR [rsi],r14
   100403325: 49 03 b6 ff ff ff 7f  add    rsi,QWORD PTR [r14+0x7fffffff]
   10040332c: 4c 01 b6 ff ff ff 7f  add    QWORD PTR [rsi+0x7fffffff],r14
   100403333: 4c 01 fe              add    rsi,r15
   100403336: 49 03 37              add    rsi,QWORD PTR [r15]
   100403339: 4c 01 3e              add    QWORD PTR [rsi],r15
   10040333c: 49 03 b7 ff ff ff 7f  add    rsi,QWORD PTR [r15+0x7fffffff]
   100403343: 4c 01 be ff ff ff 7f  add    QWORD PTR [rsi+0x7fffffff],r15
   10040334a: 48 81 c7 ff ff ff 7f  add    rdi,0x7fffffff
   100403351: 48 01 c7              add    rdi,rax
   100403354: 48 03 38              add    rdi,QWORD PTR [rax]
   100403357: 48 01 07              add    QWORD PTR [rdi],rax
   10040335a: 48 03 b8 ff ff ff 7f  add    rdi,QWORD PTR [rax+0x7fffffff]
   100403361: 48 01 87 ff ff ff 7f  add    QWORD PTR [rdi+0x7fffffff],rax
   100403368: 48 01 cf              add    rdi,rcx
   10040336b: 48 03 39              add    rdi,QWORD PTR [rcx]
   10040336e: 48 01 0f              add    QWORD PTR [rdi],rcx
   100403371: 48 03 b9 ff ff ff 7f  add    rdi,QWORD PTR [rcx+0x7fffffff]
   100403378: 48 01 8f ff ff ff 7f  add    QWORD PTR [rdi+0x7fffffff],rcx
   10040337f: 48 01 d7              add    rdi,rdx
   100403382: 48 03 3a              add    rdi,QWORD PTR [rdx]
   100403385: 48 01 17              add    QWORD PTR [rdi],rdx
   100403388: 48 03 ba ff ff ff 7f  add    rdi,QWORD PTR [rdx+0x7fffffff]
   10040338f: 48 01 97 ff ff ff 7f  add    QWORD PTR [rdi+0x7fffffff],rdx
   100403396: 48 01 df              add    rdi,rbx
   100403399: 48 03 3b              add    rdi,QWORD PTR [rbx]
   10040339c: 48 01 1f              add    QWORD PTR [rdi],rbx
   10040339f: 48 03 bb ff ff ff 7f  add    rdi,QWORD PTR [rbx+0x7fffffff]
   1004033a6: 48 01 9f ff ff ff 7f  add    QWORD PTR [rdi+0x7fffffff],rbx
   1004033ad: 48 01 e7              add    rdi,rsp
   1004033b0: 48 03 3c 24           add    rdi,QWORD PTR [rsp]
   1004033b4: 48 01 27              add    QWORD PTR [rdi],rsp
   1004033b7: 48 03 bc 24 ff ff ff 7f   add    rdi,QWORD PTR [rsp+0x7fffffff]
   1004033bf: 48 01 a7 ff ff ff 7f  add    QWORD PTR [rdi+0x7fffffff],rsp
   1004033c6: 48 01 ef              add    rdi,rbp
   1004033c9: 48 03 7d 00           add    rdi,QWORD PTR [rbp+0x0]
   1004033cd: 48 01 2f              add    QWORD PTR [rdi],rbp
   1004033d0: 48 03 bd ff ff ff 7f  add    rdi,QWORD PTR [rbp+0x7fffffff]
   1004033d7: 48 01 af ff ff ff 7f  add    QWORD PTR [rdi+0x7fffffff],rbp
   1004033de: 48 01 f7              add    rdi,rsi
   1004033e1: 48 03 3e              add    rdi,QWORD PTR [rsi]
   1004033e4: 48 01 37              add    QWORD PTR [rdi],rsi
   1004033e7: 48 03 be ff ff ff 7f  add    rdi,QWORD PTR [rsi+0x7fffffff]
   1004033ee: 48 01 b7 ff ff ff 7f  add    QWORD PTR [rdi+0x7fffffff],rsi
   1004033f5: 48 01 ff              add    rdi,rdi
   1004033f8: 48 03 3f              add    rdi,QWORD PTR [rdi]
   1004033fb: 48 01 3f              add    QWORD PTR [rdi],rdi
   1004033fe: 48 03 bf ff ff ff 7f  add    rdi,QWORD PTR [rdi+0x7fffffff]
   100403405: 48 01 bf ff ff ff 7f  add    QWORD PTR [rdi+0x7fffffff],rdi
   10040340c: 4c 01 c7              add    rdi,r8
   10040340f: 49 03 38              add    rdi,QWORD PTR [r8]
   100403412: 4c 01 07              add    QWORD PTR [rdi],r8
   100403415: 49 03 b8 ff ff ff 7f  add    rdi,QWORD PTR [r8+0x7fffffff]
   10040341c: 4c 01 87 ff ff ff 7f  add    QWORD PTR [rdi+0x7fffffff],r8
   100403423: 4c 01 cf              add    rdi,r9
   100403426: 49 03 39              add    rdi,QWORD PTR [r9]
   100403429: 4c 01 0f              add    QWORD PTR [rdi],r9
   10040342c: 49 03 b9 ff ff ff 7f  add    rdi,QWORD PTR [r9+0x7fffffff]
   100403433: 4c 01 8f ff ff ff 7f  add    QWORD PTR [rdi+0x7fffffff],r9
   10040343a: 4c 01 d7              add    rdi,r10
   10040343d: 49 03 3a              add    rdi,QWORD PTR [r10]
   100403440: 4c 01 17              add    QWORD PTR [rdi],r10
   100403443: 49 03 ba ff ff ff 7f  add    rdi,QWORD PTR [r10+0x7fffffff]
   10040344a: 4c 01 97 ff ff ff 7f  add    QWORD PTR [rdi+0x7fffffff],r10
   100403451: 4c 01 df              add    rdi,r11
   100403454: 49 03 3b              add    rdi,QWORD PTR [r11]
   100403457: 4c 01 1f              add    QWORD PTR [rdi],r11
   10040345a: 49 03 bb ff ff ff 7f  add    rdi,QWORD PTR [r11+0x7fffffff]
   100403461: 4c 01 9f ff ff ff 7f  add    QWORD PTR [rdi+0x7fffffff],r11
   100403468: 4c 01 e7              add    rdi,r12
   10040346b: 49 03 3c 24           add    rdi,QWORD PTR [r12]
   10040346f: 4c 01 27              add    QWORD PTR [rdi],r12
   100403472: 49 03 bc 24 ff ff ff 7f   add    rdi,QWORD PTR [r12+0x7fffffff]
   10040347a: 4c 01 a7 ff ff ff 7f  add    QWORD PTR [rdi+0x7fffffff],r12
   100403481: 4c 01 ef              add    rdi,r13
   100403484: 49 03 7d 00           add    rdi,QWORD PTR [r13+0x0]
   100403488: 4c 01 2f              add    QWORD PTR [rdi],r13
   10040348b: 49 03 bd ff ff ff 7f  add    rdi,QWORD PTR [r13+0x7fffffff]
   100403492: 4c 01 af ff ff ff 7f  add    QWORD PTR [rdi+0x7fffffff],r13
   100403499: 4c 01 f7              add    rdi,r14
   10040349c: 49 03 3e              add    rdi,QWORD PTR [r14]
   10040349f: 4c 01 37              add    QWORD PTR [rdi],r14
   1004034a2: 49 03 be ff ff ff 7f  add    rdi,QWORD PTR [r14+0x7fffffff]
   1004034a9: 4c 01 b7 ff ff ff 7f  add    QWORD PTR [rdi+0x7fffffff],r14
   1004034b0: 4c 01 ff              add    rdi,r15
   1004034b3: 49 03 3f              add    rdi,QWORD PTR [r15]
   1004034b6: 4c 01 3f              add    QWORD PTR [rdi],r15
   1004034b9: 49 03 bf ff ff ff 7f  add    rdi,QWORD PTR [r15+0x7fffffff]
   1004034c0: 4c 01 bf ff ff ff 7f  add    QWORD PTR [rdi+0x7fffffff],r15
   1004034c7: 49 81 c0 ff ff ff 7f  add    r8,0x7fffffff
   1004034ce: 49 01 c0              add    r8,rax
   1004034d1: 4c 03 00              add    r8,QWORD PTR [rax]
   1004034d4: 49 01 00              add    QWORD PTR [r8],rax
   1004034d7: 4c 03 80 ff ff ff 7f  add    r8,QWORD PTR [rax+0x7fffffff]
   1004034de: 49 01 80 ff ff ff 7f  add    QWORD PTR [r8+0x7fffffff],rax
   1004034e5: 49 01 c8              add    r8,rcx
   1004034e8: 4c 03 01              add    r8,QWORD PTR [rcx]
   1004034eb: 49 01 08              add    QWORD PTR [r8],rcx
   1004034ee: 4c 03 81 ff ff ff 7f  add    r8,QWORD PTR [rcx+0x7fffffff]
   1004034f5: 49 01 88 ff ff ff 7f  add    QWORD PTR [r8+0x7fffffff],rcx
   1004034fc: 49 01 d0              add    r8,rdx
   1004034ff: 4c 03 02              add    r8,QWORD PTR [rdx]
   100403502: 49 01 10              add    QWORD PTR [r8],rdx
   100403505: 4c 03 82 ff ff ff 7f  add    r8,QWORD PTR [rdx+0x7fffffff]
   10040350c: 49 01 90 ff ff ff 7f  add    QWORD PTR [r8+0x7fffffff],rdx
   100403513: 49 01 d8              add    r8,rbx
   100403516: 4c 03 03              add    r8,QWORD PTR [rbx]
   100403519: 49 01 18              add    QWORD PTR [r8],rbx
   10040351c: 4c 03 83 ff ff ff 7f  add    r8,QWORD PTR [rbx+0x7fffffff]
   100403523: 49 01 98 ff ff ff 7f  add    QWORD PTR [r8+0x7fffffff],rbx
   10040352a: 49 01 e0              add    r8,rsp
   10040352d: 4c 03 04 24           add    r8,QWORD PTR [rsp]
   100403531: 49 01 20              add    QWORD PTR [r8],rsp
   100403534: 4c 03 84 24 ff ff ff 7f   add    r8,QWORD PTR [rsp+0x7fffffff]
   10040353c: 49 01 a0 ff ff ff 7f  add    QWORD PTR [r8+0x7fffffff],rsp
   100403543: 49 01 e8              add    r8,rbp
   100403546: 4c 03 45 00           add    r8,QWORD PTR [rbp+0x0]
   10040354a: 49 01 28              add    QWORD PTR [r8],rbp
   10040354d: 4c 03 85 ff ff ff 7f  add    r8,QWORD PTR [rbp+0x7fffffff]
   100403554: 49 01 a8 ff ff ff 7f  add    QWORD PTR [r8+0x7fffffff],rbp
   10040355b: 49 01 f0              add    r8,rsi
   10040355e: 4c 03 06              add    r8,QWORD PTR [rsi]
   100403561: 49 01 30              add    QWORD PTR [r8],rsi
   100403564: 4c 03 86 ff ff ff 7f  add    r8,QWORD PTR [rsi+0x7fffffff]
   10040356b: 49 01 b0 ff ff ff 7f  add    QWORD PTR [r8+0x7fffffff],rsi
   100403572: 49 01 f8              add    r8,rdi
   100403575: 4c 03 07              add    r8,QWORD PTR [rdi]
   100403578: 49 01 38              add    QWORD PTR [r8],rdi
   10040357b: 4c 03 87 ff ff ff 7f  add    r8,QWORD PTR [rdi+0x7fffffff]
   100403582: 49 01 b8 ff ff ff 7f  add    QWORD PTR [r8+0x7fffffff],rdi
   100403589: 4d 01 c0              add    r8,r8
   10040358c: 4d 03 00              add    r8,QWORD PTR [r8]
   10040358f: 4d 01 00              add    QWORD PTR [r8],r8
   100403592: 4d 03 80 ff ff ff 7f  add    r8,QWORD PTR [r8+0x7fffffff]
   100403599: 4d 01 80 ff ff ff 7f  add    QWORD PTR [r8+0x7fffffff],r8
   1004035a0: 4d 01 c8              add    r8,r9
   1004035a3: 4d 03 01              add    r8,QWORD PTR [r9]
   1004035a6: 4d 01 08              add    QWORD PTR [r8],r9
   1004035a9: 4d 03 81 ff ff ff 7f  add    r8,QWORD PTR [r9+0x7fffffff]
   1004035b0: 4d 01 88 ff ff ff 7f  add    QWORD PTR [r8+0x7fffffff],r9
   1004035b7: 4d 01 d0              add    r8,r10
   1004035ba: 4d 03 02              add    r8,QWORD PTR [r10]
   1004035bd: 4d 01 10              add    QWORD PTR [r8],r10
   1004035c0: 4d 03 82 ff ff ff 7f  add    r8,QWORD PTR [r10+0x7fffffff]
   1004035c7: 4d 01 90 ff ff ff 7f  add    QWORD PTR [r8+0x7fffffff],r10
   1004035ce: 4d 01 d8              add    r8,r11
   1004035d1: 4d 03 03              add    r8,QWORD PTR [r11]
   1004035d4: 4d 01 18              add    QWORD PTR [r8],r11
   1004035d7: 4d 03 83 ff ff ff 7f  add    r8,QWORD PTR [r11+0x7fffffff]
   1004035de: 4d 01 98 ff ff ff 7f  add    QWORD PTR [r8+0x7fffffff],r11
   1004035e5: 4d 01 e0              add    r8,r12
   1004035e8: 4d 03 04 24           add    r8,QWORD PTR [r12]
   1004035ec: 4d 01 20              add    QWORD PTR [r8],r12
   1004035ef: 4d 03 84 24 ff ff ff 7f   add    r8,QWORD PTR [r12+0x7fffffff]
   1004035f7: 4d 01 a0 ff ff ff 7f  add    QWORD PTR [r8+0x7fffffff],r12
   1004035fe: 4d 01 e8              add    r8,r13
   100403601: 4d 03 45 00           add    r8,QWORD PTR [r13+0x0]
   100403605: 4d 01 28              add    QWORD PTR [r8],r13
   100403608: 4d 03 85 ff ff ff 7f  add    r8,QWORD PTR [r13+0x7fffffff]
   10040360f: 4d 01 a8 ff ff ff 7f  add    QWORD PTR [r8+0x7fffffff],r13
   100403616: 4d 01 f0              add    r8,r14
   100403619: 4d 03 06              add    r8,QWORD PTR [r14]
   10040361c: 4d 01 30              add    QWORD PTR [r8],r14
   10040361f: 4d 03 86 ff ff ff 7f  add    r8,QWORD PTR [r14+0x7fffffff]
   100403626: 4d 01 b0 ff ff ff 7f  add    QWORD PTR [r8+0x7fffffff],r14
   10040362d: 4d 01 f8              add    r8,r15
   100403630: 4d 03 07              add    r8,QWORD PTR [r15]
   100403633: 4d 01 38              add    QWORD PTR [r8],r15
   100403636: 4d 03 87 ff ff ff 7f  add    r8,QWORD PTR [r15+0x7fffffff]
   10040363d: 4d 01 b8 ff ff ff 7f  add    QWORD PTR [r8+0x7fffffff],r15
   100403644: 49 81 c1 ff ff ff 7f  add    r9,0x7fffffff
   10040364b: 49 01 c1              add    r9,rax
   10040364e: 4c 03 08              add    r9,QWORD PTR [rax]
   100403651: 49 01 01              add    QWORD PTR [r9],rax
   100403654: 4c 03 88 ff ff ff 7f  add    r9,QWORD PTR [rax+0x7fffffff]
   10040365b: 49 01 81 ff ff ff 7f  add    QWORD PTR [r9+0x7fffffff],rax
   100403662: 49 01 c9              add    r9,rcx
   100403665: 4c 03 09              add    r9,QWORD PTR [rcx]
   100403668: 49 01 09              add    QWORD PTR [r9],rcx
   10040366b: 4c 03 89 ff ff ff 7f  add    r9,QWORD PTR [rcx+0x7fffffff]
   100403672: 49 01 89 ff ff ff 7f  add    QWORD PTR [r9+0x7fffffff],rcx
   100403679: 49 01 d1              add    r9,rdx
   10040367c: 4c 03 0a              add    r9,QWORD PTR [rdx]
   10040367f: 49 01 11              add    QWORD PTR [r9],rdx
   100403682: 4c 03 8a ff ff ff 7f  add    r9,QWORD PTR [rdx+0x7fffffff]
   100403689: 49 01 91 ff ff ff 7f  add    QWORD PTR [r9+0x7fffffff],rdx
   100403690: 49 01 d9              add    r9,rbx
   100403693: 4c 03 0b              add    r9,QWORD PTR [rbx]
   100403696: 49 01 19              add    QWORD PTR [r9],rbx
   100403699: 4c 03 8b ff ff ff 7f  add    r9,QWORD PTR [rbx+0x7fffffff]
   1004036a0: 49 01 99 ff ff ff 7f  add    QWORD PTR [r9+0x7fffffff],rbx
   1004036a7: 49 01 e1              add    r9,rsp
   1004036aa: 4c 03 0c 24           add    r9,QWORD PTR [rsp]
   1004036ae: 49 01 21              add    QWORD PTR [r9],rsp
   1004036b1: 4c 03 8c 24 ff ff ff 7f   add    r9,QWORD PTR [rsp+0x7fffffff]
   1004036b9: 49 01 a1 ff ff ff 7f  add    QWORD PTR [r9+0x7fffffff],rsp
   1004036c0: 49 01 e9              add    r9,rbp
   1004036c3: 4c 03 4d 00           add    r9,QWORD PTR [rbp+0x0]
   1004036c7: 49 01 29              add    QWORD PTR [r9],rbp
   1004036ca: 4c 03 8d ff ff ff 7f  add    r9,QWORD PTR [rbp+0x7fffffff]
   1004036d1: 49 01 a9 ff ff ff 7f  add    QWORD PTR [r9+0x7fffffff],rbp
   1004036d8: 49 01 f1              add    r9,rsi
   1004036db: 4c 03 0e              add    r9,QWORD PTR [rsi]
   1004036de: 49 01 31              add    QWORD PTR [r9],rsi
   1004036e1: 4c 03 8e ff ff ff 7f  add    r9,QWORD PTR [rsi+0x7fffffff]
   1004036e8: 49 01 b1 ff ff ff 7f  add    QWORD PTR [r9+0x7fffffff],rsi
   1004036ef: 49 01 f9              add    r9,rdi
   1004036f2: 4c 03 0f              add    r9,QWORD PTR [rdi]
   1004036f5: 49 01 39              add    QWORD PTR [r9],rdi
   1004036f8: 4c 03 8f ff ff ff 7f  add    r9,QWORD PTR [rdi+0x7fffffff]
   1004036ff: 49 01 b9 ff ff ff 7f  add    QWORD PTR [r9+0x7fffffff],rdi
   100403706: 4d 01 c1              add    r9,r8
   100403709: 4d 03 08              add    r9,QWORD PTR [r8]
   10040370c: 4d 01 01              add    QWORD PTR [r9],r8
   10040370f: 4d 03 88 ff ff ff 7f  add    r9,QWORD PTR [r8+0x7fffffff]
   100403716: 4d 01 81 ff ff ff 7f  add    QWORD PTR [r9+0x7fffffff],r8
   10040371d: 4d 01 c9              add    r9,r9
   100403720: 4d 03 09              add    r9,QWORD PTR [r9]
   100403723: 4d 01 09              add    QWORD PTR [r9],r9
   100403726: 4d 03 89 ff ff ff 7f  add    r9,QWORD PTR [r9+0x7fffffff]
   10040372d: 4d 01 89 ff ff ff 7f  add    QWORD PTR [r9+0x7fffffff],r9
   100403734: 4d 01 d1              add    r9,r10
   100403737: 4d 03 0a              add    r9,QWORD PTR [r10]
   10040373a: 4d 01 11              add    QWORD PTR [r9],r10
   10040373d: 4d 03 8a ff ff ff 7f  add    r9,QWORD PTR [r10+0x7fffffff]
   100403744: 4d 01 91 ff ff ff 7f  add    QWORD PTR [r9+0x7fffffff],r10
   10040374b: 4d 01 d9              add    r9,r11
   10040374e: 4d 03 0b              add    r9,QWORD PTR [r11]
   100403751: 4d 01 19              add    QWORD PTR [r9],r11
   100403754: 4d 03 8b ff ff ff 7f  add    r9,QWORD PTR [r11+0x7fffffff]
   10040375b: 4d 01 99 ff ff ff 7f  add    QWORD PTR [r9+0x7fffffff],r11
   100403762: 4d 01 e1              add    r9,r12
   100403765: 4d 03 0c 24           add    r9,QWORD PTR [r12]
   100403769: 4d 01 21              add    QWORD PTR [r9],r12
   10040376c: 4d 03 8c 24 ff ff ff 7f   add    r9,QWORD PTR [r12+0x7fffffff]
   100403774: 4d 01 a1 ff ff ff 7f  add    QWORD PTR [r9+0x7fffffff],r12
   10040377b: 4d 01 e9              add    r9,r13
   10040377e: 4d 03 4d 00           add    r9,QWORD PTR [r13+0x0]
   100403782: 4d 01 29              add    QWORD PTR [r9],r13
   100403785: 4d 03 8d ff ff ff 7f  add    r9,QWORD PTR [r13+0x7fffffff]
   10040378c: 4d 01 a9 ff ff ff 7f  add    QWORD PTR [r9+0x7fffffff],r13
   100403793: 4d 01 f1              add    r9,r14
   100403796: 4d 03 0e              add    r9,QWORD PTR [r14]
   100403799: 4d 01 31              add    QWORD PTR [r9],r14
   10040379c: 4d 03 8e ff ff ff 7f  add    r9,QWORD PTR [r14+0x7fffffff]
   1004037a3: 4d 01 b1 ff ff ff 7f  add    QWORD PTR [r9+0x7fffffff],r14
   1004037aa: 4d 01 f9              add    r9,r15
   1004037ad: 4d 03 0f              add    r9,QWORD PTR [r15]
   1004037b0: 4d 01 39              add    QWORD PTR [r9],r15
   1004037b3: 4d 03 8f ff ff ff 7f  add    r9,QWORD PTR [r15+0x7fffffff]
   1004037ba: 4d 01 b9 ff ff ff 7f  add    QWORD PTR [r9+0x7fffffff],r15
   1004037c1: 49 81 c2 ff ff ff 7f  add    r10,0x7fffffff
   1004037c8: 49 01 c2              add    r10,rax
   1004037cb: 4c 03 10              add    r10,QWORD PTR [rax]
   1004037ce: 49 01 02              add    QWORD PTR [r10],rax
   1004037d1: 4c 03 90 ff ff ff 7f  add    r10,QWORD PTR [rax+0x7fffffff]
   1004037d8: 49 01 82 ff ff ff 7f  add    QWORD PTR [r10+0x7fffffff],rax
   1004037df: 49 01 ca              add    r10,rcx
   1004037e2: 4c 03 11              add    r10,QWORD PTR [rcx]
   1004037e5: 49 01 0a              add    QWORD PTR [r10],rcx
   1004037e8: 4c 03 91 ff ff ff 7f  add    r10,QWORD PTR [rcx+0x7fffffff]
   1004037ef: 49 01 8a ff ff ff 7f  add    QWORD PTR [r10+0x7fffffff],rcx
   1004037f6: 49 01 d2              add    r10,rdx
   1004037f9: 4c 03 12              add    r10,QWORD PTR [rdx]
   1004037fc: 49 01 12              add    QWORD PTR [r10],rdx
   1004037ff: 4c 03 92 ff ff ff 7f  add    r10,QWORD PTR [rdx+0x7fffffff]
   100403806: 49 01 92 ff ff ff 7f  add    QWORD PTR [r10+0x7fffffff],rdx
   10040380d: 49 01 da              add    r10,rbx
   100403810: 4c 03 13              add    r10,QWORD PTR [rbx]
   100403813: 49 01 1a              add    QWORD PTR [r10],rbx
   100403816: 4c 03 93 ff ff ff 7f  add    r10,QWORD PTR [rbx+0x7fffffff]
   10040381d: 49 01 9a ff ff ff 7f  add    QWORD PTR [r10+0x7fffffff],rbx
   100403824: 49 01 e2              add    r10,rsp
   100403827: 4c 03 14 24           add    r10,QWORD PTR [rsp]
   10040382b: 49 01 22              add    QWORD PTR [r10],rsp
   10040382e: 4c 03 94 24 ff ff ff 7f   add    r10,QWORD PTR [rsp+0x7fffffff]
   100403836: 49 01 a2 ff ff ff 7f  add    QWORD PTR [r10+0x7fffffff],rsp
   10040383d: 49 01 ea              add    r10,rbp
   100403840: 4c 03 55 00           add    r10,QWORD PTR [rbp+0x0]
   100403844: 49 01 2a              add    QWORD PTR [r10],rbp
   100403847: 4c 03 95 ff ff ff 7f  add    r10,QWORD PTR [rbp+0x7fffffff]
   10040384e: 49 01 aa ff ff ff 7f  add    QWORD PTR [r10+0x7fffffff],rbp
   100403855: 49 01 f2              add    r10,rsi
   100403858: 4c 03 16              add    r10,QWORD PTR [rsi]
   10040385b: 49 01 32              add    QWORD PTR [r10],rsi
   10040385e: 4c 03 96 ff ff ff 7f  add    r10,QWORD PTR [rsi+0x7fffffff]
   100403865: 49 01 b2 ff ff ff 7f  add    QWORD PTR [r10+0x7fffffff],rsi
   10040386c: 49 01 fa              add    r10,rdi
   10040386f: 4c 03 17              add    r10,QWORD PTR [rdi]
   100403872: 49 01 3a              add    QWORD PTR [r10],rdi
   100403875: 4c 03 97 ff ff ff 7f  add    r10,QWORD PTR [rdi+0x7fffffff]
   10040387c: 49 01 ba ff ff ff 7f  add    QWORD PTR [r10+0x7fffffff],rdi
   100403883: 4d 01 c2              add    r10,r8
   100403886: 4d 03 10              add    r10,QWORD PTR [r8]
   100403889: 4d 01 02              add    QWORD PTR [r10],r8
   10040388c: 4d 03 90 ff ff ff 7f  add    r10,QWORD PTR [r8+0x7fffffff]
   100403893: 4d 01 82 ff ff ff 7f  add    QWORD PTR [r10+0x7fffffff],r8
   10040389a: 4d 01 ca              add    r10,r9
   10040389d: 4d 03 11              add    r10,QWORD PTR [r9]
   1004038a0: 4d 01 0a              add    QWORD PTR [r10],r9
   1004038a3: 4d 03 91 ff ff ff 7f  add    r10,QWORD PTR [r9+0x7fffffff]
   1004038aa: 4d 01 8a ff ff ff 7f  add    QWORD PTR [r10+0x7fffffff],r9
   1004038b1: 4d 01 d2              add    r10,r10
   1004038b4: 4d 03 12              add    r10,QWORD PTR [r10]
   1004038b7: 4d 01 12              add    QWORD PTR [r10],r10
   1004038ba: 4d 03 92 ff ff ff 7f  add    r10,QWORD PTR [r10+0x7fffffff]
   1004038c1: 4d 01 92 ff ff ff 7f  add    QWORD PTR [r10+0x7fffffff],r10
   1004038c8: 4d 01 da              add    r10,r11
   1004038cb: 4d 03 13              add    r10,QWORD PTR [r11]
   1004038ce: 4d 01 1a              add    QWORD PTR [r10],r11
   1004038d1: 4d 03 93 ff ff ff 7f  add    r10,QWORD PTR [r11+0x7fffffff]
   1004038d8: 4d 01 9a ff ff ff 7f  add    QWORD PTR [r10+0x7fffffff],r11
   1004038df: 4d 01 e2              add    r10,r12
   1004038e2: 4d 03 14 24           add    r10,QWORD PTR [r12]
   1004038e6: 4d 01 22              add    QWORD PTR [r10],r12
   1004038e9: 4d 03 94 24 ff ff ff 7f   add    r10,QWORD PTR [r12+0x7fffffff]
   1004038f1: 4d 01 a2 ff ff ff 7f  add    QWORD PTR [r10+0x7fffffff],r12
   1004038f8: 4d 01 ea              add    r10,r13
   1004038fb: 4d 03 55 00           add    r10,QWORD PTR [r13+0x0]
   1004038ff: 4d 01 2a              add    QWORD PTR [r10],r13
   100403902: 4d 03 95 ff ff ff 7f  add    r10,QWORD PTR [r13+0x7fffffff]
   100403909: 4d 01 aa ff ff ff 7f  add    QWORD PTR [r10+0x7fffffff],r13
   100403910: 4d 01 f2              add    r10,r14
   100403913: 4d 03 16              add    r10,QWORD PTR [r14]
   100403916: 4d 01 32              add    QWORD PTR [r10],r14
   100403919: 4d 03 96 ff ff ff 7f  add    r10,QWORD PTR [r14+0x7fffffff]
   100403920: 4d 01 b2 ff ff ff 7f  add    QWORD PTR [r10+0x7fffffff],r14
   100403927: 4d 01 fa              add    r10,r15
   10040392a: 4d 03 17              add    r10,QWORD PTR [r15]
   10040392d: 4d 01 3a              add    QWORD PTR [r10],r15
   100403930: 4d 03 97 ff ff ff 7f  add    r10,QWORD PTR [r15+0x7fffffff]
   100403937: 4d 01 ba ff ff ff 7f  add    QWORD PTR [r10+0x7fffffff],r15
   10040393e: 49 81 c3 ff ff ff 7f  add    r11,0x7fffffff
   100403945: 49 01 c3              add    r11,rax
   100403948: 4c 03 18              add    r11,QWORD PTR [rax]
   10040394b: 49 01 03              add    QWORD PTR [r11],rax
   10040394e: 4c 03 98 ff ff ff 7f  add    r11,QWORD PTR [rax+0x7fffffff]
   100403955: 49 01 83 ff ff ff 7f  add    QWORD PTR [r11+0x7fffffff],rax
   10040395c: 49 01 cb              add    r11,rcx
   10040395f: 4c 03 19              add    r11,QWORD PTR [rcx]
   100403962: 49 01 0b              add    QWORD PTR [r11],rcx
   100403965: 4c 03 99 ff ff ff 7f  add    r11,QWORD PTR [rcx+0x7fffffff]
   10040396c: 49 01 8b ff ff ff 7f  add    QWORD PTR [r11+0x7fffffff],rcx
   100403973: 49 01 d3              add    r11,rdx
   100403976: 4c 03 1a              add    r11,QWORD PTR [rdx]
   100403979: 49 01 13              add    QWORD PTR [r11],rdx
   10040397c: 4c 03 9a ff ff ff 7f  add    r11,QWORD PTR [rdx+0x7fffffff]
   100403983: 49 01 93 ff ff ff 7f  add    QWORD PTR [r11+0x7fffffff],rdx
   10040398a: 49 01 db              add    r11,rbx
   10040398d: 4c 03 1b              add    r11,QWORD PTR [rbx]
   100403990: 49 01 1b              add    QWORD PTR [r11],rbx
   100403993: 4c 03 9b ff ff ff 7f  add    r11,QWORD PTR [rbx+0x7fffffff]
   10040399a: 49 01 9b ff ff ff 7f  add    QWORD PTR [r11+0x7fffffff],rbx
   1004039a1: 49 01 e3              add    r11,rsp
   1004039a4: 4c 03 1c 24           add    r11,QWORD PTR [rsp]
   1004039a8: 49 01 23              add    QWORD PTR [r11],rsp
   1004039ab: 4c 03 9c 24 ff ff ff 7f   add    r11,QWORD PTR [rsp+0x7fffffff]
   1004039b3: 49 01 a3 ff ff ff 7f  add    QWORD PTR [r11+0x7fffffff],rsp
   1004039ba: 49 01 eb              add    r11,rbp
   1004039bd: 4c 03 5d 00           add    r11,QWORD PTR [rbp+0x0]
   1004039c1: 49 01 2b              add    QWORD PTR [r11],rbp
   1004039c4: 4c 03 9d ff ff ff 7f  add    r11,QWORD PTR [rbp+0x7fffffff]
   1004039cb: 49 01 ab ff ff ff 7f  add    QWORD PTR [r11+0x7fffffff],rbp
   1004039d2: 49 01 f3              add    r11,rsi
   1004039d5: 4c 03 1e              add    r11,QWORD PTR [rsi]
   1004039d8: 49 01 33              add    QWORD PTR [r11],rsi
   1004039db: 4c 03 9e ff ff ff 7f  add    r11,QWORD PTR [rsi+0x7fffffff]
   1004039e2: 49 01 b3 ff ff ff 7f  add    QWORD PTR [r11+0x7fffffff],rsi
   1004039e9: 49 01 fb              add    r11,rdi
   1004039ec: 4c 03 1f              add    r11,QWORD PTR [rdi]
   1004039ef: 49 01 3b              add    QWORD PTR [r11],rdi
   1004039f2: 4c 03 9f ff ff ff 7f  add    r11,QWORD PTR [rdi+0x7fffffff]
   1004039f9: 49 01 bb ff ff ff 7f  add    QWORD PTR [r11+0x7fffffff],rdi
   100403a00: 4d 01 c3              add    r11,r8
   100403a03: 4d 03 18              add    r11,QWORD PTR [r8]
   100403a06: 4d 01 03              add    QWORD PTR [r11],r8
   100403a09: 4d 03 98 ff ff ff 7f  add    r11,QWORD PTR [r8+0x7fffffff]
   100403a10: 4d 01 83 ff ff ff 7f  add    QWORD PTR [r11+0x7fffffff],r8
   100403a17: 4d 01 cb              add    r11,r9
   100403a1a: 4d 03 19              add    r11,QWORD PTR [r9]
   100403a1d: 4d 01 0b              add    QWORD PTR [r11],r9
   100403a20: 4d 03 99 ff ff ff 7f  add    r11,QWORD PTR [r9+0x7fffffff]
   100403a27: 4d 01 8b ff ff ff 7f  add    QWORD PTR [r11+0x7fffffff],r9
   100403a2e: 4d 01 d3              add    r11,r10
   100403a31: 4d 03 1a              add    r11,QWORD PTR [r10]
   100403a34: 4d 01 13              add    QWORD PTR [r11],r10
   100403a37: 4d 03 9a ff ff ff 7f  add    r11,QWORD PTR [r10+0x7fffffff]
   100403a3e: 4d 01 93 ff ff ff 7f  add    QWORD PTR [r11+0x7fffffff],r10
   100403a45: 4d 01 db              add    r11,r11
   100403a48: 4d 03 1b              add    r11,QWORD PTR [r11]
   100403a4b: 4d 01 1b              add    QWORD PTR [r11],r11
   100403a4e: 4d 03 9b ff ff ff 7f  add    r11,QWORD PTR [r11+0x7fffffff]
   100403a55: 4d 01 9b ff ff ff 7f  add    QWORD PTR [r11+0x7fffffff],r11
   100403a5c: 4d 01 e3              add    r11,r12
   100403a5f: 4d 03 1c 24           add    r11,QWORD PTR [r12]
   100403a63: 4d 01 23              add    QWORD PTR [r11],r12
   100403a66: 4d 03 9c 24 ff ff ff 7f   add    r11,QWORD PTR [r12+0x7fffffff]
   100403a6e: 4d 01 a3 ff ff ff 7f  add    QWORD PTR [r11+0x7fffffff],r12
   100403a75: 4d 01 eb              add    r11,r13
   100403a78: 4d 03 5d 00           add    r11,QWORD PTR [r13+0x0]
   100403a7c: 4d 01 2b              add    QWORD PTR [r11],r13
   100403a7f: 4d 03 9d ff ff ff 7f  add    r11,QWORD PTR [r13+0x7fffffff]
   100403a86: 4d 01 ab ff ff ff 7f  add    QWORD PTR [r11+0x7fffffff],r13
   100403a8d: 4d 01 f3              add    r11,r14
   100403a90: 4d 03 1e              add    r11,QWORD PTR [r14]
   100403a93: 4d 01 33              add    QWORD PTR [r11],r14
   100403a96: 4d 03 9e ff ff ff 7f  add    r11,QWORD PTR [r14+0x7fffffff]
   100403a9d: 4d 01 b3 ff ff ff 7f  add    QWORD PTR [r11+0x7fffffff],r14
   100403aa4: 4d 01 fb              add    r11,r15
   100403aa7: 4d 03 1f              add    r11,QWORD PTR [r15]
   100403aaa: 4d 01 3b              add    QWORD PTR [r11],r15
   100403aad: 4d 03 9f ff ff ff 7f  add    r11,QWORD PTR [r15+0x7fffffff]
   100403ab4: 4d 01 bb ff ff ff 7f  add    QWORD PTR [r11+0x7fffffff],r15
   100403abb: 49 81 c4 ff ff ff 7f  add    r12,0x7fffffff
   100403ac2: 49 01 c4              add    r12,rax
   100403ac5: 4c 03 20              add    r12,QWORD PTR [rax]
   100403ac8: 49 01 04 24           add    QWORD PTR [r12],rax
   100403acc: 4c 03 a0 ff ff ff 7f  add    r12,QWORD PTR [rax+0x7fffffff]
   100403ad3: 49 01 84 24 ff ff ff 7f   add    QWORD PTR [r12+0x7fffffff],rax
   100403adb: 49 01 cc              add    r12,rcx
   100403ade: 4c 03 21              add    r12,QWORD PTR [rcx]
   100403ae1: 49 01 0c 24           add    QWORD PTR [r12],rcx
   100403ae5: 4c 03 a1 ff ff ff 7f  add    r12,QWORD PTR [rcx+0x7fffffff]
   100403aec: 49 01 8c 24 ff ff ff 7f   add    QWORD PTR [r12+0x7fffffff],rcx
   100403af4: 49 01 d4              add    r12,rdx
   100403af7: 4c 03 22              add    r12,QWORD PTR [rdx]
   100403afa: 49 01 14 24           add    QWORD PTR [r12],rdx
   100403afe: 4c 03 a2 ff ff ff 7f  add    r12,QWORD PTR [rdx+0x7fffffff]
   100403b05: 49 01 94 24 ff ff ff 7f   add    QWORD PTR [r12+0x7fffffff],rdx
   100403b0d: 49 01 dc              add    r12,rbx
   100403b10: 4c 03 23              add    r12,QWORD PTR [rbx]
   100403b13: 49 01 1c 24           add    QWORD PTR [r12],rbx
   100403b17: 4c 03 a3 ff ff ff 7f  add    r12,QWORD PTR [rbx+0x7fffffff]
   100403b1e: 49 01 9c 24 ff ff ff 7f   add    QWORD PTR [r12+0x7fffffff],rbx
   100403b26: 49 01 e4              add    r12,rsp
   100403b29: 4c 03 24 24           add    r12,QWORD PTR [rsp]
   100403b2d: 49 01 24 24           add    QWORD PTR [r12],rsp
   100403b31: 4c 03 a4 24 ff ff ff 7f   add    r12,QWORD PTR [rsp+0x7fffffff]
   100403b39: 49 01 a4 24 ff ff ff 7f   add    QWORD PTR [r12+0x7fffffff],rsp
   100403b41: 49 01 ec              add    r12,rbp
   100403b44: 4c 03 65 00           add    r12,QWORD PTR [rbp+0x0]
   100403b48: 49 01 2c 24           add    QWORD PTR [r12],rbp
   100403b4c: 4c 03 a5 ff ff ff 7f  add    r12,QWORD PTR [rbp+0x7fffffff]
   100403b53: 49 01 ac 24 ff ff ff 7f   add    QWORD PTR [r12+0x7fffffff],rbp
   100403b5b: 49 01 f4              add    r12,rsi
   100403b5e: 4c 03 26              add    r12,QWORD PTR [rsi]
   100403b61: 49 01 34 24           add    QWORD PTR [r12],rsi
   100403b65: 4c 03 a6 ff ff ff 7f  add    r12,QWORD PTR [rsi+0x7fffffff]
   100403b6c: 49 01 b4 24 ff ff ff 7f   add    QWORD PTR [r12+0x7fffffff],rsi
   100403b74: 49 01 fc              add    r12,rdi
   100403b77: 4c 03 27              add    r12,QWORD PTR [rdi]
   100403b7a: 49 01 3c 24           add    QWORD PTR [r12],rdi
   100403b7e: 4c 03 a7 ff ff ff 7f  add    r12,QWORD PTR [rdi+0x7fffffff]
   100403b85: 49 01 bc 24 ff ff ff 7f   add    QWORD PTR [r12+0x7fffffff],rdi
   100403b8d: 4d 01 c4              add    r12,r8
   100403b90: 4d 03 20              add    r12,QWORD PTR [r8]
   100403b93: 4d 01 04 24           add    QWORD PTR [r12],r8
   100403b97: 4d 03 a0 ff ff ff 7f  add    r12,QWORD PTR [r8+0x7fffffff]
   100403b9e: 4d 01 84 24 ff ff ff 7f   add    QWORD PTR [r12+0x7fffffff],r8
   100403ba6: 4d 01 cc              add    r12,r9
   100403ba9: 4d 03 21              add    r12,QWORD PTR [r9]
   100403bac: 4d 01 0c 24           add    QWORD PTR [r12],r9
   100403bb0: 4d 03 a1 ff ff ff 7f  add    r12,QWORD PTR [r9+0x7fffffff]
   100403bb7: 4d 01 8c 24 ff ff ff 7f   add    QWORD PTR [r12+0x7fffffff],r9
   100403bbf: 4d 01 d4              add    r12,r10
   100403bc2: 4d 03 22              add    r12,QWORD PTR [r10]
   100403bc5: 4d 01 14 24           add    QWORD PTR [r12],r10
   100403bc9: 4d 03 a2 ff ff ff 7f  add    r12,QWORD PTR [r10+0x7fffffff]
   100403bd0: 4d 01 94 24 ff ff ff 7f   add    QWORD PTR [r12+0x7fffffff],r10
   100403bd8: 4d 01 dc              add    r12,r11
   100403bdb: 4d 03 23              add    r12,QWORD PTR [r11]
   100403bde: 4d 01 1c 24           add    QWORD PTR [r12],r11
   100403be2: 4d 03 a3 ff ff ff 7f  add    r12,QWORD PTR [r11+0x7fffffff]
   100403be9: 4d 01 9c 24 ff ff ff 7f   add    QWORD PTR [r12+0x7fffffff],r11
   100403bf1: 4d 01 e4              add    r12,r12
   100403bf4: 4d 03 24 24           add    r12,QWORD PTR [r12]
   100403bf8: 4d 01 24 24           add    QWORD PTR [r12],r12
   100403bfc: 4d 03 a4 24 ff ff ff 7f   add    r12,QWORD PTR [r12+0x7fffffff]
   100403c04: 4d 01 a4 24 ff ff ff 7f   add    QWORD PTR [r12+0x7fffffff],r12
   100403c0c: 4d 01 ec              add    r12,r13
   100403c0f: 4d 03 65 00           add    r12,QWORD PTR [r13+0x0]
   100403c13: 4d 01 2c 24           add    QWORD PTR [r12],r13
   100403c17: 4d 03 a5 ff ff ff 7f  add    r12,QWORD PTR [r13+0x7fffffff]
   100403c1e: 4d 01 ac 24 ff ff ff 7f   add    QWORD PTR [r12+0x7fffffff],r13
   100403c26: 4d 01 f4              add    r12,r14
   100403c29: 4d 03 26              add    r12,QWORD PTR [r14]
   100403c2c: 4d 01 34 24           add    QWORD PTR [r12],r14
   100403c30: 4d 03 a6 ff ff ff 7f  add    r12,QWORD PTR [r14+0x7fffffff]
   100403c37: 4d 01 b4 24 ff ff ff 7f   add    QWORD PTR [r12+0x7fffffff],r14
   100403c3f: 4d 01 fc              add    r12,r15
   100403c42: 4d 03 27              add    r12,QWORD PTR [r15]
   100403c45: 4d 01 3c 24           add    QWORD PTR [r12],r15
   100403c49: 4d 03 a7 ff ff ff 7f  add    r12,QWORD PTR [r15+0x7fffffff]
   100403c50: 4d 01 bc 24 ff ff ff 7f   add    QWORD PTR [r12+0x7fffffff],r15
   100403c58: 49 81 c5 ff ff ff 7f  add    r13,0x7fffffff
   100403c5f: 49 01 c5              add    r13,rax
   100403c62: 4c 03 28              add    r13,QWORD PTR [rax]
   100403c65: 49 01 45 00           add    QWORD PTR [r13+0x0],rax
   100403c69: 4c 03 a8 ff ff ff 7f  add    r13,QWORD PTR [rax+0x7fffffff]
   100403c70: 49 01 85 ff ff ff 7f  add    QWORD PTR [r13+0x7fffffff],rax
   100403c77: 49 01 cd              add    r13,rcx
   100403c7a: 4c 03 29              add    r13,QWORD PTR [rcx]
   100403c7d: 49 01 4d 00           add    QWORD PTR [r13+0x0],rcx
   100403c81: 4c 03 a9 ff ff ff 7f  add    r13,QWORD PTR [rcx+0x7fffffff]
   100403c88: 49 01 8d ff ff ff 7f  add    QWORD PTR [r13+0x7fffffff],rcx
   100403c8f: 49 01 d5              add    r13,rdx
   100403c92: 4c 03 2a              add    r13,QWORD PTR [rdx]
   100403c95: 49 01 55 00           add    QWORD PTR [r13+0x0],rdx
   100403c99: 4c 03 aa ff ff ff 7f  add    r13,QWORD PTR [rdx+0x7fffffff]
   100403ca0: 49 01 95 ff ff ff 7f  add    QWORD PTR [r13+0x7fffffff],rdx
   100403ca7: 49 01 dd              add    r13,rbx
   100403caa: 4c 03 2b              add    r13,QWORD PTR [rbx]
   100403cad: 49 01 5d 00           add    QWORD PTR [r13+0x0],rbx
   100403cb1: 4c 03 ab ff ff ff 7f  add    r13,QWORD PTR [rbx+0x7fffffff]
   100403cb8: 49 01 9d ff ff ff 7f  add    QWORD PTR [r13+0x7fffffff],rbx
   100403cbf: 49 01 e5              add    r13,rsp
   100403cc2: 4c 03 2c 24           add    r13,QWORD PTR [rsp]
   100403cc6: 49 01 65 00           add    QWORD PTR [r13+0x0],rsp
   100403cca: 4c 03 ac 24 ff ff ff 7f   add    r13,QWORD PTR [rsp+0x7fffffff]
   100403cd2: 49 01 a5 ff ff ff 7f  add    QWORD PTR [r13+0x7fffffff],rsp
   100403cd9: 49 01 ed              add    r13,rbp
   100403cdc: 4c 03 6d 00           add    r13,QWORD PTR [rbp+0x0]
   100403ce0: 49 01 6d 00           add    QWORD PTR [r13+0x0],rbp
   100403ce4: 4c 03 ad ff ff ff 7f  add    r13,QWORD PTR [rbp+0x7fffffff]
   100403ceb: 49 01 ad ff ff ff 7f  add    QWORD PTR [r13+0x7fffffff],rbp
   100403cf2: 49 01 f5              add    r13,rsi
   100403cf5: 4c 03 2e              add    r13,QWORD PTR [rsi]
   100403cf8: 49 01 75 00           add    QWORD PTR [r13+0x0],rsi
   100403cfc: 4c 03 ae ff ff ff 7f  add    r13,QWORD PTR [rsi+0x7fffffff]
   100403d03: 49 01 b5 ff ff ff 7f  add    QWORD PTR [r13+0x7fffffff],rsi
   100403d0a: 49 01 fd              add    r13,rdi
   100403d0d: 4c 03 2f              add    r13,QWORD PTR [rdi]
   100403d10: 49 01 7d 00           add    QWORD PTR [r13+0x0],rdi
   100403d14: 4c 03 af ff ff ff 7f  add    r13,QWORD PTR [rdi+0x7fffffff]
   100403d1b: 49 01 bd ff ff ff 7f  add    QWORD PTR [r13+0x7fffffff],rdi
   100403d22: 4d 01 c5              add    r13,r8
   100403d25: 4d 03 28              add    r13,QWORD PTR [r8]
   100403d28: 4d 01 45 00           add    QWORD PTR [r13+0x0],r8
   100403d2c: 4d 03 a8 ff ff ff 7f  add    r13,QWORD PTR [r8+0x7fffffff]
   100403d33: 4d 01 85 ff ff ff 7f  add    QWORD PTR [r13+0x7fffffff],r8
   100403d3a: 4d 01 cd              add    r13,r9
   100403d3d: 4d 03 29              add    r13,QWORD PTR [r9]
   100403d40: 4d 01 4d 00           add    QWORD PTR [r13+0x0],r9
   100403d44: 4d 03 a9 ff ff ff 7f  add    r13,QWORD PTR [r9+0x7fffffff]
   100403d4b: 4d 01 8d ff ff ff 7f  add    QWORD PTR [r13+0x7fffffff],r9
   100403d52: 4d 01 d5              add    r13,r10
   100403d55: 4d 03 2a              add    r13,QWORD PTR [r10]
   100403d58: 4d 01 55 00           add    QWORD PTR [r13+0x0],r10
   100403d5c: 4d 03 aa ff ff ff 7f  add    r13,QWORD PTR [r10+0x7fffffff]
   100403d63: 4d 01 95 ff ff ff 7f  add    QWORD PTR [r13+0x7fffffff],r10
   100403d6a: 4d 01 dd              add    r13,r11
   100403d6d: 4d 03 2b              add    r13,QWORD PTR [r11]
   100403d70: 4d 01 5d 00           add    QWORD PTR [r13+0x0],r11
   100403d74: 4d 03 ab ff ff ff 7f  add    r13,QWORD PTR [r11+0x7fffffff]
   100403d7b: 4d 01 9d ff ff ff 7f  add    QWORD PTR [r13+0x7fffffff],r11
   100403d82: 4d 01 e5              add    r13,r12
   100403d85: 4d 03 2c 24           add    r13,QWORD PTR [r12]
   100403d89: 4d 01 65 00           add    QWORD PTR [r13+0x0],r12
   100403d8d: 4d 03 ac 24 ff ff ff 7f   add    r13,QWORD PTR [r12+0x7fffffff]
   100403d95: 4d 01 a5 ff ff ff 7f  add    QWORD PTR [r13+0x7fffffff],r12
   100403d9c: 4d 01 ed              add    r13,r13
   100403d9f: 4d 03 6d 00           add    r13,QWORD PTR [r13+0x0]
   100403da3: 4d 01 6d 00           add    QWORD PTR [r13+0x0],r13
   100403da7: 4d 03 ad ff ff ff 7f  add    r13,QWORD PTR [r13+0x7fffffff]
   100403dae: 4d 01 ad ff ff ff 7f  add    QWORD PTR [r13+0x7fffffff],r13
   100403db5: 4d 01 f5              add    r13,r14
   100403db8: 4d 03 2e              add    r13,QWORD PTR [r14]
   100403dbb: 4d 01 75 00           add    QWORD PTR [r13+0x0],r14
   100403dbf: 4d 03 ae ff ff ff 7f  add    r13,QWORD PTR [r14+0x7fffffff]
   100403dc6: 4d 01 b5 ff ff ff 7f  add    QWORD PTR [r13+0x7fffffff],r14
   100403dcd: 4d 01 fd              add    r13,r15
   100403dd0: 4d 03 2f              add    r13,QWORD PTR [r15]
   100403dd3: 4d 01 7d 00           add    QWORD PTR [r13+0x0],r15
   100403dd7: 4d 03 af ff ff ff 7f  add    r13,QWORD PTR [r15+0x7fffffff]
   100403dde: 4d 01 bd ff ff ff 7f  add    QWORD PTR [r13+0x7fffffff],r15
   100403de5: 49 81 c6 ff ff ff 7f  add    r14,0x7fffffff
   100403dec: 49 01 c6              add    r14,rax
   100403def: 4c 03 30              add    r14,QWORD PTR [rax]
   100403df2: 49 01 06              add    QWORD PTR [r14],rax
   100403df5: 4c 03 b0 ff ff ff 7f  add    r14,QWORD PTR [rax+0x7fffffff]
   100403dfc: 49 01 86 ff ff ff 7f  add    QWORD PTR [r14+0x7fffffff],rax
   100403e03: 49 01 ce              add    r14,rcx
   100403e06: 4c 03 31              add    r14,QWORD PTR [rcx]
   100403e09: 49 01 0e              add    QWORD PTR [r14],rcx
   100403e0c: 4c 03 b1 ff ff ff 7f  add    r14,QWORD PTR [rcx+0x7fffffff]
   100403e13: 49 01 8e ff ff ff 7f  add    QWORD PTR [r14+0x7fffffff],rcx
   100403e1a: 49 01 d6              add    r14,rdx
   100403e1d: 4c 03 32              add    r14,QWORD PTR [rdx]
   100403e20: 49 01 16              add    QWORD PTR [r14],rdx
   100403e23: 4c 03 b2 ff ff ff 7f  add    r14,QWORD PTR [rdx+0x7fffffff]
   100403e2a: 49 01 96 ff ff ff 7f  add    QWORD PTR [r14+0x7fffffff],rdx
   100403e31: 49 01 de              add    r14,rbx
   100403e34: 4c 03 33              add    r14,QWORD PTR [rbx]
   100403e37: 49 01 1e              add    QWORD PTR [r14],rbx
   100403e3a: 4c 03 b3 ff ff ff 7f  add    r14,QWORD PTR [rbx+0x7fffffff]
   100403e41: 49 01 9e ff ff ff 7f  add    QWORD PTR [r14+0x7fffffff],rbx
   100403e48: 49 01 e6              add    r14,rsp
   100403e4b: 4c 03 34 24           add    r14,QWORD PTR [rsp]
   100403e4f: 49 01 26              add    QWORD PTR [r14],rsp
   100403e52: 4c 03 b4 24 ff ff ff 7f   add    r14,QWORD PTR [rsp+0x7fffffff]
   100403e5a: 49 01 a6 ff ff ff 7f  add    QWORD PTR [r14+0x7fffffff],rsp
   100403e61: 49 01 ee              add    r14,rbp
   100403e64: 4c 03 75 00           add    r14,QWORD PTR [rbp+0x0]
   100403e68: 49 01 2e              add    QWORD PTR [r14],rbp
   100403e6b: 4c 03 b5 ff ff ff 7f  add    r14,QWORD PTR [rbp+0x7fffffff]
   100403e72: 49 01 ae ff ff ff 7f  add    QWORD PTR [r14+0x7fffffff],rbp
   100403e79: 49 01 f6              add    r14,rsi
   100403e7c: 4c 03 36              add    r14,QWORD PTR [rsi]
   100403e7f: 49 01 36              add    QWORD PTR [r14],rsi
   100403e82: 4c 03 b6 ff ff ff 7f  add    r14,QWORD PTR [rsi+0x7fffffff]
   100403e89: 49 01 b6 ff ff ff 7f  add    QWORD PTR [r14+0x7fffffff],rsi
   100403e90: 49 01 fe              add    r14,rdi
   100403e93: 4c 03 37              add    r14,QWORD PTR [rdi]
   100403e96: 49 01 3e              add    QWORD PTR [r14],rdi
   100403e99: 4c 03 b7 ff ff ff 7f  add    r14,QWORD PTR [rdi+0x7fffffff]
   100403ea0: 49 01 be ff ff ff 7f  add    QWORD PTR [r14+0x7fffffff],rdi
   100403ea7: 4d 01 c6              add    r14,r8
   100403eaa: 4d 03 30              add    r14,QWORD PTR [r8]
   100403ead: 4d 01 06              add    QWORD PTR [r14],r8
   100403eb0: 4d 03 b0 ff ff ff 7f  add    r14,QWORD PTR [r8+0x7fffffff]
   100403eb7: 4d 01 86 ff ff ff 7f  add    QWORD PTR [r14+0x7fffffff],r8
   100403ebe: 4d 01 ce              add    r14,r9
   100403ec1: 4d 03 31              add    r14,QWORD PTR [r9]
   100403ec4: 4d 01 0e              add    QWORD PTR [r14],r9
   100403ec7: 4d 03 b1 ff ff ff 7f  add    r14,QWORD PTR [r9+0x7fffffff]
   100403ece: 4d 01 8e ff ff ff 7f  add    QWORD PTR [r14+0x7fffffff],r9
   100403ed5: 4d 01 d6              add    r14,r10
   100403ed8: 4d 03 32              add    r14,QWORD PTR [r10]
   100403edb: 4d 01 16              add    QWORD PTR [r14],r10
   100403ede: 4d 03 b2 ff ff ff 7f  add    r14,QWORD PTR [r10+0x7fffffff]
   100403ee5: 4d 01 96 ff ff ff 7f  add    QWORD PTR [r14+0x7fffffff],r10
   100403eec: 4d 01 de              add    r14,r11
   100403eef: 4d 03 33              add    r14,QWORD PTR [r11]
   100403ef2: 4d 01 1e              add    QWORD PTR [r14],r11
   100403ef5: 4d 03 b3 ff ff ff 7f  add    r14,QWORD PTR [r11+0x7fffffff]
   100403efc: 4d 01 9e ff ff ff 7f  add    QWORD PTR [r14+0x7fffffff],r11
   100403f03: 4d 01 e6              add    r14,r12
   100403f06: 4d 03 34 24           add    r14,QWORD PTR [r12]
   100403f0a: 4d 01 26              add    QWORD PTR [r14],r12
   100403f0d: 4d 03 b4 24 ff ff ff 7f   add    r14,QWORD PTR [r12+0x7fffffff]
   100403f15: 4d 01 a6 ff ff ff 7f  add    QWORD PTR [r14+0x7fffffff],r12
   100403f1c: 4d 01 ee              add    r14,r13
   100403f1f: 4d 03 75 00           add    r14,QWORD PTR [r13+0x0]
   100403f23: 4d 01 2e              add    QWORD PTR [r14],r13
   100403f26: 4d 03 b5 ff ff ff 7f  add    r14,QWORD PTR [r13+0x7fffffff]
   100403f2d: 4d 01 ae ff ff ff 7f  add    QWORD PTR [r14+0x7fffffff],r13
   100403f34: 4d 01 f6              add    r14,r14
   100403f37: 4d 03 36              add    r14,QWORD PTR [r14]
   100403f3a: 4d 01 36              add    QWORD PTR [r14],r14
   100403f3d: 4d 03 b6 ff ff ff 7f  add    r14,QWORD PTR [r14+0x7fffffff]
   100403f44: 4d 01 b6 ff ff ff 7f  add    QWORD PTR [r14+0x7fffffff],r14
   100403f4b: 4d 01 fe              add    r14,r15
   100403f4e: 4d 03 37              add    r14,QWORD PTR [r15]
   100403f51: 4d 01 3e              add    QWORD PTR [r14],r15
   100403f54: 4d 03 b7 ff ff ff 7f  add    r14,QWORD PTR [r15+0x7fffffff]
   100403f5b: 4d 01 be ff ff ff 7f  add    QWORD PTR [r14+0x7fffffff],r15
   100403f62: 49 81 c7 ff ff ff 7f  add    r15,0x7fffffff
   100403f69: 49 01 c7              add    r15,rax
   100403f6c: 4c 03 38              add    r15,QWORD PTR [rax]
   100403f6f: 49 01 07              add    QWORD PTR [r15],rax
   100403f72: 4c 03 b8 ff ff ff 7f  add    r15,QWORD PTR [rax+0x7fffffff]
   100403f79: 49 01 87 ff ff ff 7f  add    QWORD PTR [r15+0x7fffffff],rax
   100403f80: 49 01 cf              add    r15,rcx
   100403f83: 4c 03 39              add    r15,QWORD PTR [rcx]
   100403f86: 49 01 0f              add    QWORD PTR [r15],rcx
   100403f89: 4c 03 b9 ff ff ff 7f  add    r15,QWORD PTR [rcx+0x7fffffff]
   100403f90: 49 01 8f ff ff ff 7f  add    QWORD PTR [r15+0x7fffffff],rcx
   100403f97: 49 01 d7              add    r15,rdx
   100403f9a: 4c 03 3a              add    r15,QWORD PTR [rdx]
   100403f9d: 49 01 17              add    QWORD PTR [r15],rdx
   100403fa0: 4c 03 ba ff ff ff 7f  add    r15,QWORD PTR [rdx+0x7fffffff]
   100403fa7: 49 01 97 ff ff ff 7f  add    QWORD PTR [r15+0x7fffffff],rdx
   100403fae: 49 01 df              add    r15,rbx
   100403fb1: 4c 03 3b              add    r15,QWORD PTR [rbx]
   100403fb4: 49 01 1f              add    QWORD PTR [r15],rbx
   100403fb7: 4c 03 bb ff ff ff 7f  add    r15,QWORD PTR [rbx+0x7fffffff]
   100403fbe: 49 01 9f ff ff ff 7f  add    QWORD PTR [r15+0x7fffffff],rbx
   100403fc5: 49 01 e7              add    r15,rsp
   100403fc8: 4c 03 3c 24           add    r15,QWORD PTR [rsp]
   100403fcc: 49 01 27              add    QWORD PTR [r15],rsp
   100403fcf: 4c 03 bc 24 ff ff ff 7f   add    r15,QWORD PTR [rsp+0x7fffffff]
   100403fd7: 49 01 a7 ff ff ff 7f  add    QWORD PTR [r15+0x7fffffff],rsp
   100403fde: 49 01 ef              add    r15,rbp
   100403fe1: 4c 03 7d 00           add    r15,QWORD PTR [rbp+0x0]
   100403fe5: 49 01 2f              add    QWORD PTR [r15],rbp
   100403fe8: 4c 03 bd ff ff ff 7f  add    r15,QWORD PTR [rbp+0x7fffffff]
   100403fef: 49 01 af ff ff ff 7f  add    QWORD PTR [r15+0x7fffffff],rbp
   100403ff6: 49 01 f7              add    r15,rsi
   100403ff9: 4c 03 3e              add    r15,QWORD PTR [rsi]
   100403ffc: 49 01 37              add    QWORD PTR [r15],rsi
   100403fff: 4c 03 be ff ff ff 7f  add    r15,QWORD PTR [rsi+0x7fffffff]
   100404006: 49 01 b7 ff ff ff 7f  add    QWORD PTR [r15+0x7fffffff],rsi
   10040400d: 49 01 ff              add    r15,rdi
   100404010: 4c 03 3f              add    r15,QWORD PTR [rdi]
   100404013: 49 01 3f              add    QWORD PTR [r15],rdi
   100404016: 4c 03 bf ff ff ff 7f  add    r15,QWORD PTR [rdi+0x7fffffff]
   10040401d: 49 01 bf ff ff ff 7f  add    QWORD PTR [r15+0x7fffffff],rdi
   100404024: 4d 01 c7              add    r15,r8
   100404027: 4d 03 38              add    r15,QWORD PTR [r8]
   10040402a: 4d 01 07              add    QWORD PTR [r15],r8
   10040402d: 4d 03 b8 ff ff ff 7f  add    r15,QWORD PTR [r8+0x7fffffff]
   100404034: 4d 01 87 ff ff ff 7f  add    QWORD PTR [r15+0x7fffffff],r8
   10040403b: 4d 01 cf              add    r15,r9
   10040403e: 4d 03 39              add    r15,QWORD PTR [r9]
   100404041: 4d 01 0f              add    QWORD PTR [r15],r9
   100404044: 4d 03 b9 ff ff ff 7f  add    r15,QWORD PTR [r9+0x7fffffff]
   10040404b: 4d 01 8f ff ff ff 7f  add    QWORD PTR [r15+0x7fffffff],r9
   100404052: 4d 01 d7              add    r15,r10
   100404055: 4d 03 3a              add    r15,QWORD PTR [r10]
   100404058: 4d 01 17              add    QWORD PTR [r15],r10
   10040405b: 4d 03 ba ff ff ff 7f  add    r15,QWORD PTR [r10+0x7fffffff]
   100404062: 4d 01 97 ff ff ff 7f  add    QWORD PTR [r15+0x7fffffff],r10
   100404069: 4d 01 df              add    r15,r11
   10040406c: 4d 03 3b              add    r15,QWORD PTR [r11]
   10040406f: 4d 01 1f              add    QWORD PTR [r15],r11
   100404072: 4d 03 bb ff ff ff 7f  add    r15,QWORD PTR [r11+0x7fffffff]
   100404079: 4d 01 9f ff ff ff 7f  add    QWORD PTR [r15+0x7fffffff],r11
   100404080: 4d 01 e7              add    r15,r12
   100404083: 4d 03 3c 24           add    r15,QWORD PTR [r12]
   100404087: 4d 01 27              add    QWORD PTR [r15],r12
   10040408a: 4d 03 bc 24 ff ff ff 7f   add    r15,QWORD PTR [r12+0x7fffffff]
   100404092: 4d 01 a7 ff ff ff 7f  add    QWORD PTR [r15+0x7fffffff],r12
   100404099: 4d 01 ef              add    r15,r13
   10040409c: 4d 03 7d 00           add    r15,QWORD PTR [r13+0x0]
   1004040a0: 4d 01 2f              add    QWORD PTR [r15],r13
   1004040a3: 4d 03 bd ff ff ff 7f  add    r15,QWORD PTR [r13+0x7fffffff]
   1004040aa: 4d 01 af ff ff ff 7f  add    QWORD PTR [r15+0x7fffffff],r13
   1004040b1: 4d 01 f7              add    r15,r14
   1004040b4: 4d 03 3e              add    r15,QWORD PTR [r14]
   1004040b7: 4d 01 37              add    QWORD PTR [r15],r14
   1004040ba: 4d 03 be ff ff ff 7f  add    r15,QWORD PTR [r14+0x7fffffff]
   1004040c1: 4d 01 b7 ff ff ff 7f  add    QWORD PTR [r15+0x7fffffff],r14
   1004040c8: 4d 01 ff              add    r15,r15
   1004040cb: 4d 03 3f              add    r15,QWORD PTR [r15]
   1004040ce: 4d 01 3f              add    QWORD PTR [r15],r15
   1004040d1: 4d 03 bf ff ff ff 7f  add    r15,QWORD PTR [r15+0x7fffffff]
   1004040d8: 4d 01 bf ff ff ff 7f  add    QWORD PTR [r15+0x7fffffff],r15
   1004040df: 48 0d ff ff ff 7f     or     rax,0x7fffffff
   1004040e5: 48 09 c0              or     rax,rax
   1004040e8: 48 0b 00              or     rax,QWORD PTR [rax]
   1004040eb: 48 09 00              or     QWORD PTR [rax],rax
   1004040ee: 48 0b 80 ff ff ff 7f  or     rax,QWORD PTR [rax+0x7fffffff]
   1004040f5: 48 09 80 ff ff ff 7f  or     QWORD PTR [rax+0x7fffffff],rax
   1004040fc: 48 09 c8              or     rax,rcx
   1004040ff: 48 0b 01              or     rax,QWORD PTR [rcx]
   100404102: 48 09 08              or     QWORD PTR [rax],rcx
   100404105: 48 0b 81 ff ff ff 7f  or     rax,QWORD PTR [rcx+0x7fffffff]
   10040410c: 48 09 88 ff ff ff 7f  or     QWORD PTR [rax+0x7fffffff],rcx
   100404113: 48 09 d0              or     rax,rdx
   100404116: 48 0b 02              or     rax,QWORD PTR [rdx]
   100404119: 48 09 10              or     QWORD PTR [rax],rdx
   10040411c: 48 0b 82 ff ff ff 7f  or     rax,QWORD PTR [rdx+0x7fffffff]
   100404123: 48 09 90 ff ff ff 7f  or     QWORD PTR [rax+0x7fffffff],rdx
   10040412a: 48 09 d8              or     rax,rbx
   10040412d: 48 0b 03              or     rax,QWORD PTR [rbx]
   100404130: 48 09 18              or     QWORD PTR [rax],rbx
   100404133: 48 0b 83 ff ff ff 7f  or     rax,QWORD PTR [rbx+0x7fffffff]
   10040413a: 48 09 98 ff ff ff 7f  or     QWORD PTR [rax+0x7fffffff],rbx
   100404141: 48 09 e0              or     rax,rsp
   100404144: 48 0b 04 24           or     rax,QWORD PTR [rsp]
   100404148: 48 09 20              or     QWORD PTR [rax],rsp
   10040414b: 48 0b 84 24 ff ff ff 7f   or     rax,QWORD PTR [rsp+0x7fffffff]
   100404153: 48 09 a0 ff ff ff 7f  or     QWORD PTR [rax+0x7fffffff],rsp
   10040415a: 48 09 e8              or     rax,rbp
   10040415d: 48 0b 45 00           or     rax,QWORD PTR [rbp+0x0]
   100404161: 48 09 28              or     QWORD PTR [rax],rbp
   100404164: 48 0b 85 ff ff ff 7f  or     rax,QWORD PTR [rbp+0x7fffffff]
   10040416b: 48 09 a8 ff ff ff 7f  or     QWORD PTR [rax+0x7fffffff],rbp
   100404172: 48 09 f0              or     rax,rsi
   100404175: 48 0b 06              or     rax,QWORD PTR [rsi]
   100404178: 48 09 30              or     QWORD PTR [rax],rsi
   10040417b: 48 0b 86 ff ff ff 7f  or     rax,QWORD PTR [rsi+0x7fffffff]
   100404182: 48 09 b0 ff ff ff 7f  or     QWORD PTR [rax+0x7fffffff],rsi
   100404189: 48 09 f8              or     rax,rdi
   10040418c: 48 0b 07              or     rax,QWORD PTR [rdi]
   10040418f: 48 09 38              or     QWORD PTR [rax],rdi
   100404192: 48 0b 87 ff ff ff 7f  or     rax,QWORD PTR [rdi+0x7fffffff]
   100404199: 48 09 b8 ff ff ff 7f  or     QWORD PTR [rax+0x7fffffff],rdi
   1004041a0: 4c 09 c0              or     rax,r8
   1004041a3: 49 0b 00              or     rax,QWORD PTR [r8]
   1004041a6: 4c 09 00              or     QWORD PTR [rax],r8
   1004041a9: 49 0b 80 ff ff ff 7f  or     rax,QWORD PTR [r8+0x7fffffff]
   1004041b0: 4c 09 80 ff ff ff 7f  or     QWORD PTR [rax+0x7fffffff],r8
   1004041b7: 4c 09 c8              or     rax,r9
   1004041ba: 49 0b 01              or     rax,QWORD PTR [r9]
   1004041bd: 4c 09 08              or     QWORD PTR [rax],r9
   1004041c0: 49 0b 81 ff ff ff 7f  or     rax,QWORD PTR [r9+0x7fffffff]
   1004041c7: 4c 09 88 ff ff ff 7f  or     QWORD PTR [rax+0x7fffffff],r9
   1004041ce: 4c 09 d0              or     rax,r10
   1004041d1: 49 0b 02              or     rax,QWORD PTR [r10]
   1004041d4: 4c 09 10              or     QWORD PTR [rax],r10
   1004041d7: 49 0b 82 ff ff ff 7f  or     rax,QWORD PTR [r10+0x7fffffff]
   1004041de: 4c 09 90 ff ff ff 7f  or     QWORD PTR [rax+0x7fffffff],r10
   1004041e5: 4c 09 d8              or     rax,r11
   1004041e8: 49 0b 03              or     rax,QWORD PTR [r11]
   1004041eb: 4c 09 18              or     QWORD PTR [rax],r11
   1004041ee: 49 0b 83 ff ff ff 7f  or     rax,QWORD PTR [r11+0x7fffffff]
   1004041f5: 4c 09 98 ff ff ff 7f  or     QWORD PTR [rax+0x7fffffff],r11
   1004041fc: 4c 09 e0              or     rax,r12
   1004041ff: 49 0b 04 24           or     rax,QWORD PTR [r12]
   100404203: 4c 09 20              or     QWORD PTR [rax],r12
   100404206: 49 0b 84 24 ff ff ff 7f   or     rax,QWORD PTR [r12+0x7fffffff]
   10040420e: 4c 09 a0 ff ff ff 7f  or     QWORD PTR [rax+0x7fffffff],r12
   100404215: 4c 09 e8              or     rax,r13
   100404218: 49 0b 45 00           or     rax,QWORD PTR [r13+0x0]
   10040421c: 4c 09 28              or     QWORD PTR [rax],r13
   10040421f: 49 0b 85 ff ff ff 7f  or     rax,QWORD PTR [r13+0x7fffffff]
   100404226: 4c 09 a8 ff ff ff 7f  or     QWORD PTR [rax+0x7fffffff],r13
   10040422d: 4c 09 f0              or     rax,r14
   100404230: 49 0b 06              or     rax,QWORD PTR [r14]
   100404233: 4c 09 30              or     QWORD PTR [rax],r14
   100404236: 49 0b 86 ff ff ff 7f  or     rax,QWORD PTR [r14+0x7fffffff]
   10040423d: 4c 09 b0 ff ff ff 7f  or     QWORD PTR [rax+0x7fffffff],r14
   100404244: 4c 09 f8              or     rax,r15
   100404247: 49 0b 07              or     rax,QWORD PTR [r15]
   10040424a: 4c 09 38              or     QWORD PTR [rax],r15
   10040424d: 49 0b 87 ff ff ff 7f  or     rax,QWORD PTR [r15+0x7fffffff]
   100404254: 4c 09 b8 ff ff ff 7f  or     QWORD PTR [rax+0x7fffffff],r15
   10040425b: 48 81 c9 ff ff ff 7f  or     rcx,0x7fffffff
   100404262: 48 09 c1              or     rcx,rax
   100404265: 48 0b 08              or     rcx,QWORD PTR [rax]
   100404268: 48 09 01              or     QWORD PTR [rcx],rax
   10040426b: 48 0b 88 ff ff ff 7f  or     rcx,QWORD PTR [rax+0x7fffffff]
   100404272: 48 09 81 ff ff ff 7f  or     QWORD PTR [rcx+0x7fffffff],rax
   100404279: 48 09 c9              or     rcx,rcx
   10040427c: 48 0b 09              or     rcx,QWORD PTR [rcx]
   10040427f: 48 09 09              or     QWORD PTR [rcx],rcx
   100404282: 48 0b 89 ff ff ff 7f  or     rcx,QWORD PTR [rcx+0x7fffffff]
   100404289: 48 09 89 ff ff ff 7f  or     QWORD PTR [rcx+0x7fffffff],rcx
   100404290: 48 09 d1              or     rcx,rdx
   100404293: 48 0b 0a              or     rcx,QWORD PTR [rdx]
   100404296: 48 09 11              or     QWORD PTR [rcx],rdx
   100404299: 48 0b 8a ff ff ff 7f  or     rcx,QWORD PTR [rdx+0x7fffffff]
   1004042a0: 48 09 91 ff ff ff 7f  or     QWORD PTR [rcx+0x7fffffff],rdx
   1004042a7: 48 09 d9              or     rcx,rbx
   1004042aa: 48 0b 0b              or     rcx,QWORD PTR [rbx]
   1004042ad: 48 09 19              or     QWORD PTR [rcx],rbx
   1004042b0: 48 0b 8b ff ff ff 7f  or     rcx,QWORD PTR [rbx+0x7fffffff]
   1004042b7: 48 09 99 ff ff ff 7f  or     QWORD PTR [rcx+0x7fffffff],rbx
   1004042be: 48 09 e1              or     rcx,rsp
   1004042c1: 48 0b 0c 24           or     rcx,QWORD PTR [rsp]
   1004042c5: 48 09 21              or     QWORD PTR [rcx],rsp
   1004042c8: 48 0b 8c 24 ff ff ff 7f   or     rcx,QWORD PTR [rsp+0x7fffffff]
   1004042d0: 48 09 a1 ff ff ff 7f  or     QWORD PTR [rcx+0x7fffffff],rsp
   1004042d7: 48 09 e9              or     rcx,rbp
   1004042da: 48 0b 4d 00           or     rcx,QWORD PTR [rbp+0x0]
   1004042de: 48 09 29              or     QWORD PTR [rcx],rbp
   1004042e1: 48 0b 8d ff ff ff 7f  or     rcx,QWORD PTR [rbp+0x7fffffff]
   1004042e8: 48 09 a9 ff ff ff 7f  or     QWORD PTR [rcx+0x7fffffff],rbp
   1004042ef: 48 09 f1              or     rcx,rsi
   1004042f2: 48 0b 0e              or     rcx,QWORD PTR [rsi]
   1004042f5: 48 09 31              or     QWORD PTR [rcx],rsi
   1004042f8: 48 0b 8e ff ff ff 7f  or     rcx,QWORD PTR [rsi+0x7fffffff]
   1004042ff: 48 09 b1 ff ff ff 7f  or     QWORD PTR [rcx+0x7fffffff],rsi
   100404306: 48 09 f9              or     rcx,rdi
   100404309: 48 0b 0f              or     rcx,QWORD PTR [rdi]
   10040430c: 48 09 39              or     QWORD PTR [rcx],rdi
   10040430f: 48 0b 8f ff ff ff 7f  or     rcx,QWORD PTR [rdi+0x7fffffff]
   100404316: 48 09 b9 ff ff ff 7f  or     QWORD PTR [rcx+0x7fffffff],rdi
   10040431d: 4c 09 c1              or     rcx,r8
   100404320: 49 0b 08              or     rcx,QWORD PTR [r8]
   100404323: 4c 09 01              or     QWORD PTR [rcx],r8
   100404326: 49 0b 88 ff ff ff 7f  or     rcx,QWORD PTR [r8+0x7fffffff]
   10040432d: 4c 09 81 ff ff ff 7f  or     QWORD PTR [rcx+0x7fffffff],r8
   100404334: 4c 09 c9              or     rcx,r9
   100404337: 49 0b 09              or     rcx,QWORD PTR [r9]
   10040433a: 4c 09 09              or     QWORD PTR [rcx],r9
   10040433d: 49 0b 89 ff ff ff 7f  or     rcx,QWORD PTR [r9+0x7fffffff]
   100404344: 4c 09 89 ff ff ff 7f  or     QWORD PTR [rcx+0x7fffffff],r9
   10040434b: 4c 09 d1              or     rcx,r10
   10040434e: 49 0b 0a              or     rcx,QWORD PTR [r10]
   100404351: 4c 09 11              or     QWORD PTR [rcx],r10
   100404354: 49 0b 8a ff ff ff 7f  or     rcx,QWORD PTR [r10+0x7fffffff]
   10040435b: 4c 09 91 ff ff ff 7f  or     QWORD PTR [rcx+0x7fffffff],r10
   100404362: 4c 09 d9              or     rcx,r11
   100404365: 49 0b 0b              or     rcx,QWORD PTR [r11]
   100404368: 4c 09 19              or     QWORD PTR [rcx],r11
   10040436b: 49 0b 8b ff ff ff 7f  or     rcx,QWORD PTR [r11+0x7fffffff]
   100404372: 4c 09 99 ff ff ff 7f  or     QWORD PTR [rcx+0x7fffffff],r11
   100404379: 4c 09 e1              or     rcx,r12
   10040437c: 49 0b 0c 24           or     rcx,QWORD PTR [r12]
   100404380: 4c 09 21              or     QWORD PTR [rcx],r12
   100404383: 49 0b 8c 24 ff ff ff 7f   or     rcx,QWORD PTR [r12+0x7fffffff]
   10040438b: 4c 09 a1 ff ff ff 7f  or     QWORD PTR [rcx+0x7fffffff],r12
   100404392: 4c 09 e9              or     rcx,r13
   100404395: 49 0b 4d 00           or     rcx,QWORD PTR [r13+0x0]
   100404399: 4c 09 29              or     QWORD PTR [rcx],r13
   10040439c: 49 0b 8d ff ff ff 7f  or     rcx,QWORD PTR [r13+0x7fffffff]
   1004043a3: 4c 09 a9 ff ff ff 7f  or     QWORD PTR [rcx+0x7fffffff],r13
   1004043aa: 4c 09 f1              or     rcx,r14
   1004043ad: 49 0b 0e              or     rcx,QWORD PTR [r14]
   1004043b0: 4c 09 31              or     QWORD PTR [rcx],r14
   1004043b3: 49 0b 8e ff ff ff 7f  or     rcx,QWORD PTR [r14+0x7fffffff]
   1004043ba: 4c 09 b1 ff ff ff 7f  or     QWORD PTR [rcx+0x7fffffff],r14
   1004043c1: 4c 09 f9              or     rcx,r15
   1004043c4: 49 0b 0f              or     rcx,QWORD PTR [r15]
   1004043c7: 4c 09 39              or     QWORD PTR [rcx],r15
   1004043ca: 49 0b 8f ff ff ff 7f  or     rcx,QWORD PTR [r15+0x7fffffff]
   1004043d1: 4c 09 b9 ff ff ff 7f  or     QWORD PTR [rcx+0x7fffffff],r15
   1004043d8: 48 81 ca ff ff ff 7f  or     rdx,0x7fffffff
   1004043df: 48 09 c2              or     rdx,rax
   1004043e2: 48 0b 10              or     rdx,QWORD PTR [rax]
   1004043e5: 48 09 02              or     QWORD PTR [rdx],rax
   1004043e8: 48 0b 90 ff ff ff 7f  or     rdx,QWORD PTR [rax+0x7fffffff]
   1004043ef: 48 09 82 ff ff ff 7f  or     QWORD PTR [rdx+0x7fffffff],rax
   1004043f6: 48 09 ca              or     rdx,rcx
   1004043f9: 48 0b 11              or     rdx,QWORD PTR [rcx]
   1004043fc: 48 09 0a              or     QWORD PTR [rdx],rcx
   1004043ff: 48 0b 91 ff ff ff 7f  or     rdx,QWORD PTR [rcx+0x7fffffff]
   100404406: 48 09 8a ff ff ff 7f  or     QWORD PTR [rdx+0x7fffffff],rcx
   10040440d: 48 09 d2              or     rdx,rdx
   100404410: 48 0b 12              or     rdx,QWORD PTR [rdx]
   100404413: 48 09 12              or     QWORD PTR [rdx],rdx
   100404416: 48 0b 92 ff ff ff 7f  or     rdx,QWORD PTR [rdx+0x7fffffff]
   10040441d: 48 09 92 ff ff ff 7f  or     QWORD PTR [rdx+0x7fffffff],rdx
   100404424: 48 09 da              or     rdx,rbx
   100404427: 48 0b 13              or     rdx,QWORD PTR [rbx]
   10040442a: 48 09 1a              or     QWORD PTR [rdx],rbx
   10040442d: 48 0b 93 ff ff ff 7f  or     rdx,QWORD PTR [rbx+0x7fffffff]
   100404434: 48 09 9a ff ff ff 7f  or     QWORD PTR [rdx+0x7fffffff],rbx
   10040443b: 48 09 e2              or     rdx,rsp
   10040443e: 48 0b 14 24           or     rdx,QWORD PTR [rsp]
   100404442: 48 09 22              or     QWORD PTR [rdx],rsp
   100404445: 48 0b 94 24 ff ff ff 7f   or     rdx,QWORD PTR [rsp+0x7fffffff]
   10040444d: 48 09 a2 ff ff ff 7f  or     QWORD PTR [rdx+0x7fffffff],rsp
   100404454: 48 09 ea              or     rdx,rbp
   100404457: 48 0b 55 00           or     rdx,QWORD PTR [rbp+0x0]
   10040445b: 48 09 2a              or     QWORD PTR [rdx],rbp
   10040445e: 48 0b 95 ff ff ff 7f  or     rdx,QWORD PTR [rbp+0x7fffffff]
   100404465: 48 09 aa ff ff ff 7f  or     QWORD PTR [rdx+0x7fffffff],rbp
   10040446c: 48 09 f2              or     rdx,rsi
   10040446f: 48 0b 16              or     rdx,QWORD PTR [rsi]
   100404472: 48 09 32              or     QWORD PTR [rdx],rsi
   100404475: 48 0b 96 ff ff ff 7f  or     rdx,QWORD PTR [rsi+0x7fffffff]
   10040447c: 48 09 b2 ff ff ff 7f  or     QWORD PTR [rdx+0x7fffffff],rsi
   100404483: 48 09 fa              or     rdx,rdi
   100404486: 48 0b 17              or     rdx,QWORD PTR [rdi]
   100404489: 48 09 3a              or     QWORD PTR [rdx],rdi
   10040448c: 48 0b 97 ff ff ff 7f  or     rdx,QWORD PTR [rdi+0x7fffffff]
   100404493: 48 09 ba ff ff ff 7f  or     QWORD PTR [rdx+0x7fffffff],rdi
   10040449a: 4c 09 c2              or     rdx,r8
   10040449d: 49 0b 10              or     rdx,QWORD PTR [r8]
   1004044a0: 4c 09 02              or     QWORD PTR [rdx],r8
   1004044a3: 49 0b 90 ff ff ff 7f  or     rdx,QWORD PTR [r8+0x7fffffff]
   1004044aa: 4c 09 82 ff ff ff 7f  or     QWORD PTR [rdx+0x7fffffff],r8
   1004044b1: 4c 09 ca              or     rdx,r9
   1004044b4: 49 0b 11              or     rdx,QWORD PTR [r9]
   1004044b7: 4c 09 0a              or     QWORD PTR [rdx],r9
   1004044ba: 49 0b 91 ff ff ff 7f  or     rdx,QWORD PTR [r9+0x7fffffff]
   1004044c1: 4c 09 8a ff ff ff 7f  or     QWORD PTR [rdx+0x7fffffff],r9
   1004044c8: 4c 09 d2              or     rdx,r10
   1004044cb: 49 0b 12              or     rdx,QWORD PTR [r10]
   1004044ce: 4c 09 12              or     QWORD PTR [rdx],r10
   1004044d1: 49 0b 92 ff ff ff 7f  or     rdx,QWORD PTR [r10+0x7fffffff]
   1004044d8: 4c 09 92 ff ff ff 7f  or     QWORD PTR [rdx+0x7fffffff],r10
   1004044df: 4c 09 da              or     rdx,r11
   1004044e2: 49 0b 13              or     rdx,QWORD PTR [r11]
   1004044e5: 4c 09 1a              or     QWORD PTR [rdx],r11
   1004044e8: 49 0b 93 ff ff ff 7f  or     rdx,QWORD PTR [r11+0x7fffffff]
   1004044ef: 4c 09 9a ff ff ff 7f  or     QWORD PTR [rdx+0x7fffffff],r11
   1004044f6: 4c 09 e2              or     rdx,r12
   1004044f9: 49 0b 14 24           or     rdx,QWORD PTR [r12]
   1004044fd: 4c 09 22              or     QWORD PTR [rdx],r12
   100404500: 49 0b 94 24 ff ff ff 7f   or     rdx,QWORD PTR [r12+0x7fffffff]
   100404508: 4c 09 a2 ff ff ff 7f  or     QWORD PTR [rdx+0x7fffffff],r12
   10040450f: 4c 09 ea              or     rdx,r13
   100404512: 49 0b 55 00           or     rdx,QWORD PTR [r13+0x0]
   100404516: 4c 09 2a              or     QWORD PTR [rdx],r13
   100404519: 49 0b 95 ff ff ff 7f  or     rdx,QWORD PTR [r13+0x7fffffff]
   100404520: 4c 09 aa ff ff ff 7f  or     QWORD PTR [rdx+0x7fffffff],r13
   100404527: 4c 09 f2              or     rdx,r14
   10040452a: 49 0b 16              or     rdx,QWORD PTR [r14]
   10040452d: 4c 09 32              or     QWORD PTR [rdx],r14
   100404530: 49 0b 96 ff ff ff 7f  or     rdx,QWORD PTR [r14+0x7fffffff]
   100404537: 4c 09 b2 ff ff ff 7f  or     QWORD PTR [rdx+0x7fffffff],r14
   10040453e: 4c 09 fa              or     rdx,r15
   100404541: 49 0b 17              or     rdx,QWORD PTR [r15]
   100404544: 4c 09 3a              or     QWORD PTR [rdx],r15
   100404547: 49 0b 97 ff ff ff 7f  or     rdx,QWORD PTR [r15+0x7fffffff]
   10040454e: 4c 09 ba ff ff ff 7f  or     QWORD PTR [rdx+0x7fffffff],r15
   100404555: 48 81 cb ff ff ff 7f  or     rbx,0x7fffffff
   10040455c: 48 09 c3              or     rbx,rax
   10040455f: 48 0b 18              or     rbx,QWORD PTR [rax]
   100404562: 48 09 03              or     QWORD PTR [rbx],rax
   100404565: 48 0b 98 ff ff ff 7f  or     rbx,QWORD PTR [rax+0x7fffffff]
   10040456c: 48 09 83 ff ff ff 7f  or     QWORD PTR [rbx+0x7fffffff],rax
   100404573: 48 09 cb              or     rbx,rcx
   100404576: 48 0b 19              or     rbx,QWORD PTR [rcx]
   100404579: 48 09 0b              or     QWORD PTR [rbx],rcx
   10040457c: 48 0b 99 ff ff ff 7f  or     rbx,QWORD PTR [rcx+0x7fffffff]
   100404583: 48 09 8b ff ff ff 7f  or     QWORD PTR [rbx+0x7fffffff],rcx
   10040458a: 48 09 d3              or     rbx,rdx
   10040458d: 48 0b 1a              or     rbx,QWORD PTR [rdx]
   100404590: 48 09 13              or     QWORD PTR [rbx],rdx
   100404593: 48 0b 9a ff ff ff 7f  or     rbx,QWORD PTR [rdx+0x7fffffff]
   10040459a: 48 09 93 ff ff ff 7f  or     QWORD PTR [rbx+0x7fffffff],rdx
   1004045a1: 48 09 db              or     rbx,rbx
   1004045a4: 48 0b 1b              or     rbx,QWORD PTR [rbx]
   1004045a7: 48 09 1b              or     QWORD PTR [rbx],rbx
   1004045aa: 48 0b 9b ff ff ff 7f  or     rbx,QWORD PTR [rbx+0x7fffffff]
   1004045b1: 48 09 9b ff ff ff 7f  or     QWORD PTR [rbx+0x7fffffff],rbx
   1004045b8: 48 09 e3              or     rbx,rsp
   1004045bb: 48 0b 1c 24           or     rbx,QWORD PTR [rsp]
   1004045bf: 48 09 23              or     QWORD PTR [rbx],rsp
   1004045c2: 48 0b 9c 24 ff ff ff 7f   or     rbx,QWORD PTR [rsp+0x7fffffff]
   1004045ca: 48 09 a3 ff ff ff 7f  or     QWORD PTR [rbx+0x7fffffff],rsp
   1004045d1: 48 09 eb              or     rbx,rbp
   1004045d4: 48 0b 5d 00           or     rbx,QWORD PTR [rbp+0x0]
   1004045d8: 48 09 2b              or     QWORD PTR [rbx],rbp
   1004045db: 48 0b 9d ff ff ff 7f  or     rbx,QWORD PTR [rbp+0x7fffffff]
   1004045e2: 48 09 ab ff ff ff 7f  or     QWORD PTR [rbx+0x7fffffff],rbp
   1004045e9: 48 09 f3              or     rbx,rsi
   1004045ec: 48 0b 1e              or     rbx,QWORD PTR [rsi]
   1004045ef: 48 09 33              or     QWORD PTR [rbx],rsi
   1004045f2: 48 0b 9e ff ff ff 7f  or     rbx,QWORD PTR [rsi+0x7fffffff]
   1004045f9: 48 09 b3 ff ff ff 7f  or     QWORD PTR [rbx+0x7fffffff],rsi
   100404600: 48 09 fb              or     rbx,rdi
   100404603: 48 0b 1f              or     rbx,QWORD PTR [rdi]
   100404606: 48 09 3b              or     QWORD PTR [rbx],rdi
   100404609: 48 0b 9f ff ff ff 7f  or     rbx,QWORD PTR [rdi+0x7fffffff]
   100404610: 48 09 bb ff ff ff 7f  or     QWORD PTR [rbx+0x7fffffff],rdi
   100404617: 4c 09 c3              or     rbx,r8
   10040461a: 49 0b 18              or     rbx,QWORD PTR [r8]
   10040461d: 4c 09 03              or     QWORD PTR [rbx],r8
   100404620: 49 0b 98 ff ff ff 7f  or     rbx,QWORD PTR [r8+0x7fffffff]
   100404627: 4c 09 83 ff ff ff 7f  or     QWORD PTR [rbx+0x7fffffff],r8
   10040462e: 4c 09 cb              or     rbx,r9
   100404631: 49 0b 19              or     rbx,QWORD PTR [r9]
   100404634: 4c 09 0b              or     QWORD PTR [rbx],r9
   100404637: 49 0b 99 ff ff ff 7f  or     rbx,QWORD PTR [r9+0x7fffffff]
   10040463e: 4c 09 8b ff ff ff 7f  or     QWORD PTR [rbx+0x7fffffff],r9
   100404645: 4c 09 d3              or     rbx,r10
   100404648: 49 0b 1a              or     rbx,QWORD PTR [r10]
   10040464b: 4c 09 13              or     QWORD PTR [rbx],r10
   10040464e: 49 0b 9a ff ff ff 7f  or     rbx,QWORD PTR [r10+0x7fffffff]
   100404655: 4c 09 93 ff ff ff 7f  or     QWORD PTR [rbx+0x7fffffff],r10
   10040465c: 4c 09 db              or     rbx,r11
   10040465f: 49 0b 1b              or     rbx,QWORD PTR [r11]
   100404662: 4c 09 1b              or     QWORD PTR [rbx],r11
   100404665: 49 0b 9b ff ff ff 7f  or     rbx,QWORD PTR [r11+0x7fffffff]
   10040466c: 4c 09 9b ff ff ff 7f  or     QWORD PTR [rbx+0x7fffffff],r11
   100404673: 4c 09 e3              or     rbx,r12
   100404676: 49 0b 1c 24           or     rbx,QWORD PTR [r12]
   10040467a: 4c 09 23              or     QWORD PTR [rbx],r12
   10040467d: 49 0b 9c 24 ff ff ff 7f   or     rbx,QWORD PTR [r12+0x7fffffff]
   100404685: 4c 09 a3 ff ff ff 7f  or     QWORD PTR [rbx+0x7fffffff],r12
   10040468c: 4c 09 eb              or     rbx,r13
   10040468f: 49 0b 5d 00           or     rbx,QWORD PTR [r13+0x0]
   100404693: 4c 09 2b              or     QWORD PTR [rbx],r13
   100404696: 49 0b 9d ff ff ff 7f  or     rbx,QWORD PTR [r13+0x7fffffff]
   10040469d: 4c 09 ab ff ff ff 7f  or     QWORD PTR [rbx+0x7fffffff],r13
   1004046a4: 4c 09 f3              or     rbx,r14
   1004046a7: 49 0b 1e              or     rbx,QWORD PTR [r14]
   1004046aa: 4c 09 33              or     QWORD PTR [rbx],r14
   1004046ad: 49 0b 9e ff ff ff 7f  or     rbx,QWORD PTR [r14+0x7fffffff]
   1004046b4: 4c 09 b3 ff ff ff 7f  or     QWORD PTR [rbx+0x7fffffff],r14
   1004046bb: 4c 09 fb              or     rbx,r15
   1004046be: 49 0b 1f              or     rbx,QWORD PTR [r15]
   1004046c1: 4c 09 3b              or     QWORD PTR [rbx],r15
   1004046c4: 49 0b 9f ff ff ff 7f  or     rbx,QWORD PTR [r15+0x7fffffff]
   1004046cb: 4c 09 bb ff ff ff 7f  or     QWORD PTR [rbx+0x7fffffff],r15
   1004046d2: 48 81 cc ff ff ff 7f  or     rsp,0x7fffffff
   1004046d9: 48 09 c4              or     rsp,rax
   1004046dc: 48 0b 20              or     rsp,QWORD PTR [rax]
   1004046df: 48 09 04 24           or     QWORD PTR [rsp],rax
   1004046e3: 48 0b a0 ff ff ff 7f  or     rsp,QWORD PTR [rax+0x7fffffff]
   1004046ea: 48 09 84 24 ff ff ff 7f   or     QWORD PTR [rsp+0x7fffffff],rax
   1004046f2: 48 09 cc              or     rsp,rcx
   1004046f5: 48 0b 21              or     rsp,QWORD PTR [rcx]
   1004046f8: 48 09 0c 24           or     QWORD PTR [rsp],rcx
   1004046fc: 48 0b a1 ff ff ff 7f  or     rsp,QWORD PTR [rcx+0x7fffffff]
   100404703: 48 09 8c 24 ff ff ff 7f   or     QWORD PTR [rsp+0x7fffffff],rcx
   10040470b: 48 09 d4              or     rsp,rdx
   10040470e: 48 0b 22              or     rsp,QWORD PTR [rdx]
   100404711: 48 09 14 24           or     QWORD PTR [rsp],rdx
   100404715: 48 0b a2 ff ff ff 7f  or     rsp,QWORD PTR [rdx+0x7fffffff]
   10040471c: 48 09 94 24 ff ff ff 7f   or     QWORD PTR [rsp+0x7fffffff],rdx
   100404724: 48 09 dc              or     rsp,rbx
   100404727: 48 0b 23              or     rsp,QWORD PTR [rbx]
   10040472a: 48 09 1c 24           or     QWORD PTR [rsp],rbx
   10040472e: 48 0b a3 ff ff ff 7f  or     rsp,QWORD PTR [rbx+0x7fffffff]
   100404735: 48 09 9c 24 ff ff ff 7f   or     QWORD PTR [rsp+0x7fffffff],rbx
   10040473d: 48 09 e4              or     rsp,rsp
   100404740: 48 0b 24 24           or     rsp,QWORD PTR [rsp]
   100404744: 48 09 24 24           or     QWORD PTR [rsp],rsp
   100404748: 48 0b a4 24 ff ff ff 7f   or     rsp,QWORD PTR [rsp+0x7fffffff]
   100404750: 48 09 a4 24 ff ff ff 7f   or     QWORD PTR [rsp+0x7fffffff],rsp
   100404758: 48 09 ec              or     rsp,rbp
   10040475b: 48 0b 65 00           or     rsp,QWORD PTR [rbp+0x0]
   10040475f: 48 09 2c 24           or     QWORD PTR [rsp],rbp
   100404763: 48 0b a5 ff ff ff 7f  or     rsp,QWORD PTR [rbp+0x7fffffff]
   10040476a: 48 09 ac 24 ff ff ff 7f   or     QWORD PTR [rsp+0x7fffffff],rbp
   100404772: 48 09 f4              or     rsp,rsi
   100404775: 48 0b 26              or     rsp,QWORD PTR [rsi]
   100404778: 48 09 34 24           or     QWORD PTR [rsp],rsi
   10040477c: 48 0b a6 ff ff ff 7f  or     rsp,QWORD PTR [rsi+0x7fffffff]
   100404783: 48 09 b4 24 ff ff ff 7f   or     QWORD PTR [rsp+0x7fffffff],rsi
   10040478b: 48 09 fc              or     rsp,rdi
   10040478e: 48 0b 27              or     rsp,QWORD PTR [rdi]
   100404791: 48 09 3c 24           or     QWORD PTR [rsp],rdi
   100404795: 48 0b a7 ff ff ff 7f  or     rsp,QWORD PTR [rdi+0x7fffffff]
   10040479c: 48 09 bc 24 ff ff ff 7f   or     QWORD PTR [rsp+0x7fffffff],rdi
   1004047a4: 4c 09 c4              or     rsp,r8
   1004047a7: 49 0b 20              or     rsp,QWORD PTR [r8]
   1004047aa: 4c 09 04 24           or     QWORD PTR [rsp],r8
   1004047ae: 49 0b a0 ff ff ff 7f  or     rsp,QWORD PTR [r8+0x7fffffff]
   1004047b5: 4c 09 84 24 ff ff ff 7f   or     QWORD PTR [rsp+0x7fffffff],r8
   1004047bd: 4c 09 cc              or     rsp,r9
   1004047c0: 49 0b 21              or     rsp,QWORD PTR [r9]
   1004047c3: 4c 09 0c 24           or     QWORD PTR [rsp],r9
   1004047c7: 49 0b a1 ff ff ff 7f  or     rsp,QWORD PTR [r9+0x7fffffff]
   1004047ce: 4c 09 8c 24 ff ff ff 7f   or     QWORD PTR [rsp+0x7fffffff],r9
   1004047d6: 4c 09 d4              or     rsp,r10
   1004047d9: 49 0b 22              or     rsp,QWORD PTR [r10]
   1004047dc: 4c 09 14 24           or     QWORD PTR [rsp],r10
   1004047e0: 49 0b a2 ff ff ff 7f  or     rsp,QWORD PTR [r10+0x7fffffff]
   1004047e7: 4c 09 94 24 ff ff ff 7f   or     QWORD PTR [rsp+0x7fffffff],r10
   1004047ef: 4c 09 dc              or     rsp,r11
   1004047f2: 49 0b 23              or     rsp,QWORD PTR [r11]
   1004047f5: 4c 09 1c 24           or     QWORD PTR [rsp],r11
   1004047f9: 49 0b a3 ff ff ff 7f  or     rsp,QWORD PTR [r11+0x7fffffff]
   100404800: 4c 09 9c 24 ff ff ff 7f   or     QWORD PTR [rsp+0x7fffffff],r11
   100404808: 4c 09 e4              or     rsp,r12
   10040480b: 49 0b 24 24           or     rsp,QWORD PTR [r12]
   10040480f: 4c 09 24 24           or     QWORD PTR [rsp],r12
   100404813: 49 0b a4 24 ff ff ff 7f   or     rsp,QWORD PTR [r12+0x7fffffff]
   10040481b: 4c 09 a4 24 ff ff ff 7f   or     QWORD PTR [rsp+0x7fffffff],r12
   100404823: 4c 09 ec              or     rsp,r13
   100404826: 49 0b 65 00           or     rsp,QWORD PTR [r13+0x0]
   10040482a: 4c 09 2c 24           or     QWORD PTR [rsp],r13
   10040482e: 49 0b a5 ff ff ff 7f  or     rsp,QWORD PTR [r13+0x7fffffff]
   100404835: 4c 09 ac 24 ff ff ff 7f   or     QWORD PTR [rsp+0x7fffffff],r13
   10040483d: 4c 09 f4              or     rsp,r14
   100404840: 49 0b 26              or     rsp,QWORD PTR [r14]
   100404843: 4c 09 34 24           or     QWORD PTR [rsp],r14
   100404847: 49 0b a6 ff ff ff 7f  or     rsp,QWORD PTR [r14+0x7fffffff]
   10040484e: 4c 09 b4 24 ff ff ff 7f   or     QWORD PTR [rsp+0x7fffffff],r14
   100404856: 4c 09 fc              or     rsp,r15
   100404859: 49 0b 27              or     rsp,QWORD PTR [r15]
   10040485c: 4c 09 3c 24           or     QWORD PTR [rsp],r15
   100404860: 49 0b a7 ff ff ff 7f  or     rsp,QWORD PTR [r15+0x7fffffff]
   100404867: 4c 09 bc 24 ff ff ff 7f   or     QWORD PTR [rsp+0x7fffffff],r15
   10040486f: 48 81 cd ff ff ff 7f  or     rbp,0x7fffffff
   100404876: 48 09 c5              or     rbp,rax
   100404879: 48 0b 28              or     rbp,QWORD PTR [rax]
   10040487c: 48 09 45 00           or     QWORD PTR [rbp+0x0],rax
   100404880: 48 0b a8 ff ff ff 7f  or     rbp,QWORD PTR [rax+0x7fffffff]
   100404887: 48 09 85 ff ff ff 7f  or     QWORD PTR [rbp+0x7fffffff],rax
   10040488e: 48 09 cd              or     rbp,rcx
   100404891: 48 0b 29              or     rbp,QWORD PTR [rcx]
   100404894: 48 09 4d 00           or     QWORD PTR [rbp+0x0],rcx
   100404898: 48 0b a9 ff ff ff 7f  or     rbp,QWORD PTR [rcx+0x7fffffff]
   10040489f: 48 09 8d ff ff ff 7f  or     QWORD PTR [rbp+0x7fffffff],rcx
   1004048a6: 48 09 d5              or     rbp,rdx
   1004048a9: 48 0b 2a              or     rbp,QWORD PTR [rdx]
   1004048ac: 48 09 55 00           or     QWORD PTR [rbp+0x0],rdx
   1004048b0: 48 0b aa ff ff ff 7f  or     rbp,QWORD PTR [rdx+0x7fffffff]
   1004048b7: 48 09 95 ff ff ff 7f  or     QWORD PTR [rbp+0x7fffffff],rdx
   1004048be: 48 09 dd              or     rbp,rbx
   1004048c1: 48 0b 2b              or     rbp,QWORD PTR [rbx]
   1004048c4: 48 09 5d 00           or     QWORD PTR [rbp+0x0],rbx
   1004048c8: 48 0b ab ff ff ff 7f  or     rbp,QWORD PTR [rbx+0x7fffffff]
   1004048cf: 48 09 9d ff ff ff 7f  or     QWORD PTR [rbp+0x7fffffff],rbx
   1004048d6: 48 09 e5              or     rbp,rsp
   1004048d9: 48 0b 2c 24           or     rbp,QWORD PTR [rsp]
   1004048dd: 48 09 65 00           or     QWORD PTR [rbp+0x0],rsp
   1004048e1: 48 0b ac 24 ff ff ff 7f   or     rbp,QWORD PTR [rsp+0x7fffffff]
   1004048e9: 48 09 a5 ff ff ff 7f  or     QWORD PTR [rbp+0x7fffffff],rsp
   1004048f0: 48 09 ed              or     rbp,rbp
   1004048f3: 48 0b 6d 00           or     rbp,QWORD PTR [rbp+0x0]
   1004048f7: 48 09 6d 00           or     QWORD PTR [rbp+0x0],rbp
   1004048fb: 48 0b ad ff ff ff 7f  or     rbp,QWORD PTR [rbp+0x7fffffff]
   100404902: 48 09 ad ff ff ff 7f  or     QWORD PTR [rbp+0x7fffffff],rbp
   100404909: 48 09 f5              or     rbp,rsi
   10040490c: 48 0b 2e              or     rbp,QWORD PTR [rsi]
   10040490f: 48 09 75 00           or     QWORD PTR [rbp+0x0],rsi
   100404913: 48 0b ae ff ff ff 7f  or     rbp,QWORD PTR [rsi+0x7fffffff]
   10040491a: 48 09 b5 ff ff ff 7f  or     QWORD PTR [rbp+0x7fffffff],rsi
   100404921: 48 09 fd              or     rbp,rdi
   100404924: 48 0b 2f              or     rbp,QWORD PTR [rdi]
   100404927: 48 09 7d 00           or     QWORD PTR [rbp+0x0],rdi
   10040492b: 48 0b af ff ff ff 7f  or     rbp,QWORD PTR [rdi+0x7fffffff]
   100404932: 48 09 bd ff ff ff 7f  or     QWORD PTR [rbp+0x7fffffff],rdi
   100404939: 4c 09 c5              or     rbp,r8
   10040493c: 49 0b 28              or     rbp,QWORD PTR [r8]
   10040493f: 4c 09 45 00           or     QWORD PTR [rbp+0x0],r8
   100404943: 49 0b a8 ff ff ff 7f  or     rbp,QWORD PTR [r8+0x7fffffff]
   10040494a: 4c 09 85 ff ff ff 7f  or     QWORD PTR [rbp+0x7fffffff],r8
   100404951: 4c 09 cd              or     rbp,r9
   100404954: 49 0b 29              or     rbp,QWORD PTR [r9]
   100404957: 4c 09 4d 00           or     QWORD PTR [rbp+0x0],r9
   10040495b: 49 0b a9 ff ff ff 7f  or     rbp,QWORD PTR [r9+0x7fffffff]
   100404962: 4c 09 8d ff ff ff 7f  or     QWORD PTR [rbp+0x7fffffff],r9
   100404969: 4c 09 d5              or     rbp,r10
   10040496c: 49 0b 2a              or     rbp,QWORD PTR [r10]
   10040496f: 4c 09 55 00           or     QWORD PTR [rbp+0x0],r10
   100404973: 49 0b aa ff ff ff 7f  or     rbp,QWORD PTR [r10+0x7fffffff]
   10040497a: 4c 09 95 ff ff ff 7f  or     QWORD PTR [rbp+0x7fffffff],r10
   100404981: 4c 09 dd              or     rbp,r11
   100404984: 49 0b 2b              or     rbp,QWORD PTR [r11]
   100404987: 4c 09 5d 00           or     QWORD PTR [rbp+0x0],r11
   10040498b: 49 0b ab ff ff ff 7f  or     rbp,QWORD PTR [r11+0x7fffffff]
   100404992: 4c 09 9d ff ff ff 7f  or     QWORD PTR [rbp+0x7fffffff],r11
   100404999: 4c 09 e5              or     rbp,r12
   10040499c: 49 0b 2c 24           or     rbp,QWORD PTR [r12]
   1004049a0: 4c 09 65 00           or     QWORD PTR [rbp+0x0],r12
   1004049a4: 49 0b ac 24 ff ff ff 7f   or     rbp,QWORD PTR [r12+0x7fffffff]
   1004049ac: 4c 09 a5 ff ff ff 7f  or     QWORD PTR [rbp+0x7fffffff],r12
   1004049b3: 4c 09 ed              or     rbp,r13
   1004049b6: 49 0b 6d 00           or     rbp,QWORD PTR [r13+0x0]
   1004049ba: 4c 09 6d 00           or     QWORD PTR [rbp+0x0],r13
   1004049be: 49 0b ad ff ff ff 7f  or     rbp,QWORD PTR [r13+0x7fffffff]
   1004049c5: 4c 09 ad ff ff ff 7f  or     QWORD PTR [rbp+0x7fffffff],r13
   1004049cc: 4c 09 f5              or     rbp,r14
   1004049cf: 49 0b 2e              or     rbp,QWORD PTR [r14]
   1004049d2: 4c 09 75 00           or     QWORD PTR [rbp+0x0],r14
   1004049d6: 49 0b ae ff ff ff 7f  or     rbp,QWORD PTR [r14+0x7fffffff]
   1004049dd: 4c 09 b5 ff ff ff 7f  or     QWORD PTR [rbp+0x7fffffff],r14
   1004049e4: 4c 09 fd              or     rbp,r15
   1004049e7: 49 0b 2f              or     rbp,QWORD PTR [r15]
   1004049ea: 4c 09 7d 00           or     QWORD PTR [rbp+0x0],r15
   1004049ee: 49 0b af ff ff ff 7f  or     rbp,QWORD PTR [r15+0x7fffffff]
   1004049f5: 4c 09 bd ff ff ff 7f  or     QWORD PTR [rbp+0x7fffffff],r15
   1004049fc: 48 81 ce ff ff ff 7f  or     rsi,0x7fffffff
   100404a03: 48 09 c6              or     rsi,rax
   100404a06: 48 0b 30              or     rsi,QWORD PTR [rax]
   100404a09: 48 09 06              or     QWORD PTR [rsi],rax
   100404a0c: 48 0b b0 ff ff ff 7f  or     rsi,QWORD PTR [rax+0x7fffffff]
   100404a13: 48 09 86 ff ff ff 7f  or     QWORD PTR [rsi+0x7fffffff],rax
   100404a1a: 48 09 ce              or     rsi,rcx
   100404a1d: 48 0b 31              or     rsi,QWORD PTR [rcx]
   100404a20: 48 09 0e              or     QWORD PTR [rsi],rcx
   100404a23: 48 0b b1 ff ff ff 7f  or     rsi,QWORD PTR [rcx+0x7fffffff]
   100404a2a: 48 09 8e ff ff ff 7f  or     QWORD PTR [rsi+0x7fffffff],rcx
   100404a31: 48 09 d6              or     rsi,rdx
   100404a34: 48 0b 32              or     rsi,QWORD PTR [rdx]
   100404a37: 48 09 16              or     QWORD PTR [rsi],rdx
   100404a3a: 48 0b b2 ff ff ff 7f  or     rsi,QWORD PTR [rdx+0x7fffffff]
   100404a41: 48 09 96 ff ff ff 7f  or     QWORD PTR [rsi+0x7fffffff],rdx
   100404a48: 48 09 de              or     rsi,rbx
   100404a4b: 48 0b 33              or     rsi,QWORD PTR [rbx]
   100404a4e: 48 09 1e              or     QWORD PTR [rsi],rbx
   100404a51: 48 0b b3 ff ff ff 7f  or     rsi,QWORD PTR [rbx+0x7fffffff]
   100404a58: 48 09 9e ff ff ff 7f  or     QWORD PTR [rsi+0x7fffffff],rbx
   100404a5f: 48 09 e6              or     rsi,rsp
   100404a62: 48 0b 34 24           or     rsi,QWORD PTR [rsp]
   100404a66: 48 09 26              or     QWORD PTR [rsi],rsp
   100404a69: 48 0b b4 24 ff ff ff 7f   or     rsi,QWORD PTR [rsp+0x7fffffff]
   100404a71: 48 09 a6 ff ff ff 7f  or     QWORD PTR [rsi+0x7fffffff],rsp
   100404a78: 48 09 ee              or     rsi,rbp
   100404a7b: 48 0b 75 00           or     rsi,QWORD PTR [rbp+0x0]
   100404a7f: 48 09 2e              or     QWORD PTR [rsi],rbp
   100404a82: 48 0b b5 ff ff ff 7f  or     rsi,QWORD PTR [rbp+0x7fffffff]
   100404a89: 48 09 ae ff ff ff 7f  or     QWORD PTR [rsi+0x7fffffff],rbp
   100404a90: 48 09 f6              or     rsi,rsi
   100404a93: 48 0b 36              or     rsi,QWORD PTR [rsi]
   100404a96: 48 09 36              or     QWORD PTR [rsi],rsi
   100404a99: 48 0b b6 ff ff ff 7f  or     rsi,QWORD PTR [rsi+0x7fffffff]
   100404aa0: 48 09 b6 ff ff ff 7f  or     QWORD PTR [rsi+0x7fffffff],rsi
   100404aa7: 48 09 fe              or     rsi,rdi
   100404aaa: 48 0b 37              or     rsi,QWORD PTR [rdi]
   100404aad: 48 09 3e              or     QWORD PTR [rsi],rdi
   100404ab0: 48 0b b7 ff ff ff 7f  or     rsi,QWORD PTR [rdi+0x7fffffff]
   100404ab7: 48 09 be ff ff ff 7f  or     QWORD PTR [rsi+0x7fffffff],rdi
   100404abe: 4c 09 c6              or     rsi,r8
   100404ac1: 49 0b 30              or     rsi,QWORD PTR [r8]
   100404ac4: 4c 09 06              or     QWORD PTR [rsi],r8
   100404ac7: 49 0b b0 ff ff ff 7f  or     rsi,QWORD PTR [r8+0x7fffffff]
   100404ace: 4c 09 86 ff ff ff 7f  or     QWORD PTR [rsi+0x7fffffff],r8
   100404ad5: 4c 09 ce              or     rsi,r9
   100404ad8: 49 0b 31              or     rsi,QWORD PTR [r9]
   100404adb: 4c 09 0e              or     QWORD PTR [rsi],r9
   100404ade: 49 0b b1 ff ff ff 7f  or     rsi,QWORD PTR [r9+0x7fffffff]
   100404ae5: 4c 09 8e ff ff ff 7f  or     QWORD PTR [rsi+0x7fffffff],r9
   100404aec: 4c 09 d6              or     rsi,r10
   100404aef: 49 0b 32              or     rsi,QWORD PTR [r10]
   100404af2: 4c 09 16              or     QWORD PTR [rsi],r10
   100404af5: 49 0b b2 ff ff ff 7f  or     rsi,QWORD PTR [r10+0x7fffffff]
   100404afc: 4c 09 96 ff ff ff 7f  or     QWORD PTR [rsi+0x7fffffff],r10
   100404b03: 4c 09 de              or     rsi,r11
   100404b06: 49 0b 33              or     rsi,QWORD PTR [r11]
   100404b09: 4c 09 1e              or     QWORD PTR [rsi],r11
   100404b0c: 49 0b b3 ff ff ff 7f  or     rsi,QWORD PTR [r11+0x7fffffff]
   100404b13: 4c 09 9e ff ff ff 7f  or     QWORD PTR [rsi+0x7fffffff],r11
   100404b1a: 4c 09 e6              or     rsi,r12
   100404b1d: 49 0b 34 24           or     rsi,QWORD PTR [r12]
   100404b21: 4c 09 26              or     QWORD PTR [rsi],r12
   100404b24: 49 0b b4 24 ff ff ff 7f   or     rsi,QWORD PTR [r12+0x7fffffff]
   100404b2c: 4c 09 a6 ff ff ff 7f  or     QWORD PTR [rsi+0x7fffffff],r12
   100404b33: 4c 09 ee              or     rsi,r13
   100404b36: 49 0b 75 00           or     rsi,QWORD PTR [r13+0x0]
   100404b3a: 4c 09 2e              or     QWORD PTR [rsi],r13
   100404b3d: 49 0b b5 ff ff ff 7f  or     rsi,QWORD PTR [r13+0x7fffffff]
   100404b44: 4c 09 ae ff ff ff 7f  or     QWORD PTR [rsi+0x7fffffff],r13
   100404b4b: 4c 09 f6              or     rsi,r14
   100404b4e: 49 0b 36              or     rsi,QWORD PTR [r14]
   100404b51: 4c 09 36              or     QWORD PTR [rsi],r14
   100404b54: 49 0b b6 ff ff ff 7f  or     rsi,QWORD PTR [r14+0x7fffffff]
   100404b5b: 4c 09 b6 ff ff ff 7f  or     QWORD PTR [rsi+0x7fffffff],r14
   100404b62: 4c 09 fe              or     rsi,r15
   100404b65: 49 0b 37              or     rsi,QWORD PTR [r15]
   100404b68: 4c 09 3e              or     QWORD PTR [rsi],r15
   100404b6b: 49 0b b7 ff ff ff 7f  or     rsi,QWORD PTR [r15+0x7fffffff]
   100404b72: 4c 09 be ff ff ff 7f  or     QWORD PTR [rsi+0x7fffffff],r15
   100404b79: 48 81 cf ff ff ff 7f  or     rdi,0x7fffffff
   100404b80: 48 09 c7              or     rdi,rax
   100404b83: 48 0b 38              or     rdi,QWORD PTR [rax]
   100404b86: 48 09 07              or     QWORD PTR [rdi],rax
   100404b89: 48 0b b8 ff ff ff 7f  or     rdi,QWORD PTR [rax+0x7fffffff]
   100404b90: 48 09 87 ff ff ff 7f  or     QWORD PTR [rdi+0x7fffffff],rax
   100404b97: 48 09 cf              or     rdi,rcx
   100404b9a: 48 0b 39              or     rdi,QWORD PTR [rcx]
   100404b9d: 48 09 0f              or     QWORD PTR [rdi],rcx
   100404ba0: 48 0b b9 ff ff ff 7f  or     rdi,QWORD PTR [rcx+0x7fffffff]
   100404ba7: 48 09 8f ff ff ff 7f  or     QWORD PTR [rdi+0x7fffffff],rcx
   100404bae: 48 09 d7              or     rdi,rdx
   100404bb1: 48 0b 3a              or     rdi,QWORD PTR [rdx]
   100404bb4: 48 09 17              or     QWORD PTR [rdi],rdx
   100404bb7: 48 0b ba ff ff ff 7f  or     rdi,QWORD PTR [rdx+0x7fffffff]
   100404bbe: 48 09 97 ff ff ff 7f  or     QWORD PTR [rdi+0x7fffffff],rdx
   100404bc5: 48 09 df              or     rdi,rbx
   100404bc8: 48 0b 3b              or     rdi,QWORD PTR [rbx]
   100404bcb: 48 09 1f              or     QWORD PTR [rdi],rbx
   100404bce: 48 0b bb ff ff ff 7f  or     rdi,QWORD PTR [rbx+0x7fffffff]
   100404bd5: 48 09 9f ff ff ff 7f  or     QWORD PTR [rdi+0x7fffffff],rbx
   100404bdc: 48 09 e7              or     rdi,rsp
   100404bdf: 48 0b 3c 24           or     rdi,QWORD PTR [rsp]
   100404be3: 48 09 27              or     QWORD PTR [rdi],rsp
   100404be6: 48 0b bc 24 ff ff ff 7f   or     rdi,QWORD PTR [rsp+0x7fffffff]
   100404bee: 48 09 a7 ff ff ff 7f  or     QWORD PTR [rdi+0x7fffffff],rsp
   100404bf5: 48 09 ef              or     rdi,rbp
   100404bf8: 48 0b 7d 00           or     rdi,QWORD PTR [rbp+0x0]
   100404bfc: 48 09 2f              or     QWORD PTR [rdi],rbp
   100404bff: 48 0b bd ff ff ff 7f  or     rdi,QWORD PTR [rbp+0x7fffffff]
   100404c06: 48 09 af ff ff ff 7f  or     QWORD PTR [rdi+0x7fffffff],rbp
   100404c0d: 48 09 f7              or     rdi,rsi
   100404c10: 48 0b 3e              or     rdi,QWORD PTR [rsi]
   100404c13: 48 09 37              or     QWORD PTR [rdi],rsi
   100404c16: 48 0b be ff ff ff 7f  or     rdi,QWORD PTR [rsi+0x7fffffff]
   100404c1d: 48 09 b7 ff ff ff 7f  or     QWORD PTR [rdi+0x7fffffff],rsi
   100404c24: 48 09 ff              or     rdi,rdi
   100404c27: 48 0b 3f              or     rdi,QWORD PTR [rdi]
   100404c2a: 48 09 3f              or     QWORD PTR [rdi],rdi
   100404c2d: 48 0b bf ff ff ff 7f  or     rdi,QWORD PTR [rdi+0x7fffffff]
   100404c34: 48 09 bf ff ff ff 7f  or     QWORD PTR [rdi+0x7fffffff],rdi
   100404c3b: 4c 09 c7              or     rdi,r8
   100404c3e: 49 0b 38              or     rdi,QWORD PTR [r8]
   100404c41: 4c 09 07              or     QWORD PTR [rdi],r8
   100404c44: 49 0b b8 ff ff ff 7f  or     rdi,QWORD PTR [r8+0x7fffffff]
   100404c4b: 4c 09 87 ff ff ff 7f  or     QWORD PTR [rdi+0x7fffffff],r8
   100404c52: 4c 09 cf              or     rdi,r9
   100404c55: 49 0b 39              or     rdi,QWORD PTR [r9]
   100404c58: 4c 09 0f              or     QWORD PTR [rdi],r9
   100404c5b: 49 0b b9 ff ff ff 7f  or     rdi,QWORD PTR [r9+0x7fffffff]
   100404c62: 4c 09 8f ff ff ff 7f  or     QWORD PTR [rdi+0x7fffffff],r9
   100404c69: 4c 09 d7              or     rdi,r10
   100404c6c: 49 0b 3a              or     rdi,QWORD PTR [r10]
   100404c6f: 4c 09 17              or     QWORD PTR [rdi],r10
   100404c72: 49 0b ba ff ff ff 7f  or     rdi,QWORD PTR [r10+0x7fffffff]
   100404c79: 4c 09 97 ff ff ff 7f  or     QWORD PTR [rdi+0x7fffffff],r10
   100404c80: 4c 09 df              or     rdi,r11
   100404c83: 49 0b 3b              or     rdi,QWORD PTR [r11]
   100404c86: 4c 09 1f              or     QWORD PTR [rdi],r11
   100404c89: 49 0b bb ff ff ff 7f  or     rdi,QWORD PTR [r11+0x7fffffff]
   100404c90: 4c 09 9f ff ff ff 7f  or     QWORD PTR [rdi+0x7fffffff],r11
   100404c97: 4c 09 e7              or     rdi,r12
   100404c9a: 49 0b 3c 24           or     rdi,QWORD PTR [r12]
   100404c9e: 4c 09 27              or     QWORD PTR [rdi],r12
   100404ca1: 49 0b bc 24 ff ff ff 7f   or     rdi,QWORD PTR [r12+0x7fffffff]
   100404ca9: 4c 09 a7 ff ff ff 7f  or     QWORD PTR [rdi+0x7fffffff],r12
   100404cb0: 4c 09 ef              or     rdi,r13
   100404cb3: 49 0b 7d 00           or     rdi,QWORD PTR [r13+0x0]
   100404cb7: 4c 09 2f              or     QWORD PTR [rdi],r13
   100404cba: 49 0b bd ff ff ff 7f  or     rdi,QWORD PTR [r13+0x7fffffff]
   100404cc1: 4c 09 af ff ff ff 7f  or     QWORD PTR [rdi+0x7fffffff],r13
   100404cc8: 4c 09 f7              or     rdi,r14
   100404ccb: 49 0b 3e              or     rdi,QWORD PTR [r14]
   100404cce: 4c 09 37              or     QWORD PTR [rdi],r14
   100404cd1: 49 0b be ff ff ff 7f  or     rdi,QWORD PTR [r14+0x7fffffff]
   100404cd8: 4c 09 b7 ff ff ff 7f  or     QWORD PTR [rdi+0x7fffffff],r14
   100404cdf: 4c 09 ff              or     rdi,r15
   100404ce2: 49 0b 3f              or     rdi,QWORD PTR [r15]
   100404ce5: 4c 09 3f              or     QWORD PTR [rdi],r15
   100404ce8: 49 0b bf ff ff ff 7f  or     rdi,QWORD PTR [r15+0x7fffffff]
   100404cef: 4c 09 bf ff ff ff 7f  or     QWORD PTR [rdi+0x7fffffff],r15
   100404cf6: 49 81 c8 ff ff ff 7f  or     r8,0x7fffffff
   100404cfd: 49 09 c0              or     r8,rax
   100404d00: 4c 0b 00              or     r8,QWORD PTR [rax]
   100404d03: 49 09 00              or     QWORD PTR [r8],rax
   100404d06: 4c 0b 80 ff ff ff 7f  or     r8,QWORD PTR [rax+0x7fffffff]
   100404d0d: 49 09 80 ff ff ff 7f  or     QWORD PTR [r8+0x7fffffff],rax
   100404d14: 49 09 c8              or     r8,rcx
   100404d17: 4c 0b 01              or     r8,QWORD PTR [rcx]
   100404d1a: 49 09 08              or     QWORD PTR [r8],rcx
   100404d1d: 4c 0b 81 ff ff ff 7f  or     r8,QWORD PTR [rcx+0x7fffffff]
   100404d24: 49 09 88 ff ff ff 7f  or     QWORD PTR [r8+0x7fffffff],rcx
   100404d2b: 49 09 d0              or     r8,rdx
   100404d2e: 4c 0b 02              or     r8,QWORD PTR [rdx]
   100404d31: 49 09 10              or     QWORD PTR [r8],rdx
   100404d34: 4c 0b 82 ff ff ff 7f  or     r8,QWORD PTR [rdx+0x7fffffff]
   100404d3b: 49 09 90 ff ff ff 7f  or     QWORD PTR [r8+0x7fffffff],rdx
   100404d42: 49 09 d8              or     r8,rbx
   100404d45: 4c 0b 03              or     r8,QWORD PTR [rbx]
   100404d48: 49 09 18              or     QWORD PTR [r8],rbx
   100404d4b: 4c 0b 83 ff ff ff 7f  or     r8,QWORD PTR [rbx+0x7fffffff]
   100404d52: 49 09 98 ff ff ff 7f  or     QWORD PTR [r8+0x7fffffff],rbx
   100404d59: 49 09 e0              or     r8,rsp
   100404d5c: 4c 0b 04 24           or     r8,QWORD PTR [rsp]
   100404d60: 49 09 20              or     QWORD PTR [r8],rsp
   100404d63: 4c 0b 84 24 ff ff ff 7f   or     r8,QWORD PTR [rsp+0x7fffffff]
   100404d6b: 49 09 a0 ff ff ff 7f  or     QWORD PTR [r8+0x7fffffff],rsp
   100404d72: 49 09 e8              or     r8,rbp
   100404d75: 4c 0b 45 00           or     r8,QWORD PTR [rbp+0x0]
   100404d79: 49 09 28              or     QWORD PTR [r8],rbp
   100404d7c: 4c 0b 85 ff ff ff 7f  or     r8,QWORD PTR [rbp+0x7fffffff]
   100404d83: 49 09 a8 ff ff ff 7f  or     QWORD PTR [r8+0x7fffffff],rbp
   100404d8a: 49 09 f0              or     r8,rsi
   100404d8d: 4c 0b 06              or     r8,QWORD PTR [rsi]
   100404d90: 49 09 30              or     QWORD PTR [r8],rsi
   100404d93: 4c 0b 86 ff ff ff 7f  or     r8,QWORD PTR [rsi+0x7fffffff]
   100404d9a: 49 09 b0 ff ff ff 7f  or     QWORD PTR [r8+0x7fffffff],rsi
   100404da1: 49 09 f8              or     r8,rdi
   100404da4: 4c 0b 07              or     r8,QWORD PTR [rdi]
   100404da7: 49 09 38              or     QWORD PTR [r8],rdi
   100404daa: 4c 0b 87 ff ff ff 7f  or     r8,QWORD PTR [rdi+0x7fffffff]
   100404db1: 49 09 b8 ff ff ff 7f  or     QWORD PTR [r8+0x7fffffff],rdi
   100404db8: 4d 09 c0              or     r8,r8
   100404dbb: 4d 0b 00              or     r8,QWORD PTR [r8]
   100404dbe: 4d 09 00              or     QWORD PTR [r8],r8
   100404dc1: 4d 0b 80 ff ff ff 7f  or     r8,QWORD PTR [r8+0x7fffffff]
   100404dc8: 4d 09 80 ff ff ff 7f  or     QWORD PTR [r8+0x7fffffff],r8
   100404dcf: 4d 09 c8              or     r8,r9
   100404dd2: 4d 0b 01              or     r8,QWORD PTR [r9]
   100404dd5: 4d 09 08              or     QWORD PTR [r8],r9
   100404dd8: 4d 0b 81 ff ff ff 7f  or     r8,QWORD PTR [r9+0x7fffffff]
   100404ddf: 4d 09 88 ff ff ff 7f  or     QWORD PTR [r8+0x7fffffff],r9
   100404de6: 4d 09 d0              or     r8,r10
   100404de9: 4d 0b 02              or     r8,QWORD PTR [r10]
   100404dec: 4d 09 10              or     QWORD PTR [r8],r10
   100404def: 4d 0b 82 ff ff ff 7f  or     r8,QWORD PTR [r10+0x7fffffff]
   100404df6: 4d 09 90 ff ff ff 7f  or     QWORD PTR [r8+0x7fffffff],r10
   100404dfd: 4d 09 d8              or     r8,r11
   100404e00: 4d 0b 03              or     r8,QWORD PTR [r11]
   100404e03: 4d 09 18              or     QWORD PTR [r8],r11
   100404e06: 4d 0b 83 ff ff ff 7f  or     r8,QWORD PTR [r11+0x7fffffff]
   100404e0d: 4d 09 98 ff ff ff 7f  or     QWORD PTR [r8+0x7fffffff],r11
   100404e14: 4d 09 e0              or     r8,r12
   100404e17: 4d 0b 04 24           or     r8,QWORD PTR [r12]
   100404e1b: 4d 09 20              or     QWORD PTR [r8],r12
   100404e1e: 4d 0b 84 24 ff ff ff 7f   or     r8,QWORD PTR [r12+0x7fffffff]
   100404e26: 4d 09 a0 ff ff ff 7f  or     QWORD PTR [r8+0x7fffffff],r12
   100404e2d: 4d 09 e8              or     r8,r13
   100404e30: 4d 0b 45 00           or     r8,QWORD PTR [r13+0x0]
   100404e34: 4d 09 28              or     QWORD PTR [r8],r13
   100404e37: 4d 0b 85 ff ff ff 7f  or     r8,QWORD PTR [r13+0x7fffffff]
   100404e3e: 4d 09 a8 ff ff ff 7f  or     QWORD PTR [r8+0x7fffffff],r13
   100404e45: 4d 09 f0              or     r8,r14
   100404e48: 4d 0b 06              or     r8,QWORD PTR [r14]
   100404e4b: 4d 09 30              or     QWORD PTR [r8],r14
   100404e4e: 4d 0b 86 ff ff ff 7f  or     r8,QWORD PTR [r14+0x7fffffff]
   100404e55: 4d 09 b0 ff ff ff 7f  or     QWORD PTR [r8+0x7fffffff],r14
   100404e5c: 4d 09 f8              or     r8,r15
   100404e5f: 4d 0b 07              or     r8,QWORD PTR [r15]
   100404e62: 4d 09 38              or     QWORD PTR [r8],r15
   100404e65: 4d 0b 87 ff ff ff 7f  or     r8,QWORD PTR [r15+0x7fffffff]
   100404e6c: 4d 09 b8 ff ff ff 7f  or     QWORD PTR [r8+0x7fffffff],r15
   100404e73: 49 81 c9 ff ff ff 7f  or     r9,0x7fffffff
   100404e7a: 49 09 c1              or     r9,rax
   100404e7d: 4c 0b 08              or     r9,QWORD PTR [rax]
   100404e80: 49 09 01              or     QWORD PTR [r9],rax
   100404e83: 4c 0b 88 ff ff ff 7f  or     r9,QWORD PTR [rax+0x7fffffff]
   100404e8a: 49 09 81 ff ff ff 7f  or     QWORD PTR [r9+0x7fffffff],rax
   100404e91: 49 09 c9              or     r9,rcx
   100404e94: 4c 0b 09              or     r9,QWORD PTR [rcx]
   100404e97: 49 09 09              or     QWORD PTR [r9],rcx
   100404e9a: 4c 0b 89 ff ff ff 7f  or     r9,QWORD PTR [rcx+0x7fffffff]
   100404ea1: 49 09 89 ff ff ff 7f  or     QWORD PTR [r9+0x7fffffff],rcx
   100404ea8: 49 09 d1              or     r9,rdx
   100404eab: 4c 0b 0a              or     r9,QWORD PTR [rdx]
   100404eae: 49 09 11              or     QWORD PTR [r9],rdx
   100404eb1: 4c 0b 8a ff ff ff 7f  or     r9,QWORD PTR [rdx+0x7fffffff]
   100404eb8: 49 09 91 ff ff ff 7f  or     QWORD PTR [r9+0x7fffffff],rdx
   100404ebf: 49 09 d9              or     r9,rbx
   100404ec2: 4c 0b 0b              or     r9,QWORD PTR [rbx]
   100404ec5: 49 09 19              or     QWORD PTR [r9],rbx
   100404ec8: 4c 0b 8b ff ff ff 7f  or     r9,QWORD PTR [rbx+0x7fffffff]
   100404ecf: 49 09 99 ff ff ff 7f  or     QWORD PTR [r9+0x7fffffff],rbx
   100404ed6: 49 09 e1              or     r9,rsp
   100404ed9: 4c 0b 0c 24           or     r9,QWORD PTR [rsp]
   100404edd: 49 09 21              or     QWORD PTR [r9],rsp
   100404ee0: 4c 0b 8c 24 ff ff ff 7f   or     r9,QWORD PTR [rsp+0x7fffffff]
   100404ee8: 49 09 a1 ff ff ff 7f  or     QWORD PTR [r9+0x7fffffff],rsp
   100404eef: 49 09 e9              or     r9,rbp
   100404ef2: 4c 0b 4d 00           or     r9,QWORD PTR [rbp+0x0]
   100404ef6: 49 09 29              or     QWORD PTR [r9],rbp
   100404ef9: 4c 0b 8d ff ff ff 7f  or     r9,QWORD PTR [rbp+0x7fffffff]
   100404f00: 49 09 a9 ff ff ff 7f  or     QWORD PTR [r9+0x7fffffff],rbp
   100404f07: 49 09 f1              or     r9,rsi
   100404f0a: 4c 0b 0e              or     r9,QWORD PTR [rsi]
   100404f0d: 49 09 31              or     QWORD PTR [r9],rsi
   100404f10: 4c 0b 8e ff ff ff 7f  or     r9,QWORD PTR [rsi+0x7fffffff]
   100404f17: 49 09 b1 ff ff ff 7f  or     QWORD PTR [r9+0x7fffffff],rsi
   100404f1e: 49 09 f9              or     r9,rdi
   100404f21: 4c 0b 0f              or     r9,QWORD PTR [rdi]
   100404f24: 49 09 39              or     QWORD PTR [r9],rdi
   100404f27: 4c 0b 8f ff ff ff 7f  or     r9,QWORD PTR [rdi+0x7fffffff]
   100404f2e: 49 09 b9 ff ff ff 7f  or     QWORD PTR [r9+0x7fffffff],rdi
   100404f35: 4d 09 c1              or     r9,r8
   100404f38: 4d 0b 08              or     r9,QWORD PTR [r8]
   100404f3b: 4d 09 01              or     QWORD PTR [r9],r8
   100404f3e: 4d 0b 88 ff ff ff 7f  or     r9,QWORD PTR [r8+0x7fffffff]
   100404f45: 4d 09 81 ff ff ff 7f  or     QWORD PTR [r9+0x7fffffff],r8
   100404f4c: 4d 09 c9              or     r9,r9
   100404f4f: 4d 0b 09              or     r9,QWORD PTR [r9]
   100404f52: 4d 09 09              or     QWORD PTR [r9],r9
   100404f55: 4d 0b 89 ff ff ff 7f  or     r9,QWORD PTR [r9+0x7fffffff]
   100404f5c: 4d 09 89 ff ff ff 7f  or     QWORD PTR [r9+0x7fffffff],r9
   100404f63: 4d 09 d1              or     r9,r10
   100404f66: 4d 0b 0a              or     r9,QWORD PTR [r10]
   100404f69: 4d 09 11              or     QWORD PTR [r9],r10
   100404f6c: 4d 0b 8a ff ff ff 7f  or     r9,QWORD PTR [r10+0x7fffffff]
   100404f73: 4d 09 91 ff ff ff 7f  or     QWORD PTR [r9+0x7fffffff],r10
   100404f7a: 4d 09 d9              or     r9,r11
   100404f7d: 4d 0b 0b              or     r9,QWORD PTR [r11]
   100404f80: 4d 09 19              or     QWORD PTR [r9],r11
   100404f83: 4d 0b 8b ff ff ff 7f  or     r9,QWORD PTR [r11+0x7fffffff]
   100404f8a: 4d 09 99 ff ff ff 7f  or     QWORD PTR [r9+0x7fffffff],r11
   100404f91: 4d 09 e1              or     r9,r12
   100404f94: 4d 0b 0c 24           or     r9,QWORD PTR [r12]
   100404f98: 4d 09 21              or     QWORD PTR [r9],r12
   100404f9b: 4d 0b 8c 24 ff ff ff 7f   or     r9,QWORD PTR [r12+0x7fffffff]
   100404fa3: 4d 09 a1 ff ff ff 7f  or     QWORD PTR [r9+0x7fffffff],r12
   100404faa: 4d 09 e9              or     r9,r13
   100404fad: 4d 0b 4d 00           or     r9,QWORD PTR [r13+0x0]
   100404fb1: 4d 09 29              or     QWORD PTR [r9],r13
   100404fb4: 4d 0b 8d ff ff ff 7f  or     r9,QWORD PTR [r13+0x7fffffff]
   100404fbb: 4d 09 a9 ff ff ff 7f  or     QWORD PTR [r9+0x7fffffff],r13
   100404fc2: 4d 09 f1              or     r9,r14
   100404fc5: 4d 0b 0e              or     r9,QWORD PTR [r14]
   100404fc8: 4d 09 31              or     QWORD PTR [r9],r14
   100404fcb: 4d 0b 8e ff ff ff 7f  or     r9,QWORD PTR [r14+0x7fffffff]
   100404fd2: 4d 09 b1 ff ff ff 7f  or     QWORD PTR [r9+0x7fffffff],r14
   100404fd9: 4d 09 f9              or     r9,r15
   100404fdc: 4d 0b 0f              or     r9,QWORD PTR [r15]
   100404fdf: 4d 09 39              or     QWORD PTR [r9],r15
   100404fe2: 4d 0b 8f ff ff ff 7f  or     r9,QWORD PTR [r15+0x7fffffff]
   100404fe9: 4d 09 b9 ff ff ff 7f  or     QWORD PTR [r9+0x7fffffff],r15
   100404ff0: 49 81 ca ff ff ff 7f  or     r10,0x7fffffff
   100404ff7: 49 09 c2              or     r10,rax
   100404ffa: 4c 0b 10              or     r10,QWORD PTR [rax]
   100404ffd: 49 09 02              or     QWORD PTR [r10],rax
   100405000: 4c 0b 90 ff ff ff 7f  or     r10,QWORD PTR [rax+0x7fffffff]
   100405007: 49 09 82 ff ff ff 7f  or     QWORD PTR [r10+0x7fffffff],rax
   10040500e: 49 09 ca              or     r10,rcx
   100405011: 4c 0b 11              or     r10,QWORD PTR [rcx]
   100405014: 49 09 0a              or     QWORD PTR [r10],rcx
   100405017: 4c 0b 91 ff ff ff 7f  or     r10,QWORD PTR [rcx+0x7fffffff]
   10040501e: 49 09 8a ff ff ff 7f  or     QWORD PTR [r10+0x7fffffff],rcx
   100405025: 49 09 d2              or     r10,rdx
   100405028: 4c 0b 12              or     r10,QWORD PTR [rdx]
   10040502b: 49 09 12              or     QWORD PTR [r10],rdx
   10040502e: 4c 0b 92 ff ff ff 7f  or     r10,QWORD PTR [rdx+0x7fffffff]
   100405035: 49 09 92 ff ff ff 7f  or     QWORD PTR [r10+0x7fffffff],rdx
   10040503c: 49 09 da              or     r10,rbx
   10040503f: 4c 0b 13              or     r10,QWORD PTR [rbx]
   100405042: 49 09 1a              or     QWORD PTR [r10],rbx
   100405045: 4c 0b 93 ff ff ff 7f  or     r10,QWORD PTR [rbx+0x7fffffff]
   10040504c: 49 09 9a ff ff ff 7f  or     QWORD PTR [r10+0x7fffffff],rbx
   100405053: 49 09 e2              or     r10,rsp
   100405056: 4c 0b 14 24           or     r10,QWORD PTR [rsp]
   10040505a: 49 09 22              or     QWORD PTR [r10],rsp
   10040505d: 4c 0b 94 24 ff ff ff 7f   or     r10,QWORD PTR [rsp+0x7fffffff]
   100405065: 49 09 a2 ff ff ff 7f  or     QWORD PTR [r10+0x7fffffff],rsp
   10040506c: 49 09 ea              or     r10,rbp
   10040506f: 4c 0b 55 00           or     r10,QWORD PTR [rbp+0x0]
   100405073: 49 09 2a              or     QWORD PTR [r10],rbp
   100405076: 4c 0b 95 ff ff ff 7f  or     r10,QWORD PTR [rbp+0x7fffffff]
   10040507d: 49 09 aa ff ff ff 7f  or     QWORD PTR [r10+0x7fffffff],rbp
   100405084: 49 09 f2              or     r10,rsi
   100405087: 4c 0b 16              or     r10,QWORD PTR [rsi]
   10040508a: 49 09 32              or     QWORD PTR [r10],rsi
   10040508d: 4c 0b 96 ff ff ff 7f  or     r10,QWORD PTR [rsi+0x7fffffff]
   100405094: 49 09 b2 ff ff ff 7f  or     QWORD PTR [r10+0x7fffffff],rsi
   10040509b: 49 09 fa              or     r10,rdi
   10040509e: 4c 0b 17              or     r10,QWORD PTR [rdi]
   1004050a1: 49 09 3a              or     QWORD PTR [r10],rdi
   1004050a4: 4c 0b 97 ff ff ff 7f  or     r10,QWORD PTR [rdi+0x7fffffff]
   1004050ab: 49 09 ba ff ff ff 7f  or     QWORD PTR [r10+0x7fffffff],rdi
   1004050b2: 4d 09 c2              or     r10,r8
   1004050b5: 4d 0b 10              or     r10,QWORD PTR [r8]
   1004050b8: 4d 09 02              or     QWORD PTR [r10],r8
   1004050bb: 4d 0b 90 ff ff ff 7f  or     r10,QWORD PTR [r8+0x7fffffff]
   1004050c2: 4d 09 82 ff ff ff 7f  or     QWORD PTR [r10+0x7fffffff],r8
   1004050c9: 4d 09 ca              or     r10,r9
   1004050cc: 4d 0b 11              or     r10,QWORD PTR [r9]
   1004050cf: 4d 09 0a              or     QWORD PTR [r10],r9
   1004050d2: 4d 0b 91 ff ff ff 7f  or     r10,QWORD PTR [r9+0x7fffffff]
   1004050d9: 4d 09 8a ff ff ff 7f  or     QWORD PTR [r10+0x7fffffff],r9
   1004050e0: 4d 09 d2              or     r10,r10
   1004050e3: 4d 0b 12              or     r10,QWORD PTR [r10]
   1004050e6: 4d 09 12              or     QWORD PTR [r10],r10
   1004050e9: 4d 0b 92 ff ff ff 7f  or     r10,QWORD PTR [r10+0x7fffffff]
   1004050f0: 4d 09 92 ff ff ff 7f  or     QWORD PTR [r10+0x7fffffff],r10
   1004050f7: 4d 09 da              or     r10,r11
   1004050fa: 4d 0b 13              or     r10,QWORD PTR [r11]
   1004050fd: 4d 09 1a              or     QWORD PTR [r10],r11
   100405100: 4d 0b 93 ff ff ff 7f  or     r10,QWORD PTR [r11+0x7fffffff]
   100405107: 4d 09 9a ff ff ff 7f  or     QWORD PTR [r10+0x7fffffff],r11
   10040510e: 4d 09 e2              or     r10,r12
   100405111: 4d 0b 14 24           or     r10,QWORD PTR [r12]
   100405115: 4d 09 22              or     QWORD PTR [r10],r12
   100405118: 4d 0b 94 24 ff ff ff 7f   or     r10,QWORD PTR [r12+0x7fffffff]
   100405120: 4d 09 a2 ff ff ff 7f  or     QWORD PTR [r10+0x7fffffff],r12
   100405127: 4d 09 ea              or     r10,r13
   10040512a: 4d 0b 55 00           or     r10,QWORD PTR [r13+0x0]
   10040512e: 4d 09 2a              or     QWORD PTR [r10],r13
   100405131: 4d 0b 95 ff ff ff 7f  or     r10,QWORD PTR [r13+0x7fffffff]
   100405138: 4d 09 aa ff ff ff 7f  or     QWORD PTR [r10+0x7fffffff],r13
   10040513f: 4d 09 f2              or     r10,r14
   100405142: 4d 0b 16              or     r10,QWORD PTR [r14]
   100405145: 4d 09 32              or     QWORD PTR [r10],r14
   100405148: 4d 0b 96 ff ff ff 7f  or     r10,QWORD PTR [r14+0x7fffffff]
   10040514f: 4d 09 b2 ff ff ff 7f  or     QWORD PTR [r10+0x7fffffff],r14
   100405156: 4d 09 fa              or     r10,r15
   100405159: 4d 0b 17              or     r10,QWORD PTR [r15]
   10040515c: 4d 09 3a              or     QWORD PTR [r10],r15
   10040515f: 4d 0b 97 ff ff ff 7f  or     r10,QWORD PTR [r15+0x7fffffff]
   100405166: 4d 09 ba ff ff ff 7f  or     QWORD PTR [r10+0x7fffffff],r15
   10040516d: 49 81 cb ff ff ff 7f  or     r11,0x7fffffff
   100405174: 49 09 c3              or     r11,rax
   100405177: 4c 0b 18              or     r11,QWORD PTR [rax]
   10040517a: 49 09 03              or     QWORD PTR [r11],rax
   10040517d: 4c 0b 98 ff ff ff 7f  or     r11,QWORD PTR [rax+0x7fffffff]
   100405184: 49 09 83 ff ff ff 7f  or     QWORD PTR [r11+0x7fffffff],rax
   10040518b: 49 09 cb              or     r11,rcx
   10040518e: 4c 0b 19              or     r11,QWORD PTR [rcx]
   100405191: 49 09 0b              or     QWORD PTR [r11],rcx
   100405194: 4c 0b 99 ff ff ff 7f  or     r11,QWORD PTR [rcx+0x7fffffff]
   10040519b: 49 09 8b ff ff ff 7f  or     QWORD PTR [r11+0x7fffffff],rcx
   1004051a2: 49 09 d3              or     r11,rdx
   1004051a5: 4c 0b 1a              or     r11,QWORD PTR [rdx]
   1004051a8: 49 09 13              or     QWORD PTR [r11],rdx
   1004051ab: 4c 0b 9a ff ff ff 7f  or     r11,QWORD PTR [rdx+0x7fffffff]
   1004051b2: 49 09 93 ff ff ff 7f  or     QWORD PTR [r11+0x7fffffff],rdx
   1004051b9: 49 09 db              or     r11,rbx
   1004051bc: 4c 0b 1b              or     r11,QWORD PTR [rbx]
   1004051bf: 49 09 1b              or     QWORD PTR [r11],rbx
   1004051c2: 4c 0b 9b ff ff ff 7f  or     r11,QWORD PTR [rbx+0x7fffffff]
   1004051c9: 49 09 9b ff ff ff 7f  or     QWORD PTR [r11+0x7fffffff],rbx
   1004051d0: 49 09 e3              or     r11,rsp
   1004051d3: 4c 0b 1c 24           or     r11,QWORD PTR [rsp]
   1004051d7: 49 09 23              or     QWORD PTR [r11],rsp
   1004051da: 4c 0b 9c 24 ff ff ff 7f   or     r11,QWORD PTR [rsp+0x7fffffff]
   1004051e2: 49 09 a3 ff ff ff 7f  or     QWORD PTR [r11+0x7fffffff],rsp
   1004051e9: 49 09 eb              or     r11,rbp
   1004051ec: 4c 0b 5d 00           or     r11,QWORD PTR [rbp+0x0]
   1004051f0: 49 09 2b              or     QWORD PTR [r11],rbp
   1004051f3: 4c 0b 9d ff ff ff 7f  or     r11,QWORD PTR [rbp+0x7fffffff]
   1004051fa: 49 09 ab ff ff ff 7f  or     QWORD PTR [r11+0x7fffffff],rbp
   100405201: 49 09 f3              or     r11,rsi
   100405204: 4c 0b 1e              or     r11,QWORD PTR [rsi]
   100405207: 49 09 33              or     QWORD PTR [r11],rsi
   10040520a: 4c 0b 9e ff ff ff 7f  or     r11,QWORD PTR [rsi+0x7fffffff]
   100405211: 49 09 b3 ff ff ff 7f  or     QWORD PTR [r11+0x7fffffff],rsi
   100405218: 49 09 fb              or     r11,rdi
   10040521b: 4c 0b 1f              or     r11,QWORD PTR [rdi]
   10040521e: 49 09 3b              or     QWORD PTR [r11],rdi
   100405221: 4c 0b 9f ff ff ff 7f  or     r11,QWORD PTR [rdi+0x7fffffff]
   100405228: 49 09 bb ff ff ff 7f  or     QWORD PTR [r11+0x7fffffff],rdi
   10040522f: 4d 09 c3              or     r11,r8
   100405232: 4d 0b 18              or     r11,QWORD PTR [r8]
   100405235: 4d 09 03              or     QWORD PTR [r11],r8
   100405238: 4d 0b 98 ff ff ff 7f  or     r11,QWORD PTR [r8+0x7fffffff]
   10040523f: 4d 09 83 ff ff ff 7f  or     QWORD PTR [r11+0x7fffffff],r8
   100405246: 4d 09 cb              or     r11,r9
   100405249: 4d 0b 19              or     r11,QWORD PTR [r9]
   10040524c: 4d 09 0b              or     QWORD PTR [r11],r9
   10040524f: 4d 0b 99 ff ff ff 7f  or     r11,QWORD PTR [r9+0x7fffffff]
   100405256: 4d 09 8b ff ff ff 7f  or     QWORD PTR [r11+0x7fffffff],r9
   10040525d: 4d 09 d3              or     r11,r10
   100405260: 4d 0b 1a              or     r11,QWORD PTR [r10]
   100405263: 4d 09 13              or     QWORD PTR [r11],r10
   100405266: 4d 0b 9a ff ff ff 7f  or     r11,QWORD PTR [r10+0x7fffffff]
   10040526d: 4d 09 93 ff ff ff 7f  or     QWORD PTR [r11+0x7fffffff],r10
   100405274: 4d 09 db              or     r11,r11
   100405277: 4d 0b 1b              or     r11,QWORD PTR [r11]
   10040527a: 4d 09 1b              or     QWORD PTR [r11],r11
   10040527d: 4d 0b 9b ff ff ff 7f  or     r11,QWORD PTR [r11+0x7fffffff]
   100405284: 4d 09 9b ff ff ff 7f  or     QWORD PTR [r11+0x7fffffff],r11
   10040528b: 4d 09 e3              or     r11,r12
   10040528e: 4d 0b 1c 24           or     r11,QWORD PTR [r12]
   100405292: 4d 09 23              or     QWORD PTR [r11],r12
   100405295: 4d 0b 9c 24 ff ff ff 7f   or     r11,QWORD PTR [r12+0x7fffffff]
   10040529d: 4d 09 a3 ff ff ff 7f  or     QWORD PTR [r11+0x7fffffff],r12
   1004052a4: 4d 09 eb              or     r11,r13
   1004052a7: 4d 0b 5d 00           or     r11,QWORD PTR [r13+0x0]
   1004052ab: 4d 09 2b              or     QWORD PTR [r11],r13
   1004052ae: 4d 0b 9d ff ff ff 7f  or     r11,QWORD PTR [r13+0x7fffffff]
   1004052b5: 4d 09 ab ff ff ff 7f  or     QWORD PTR [r11+0x7fffffff],r13
   1004052bc: 4d 09 f3              or     r11,r14
   1004052bf: 4d 0b 1e              or     r11,QWORD PTR [r14]
   1004052c2: 4d 09 33              or     QWORD PTR [r11],r14
   1004052c5: 4d 0b 9e ff ff ff 7f  or     r11,QWORD PTR [r14+0x7fffffff]
   1004052cc: 4d 09 b3 ff ff ff 7f  or     QWORD PTR [r11+0x7fffffff],r14
   1004052d3: 4d 09 fb              or     r11,r15
   1004052d6: 4d 0b 1f              or     r11,QWORD PTR [r15]
   1004052d9: 4d 09 3b              or     QWORD PTR [r11],r15
   1004052dc: 4d 0b 9f ff ff ff 7f  or     r11,QWORD PTR [r15+0x7fffffff]
   1004052e3: 4d 09 bb ff ff ff 7f  or     QWORD PTR [r11+0x7fffffff],r15
   1004052ea: 49 81 cc ff ff ff 7f  or     r12,0x7fffffff
   1004052f1: 49 09 c4              or     r12,rax
   1004052f4: 4c 0b 20              or     r12,QWORD PTR [rax]
   1004052f7: 49 09 04 24           or     QWORD PTR [r12],rax
   1004052fb: 4c 0b a0 ff ff ff 7f  or     r12,QWORD PTR [rax+0x7fffffff]
   100405302: 49 09 84 24 ff ff ff 7f   or     QWORD PTR [r12+0x7fffffff],rax
   10040530a: 49 09 cc              or     r12,rcx
   10040530d: 4c 0b 21              or     r12,QWORD PTR [rcx]
   100405310: 49 09 0c 24           or     QWORD PTR [r12],rcx
   100405314: 4c 0b a1 ff ff ff 7f  or     r12,QWORD PTR [rcx+0x7fffffff]
   10040531b: 49 09 8c 24 ff ff ff 7f   or     QWORD PTR [r12+0x7fffffff],rcx
   100405323: 49 09 d4              or     r12,rdx
   100405326: 4c 0b 22              or     r12,QWORD PTR [rdx]
   100405329: 49 09 14 24           or     QWORD PTR [r12],rdx
   10040532d: 4c 0b a2 ff ff ff 7f  or     r12,QWORD PTR [rdx+0x7fffffff]
   100405334: 49 09 94 24 ff ff ff 7f   or     QWORD PTR [r12+0x7fffffff],rdx
   10040533c: 49 09 dc              or     r12,rbx
   10040533f: 4c 0b 23              or     r12,QWORD PTR [rbx]
   100405342: 49 09 1c 24           or     QWORD PTR [r12],rbx
   100405346: 4c 0b a3 ff ff ff 7f  or     r12,QWORD PTR [rbx+0x7fffffff]
   10040534d: 49 09 9c 24 ff ff ff 7f   or     QWORD PTR [r12+0x7fffffff],rbx
   100405355: 49 09 e4              or     r12,rsp
   100405358: 4c 0b 24 24           or     r12,QWORD PTR [rsp]
   10040535c: 49 09 24 24           or     QWORD PTR [r12],rsp
   100405360: 4c 0b a4 24 ff ff ff 7f   or     r12,QWORD PTR [rsp+0x7fffffff]
   100405368: 49 09 a4 24 ff ff ff 7f   or     QWORD PTR [r12+0x7fffffff],rsp
   100405370: 49 09 ec              or     r12,rbp
   100405373: 4c 0b 65 00           or     r12,QWORD PTR [rbp+0x0]
   100405377: 49 09 2c 24           or     QWORD PTR [r12],rbp
   10040537b: 4c 0b a5 ff ff ff 7f  or     r12,QWORD PTR [rbp+0x7fffffff]
   100405382: 49 09 ac 24 ff ff ff 7f   or     QWORD PTR [r12+0x7fffffff],rbp
   10040538a: 49 09 f4              or     r12,rsi
   10040538d: 4c 0b 26              or     r12,QWORD PTR [rsi]
   100405390: 49 09 34 24           or     QWORD PTR [r12],rsi
   100405394: 4c 0b a6 ff ff ff 7f  or     r12,QWORD PTR [rsi+0x7fffffff]
   10040539b: 49 09 b4 24 ff ff ff 7f   or     QWORD PTR [r12+0x7fffffff],rsi
   1004053a3: 49 09 fc              or     r12,rdi
   1004053a6: 4c 0b 27              or     r12,QWORD PTR [rdi]
   1004053a9: 49 09 3c 24           or     QWORD PTR [r12],rdi
   1004053ad: 4c 0b a7 ff ff ff 7f  or     r12,QWORD PTR [rdi+0x7fffffff]
   1004053b4: 49 09 bc 24 ff ff ff 7f   or     QWORD PTR [r12+0x7fffffff],rdi
   1004053bc: 4d 09 c4              or     r12,r8
   1004053bf: 4d 0b 20              or     r12,QWORD PTR [r8]
   1004053c2: 4d 09 04 24           or     QWORD PTR [r12],r8
   1004053c6: 4d 0b a0 ff ff ff 7f  or     r12,QWORD PTR [r8+0x7fffffff]
   1004053cd: 4d 09 84 24 ff ff ff 7f   or     QWORD PTR [r12+0x7fffffff],r8
   1004053d5: 4d 09 cc              or     r12,r9
   1004053d8: 4d 0b 21              or     r12,QWORD PTR [r9]
   1004053db: 4d 09 0c 24           or     QWORD PTR [r12],r9
   1004053df: 4d 0b a1 ff ff ff 7f  or     r12,QWORD PTR [r9+0x7fffffff]
   1004053e6: 4d 09 8c 24 ff ff ff 7f   or     QWORD PTR [r12+0x7fffffff],r9
   1004053ee: 4d 09 d4              or     r12,r10
   1004053f1: 4d 0b 22              or     r12,QWORD PTR [r10]
   1004053f4: 4d 09 14 24           or     QWORD PTR [r12],r10
   1004053f8: 4d 0b a2 ff ff ff 7f  or     r12,QWORD PTR [r10+0x7fffffff]
   1004053ff: 4d 09 94 24 ff ff ff 7f   or     QWORD PTR [r12+0x7fffffff],r10
   100405407: 4d 09 dc              or     r12,r11
   10040540a: 4d 0b 23              or     r12,QWORD PTR [r11]
   10040540d: 4d 09 1c 24           or     QWORD PTR [r12],r11
   100405411: 4d 0b a3 ff ff ff 7f  or     r12,QWORD PTR [r11+0x7fffffff]
   100405418: 4d 09 9c 24 ff ff ff 7f   or     QWORD PTR [r12+0x7fffffff],r11
   100405420: 4d 09 e4              or     r12,r12
   100405423: 4d 0b 24 24           or     r12,QWORD PTR [r12]
   100405427: 4d 09 24 24           or     QWORD PTR [r12],r12
   10040542b: 4d 0b a4 24 ff ff ff 7f   or     r12,QWORD PTR [r12+0x7fffffff]
   100405433: 4d 09 a4 24 ff ff ff 7f   or     QWORD PTR [r12+0x7fffffff],r12
   10040543b: 4d 09 ec              or     r12,r13
   10040543e: 4d 0b 65 00           or     r12,QWORD PTR [r13+0x0]
   100405442: 4d 09 2c 24           or     QWORD PTR [r12],r13
   100405446: 4d 0b a5 ff ff ff 7f  or     r12,QWORD PTR [r13+0x7fffffff]
   10040544d: 4d 09 ac 24 ff ff ff 7f   or     QWORD PTR [r12+0x7fffffff],r13
   100405455: 4d 09 f4              or     r12,r14
   100405458: 4d 0b 26              or     r12,QWORD PTR [r14]
   10040545b: 4d 09 34 24           or     QWORD PTR [r12],r14
   10040545f: 4d 0b a6 ff ff ff 7f  or     r12,QWORD PTR [r14+0x7fffffff]
   100405466: 4d 09 b4 24 ff ff ff 7f   or     QWORD PTR [r12+0x7fffffff],r14
   10040546e: 4d 09 fc              or     r12,r15
   100405471: 4d 0b 27              or     r12,QWORD PTR [r15]
   100405474: 4d 09 3c 24           or     QWORD PTR [r12],r15
   100405478: 4d 0b a7 ff ff ff 7f  or     r12,QWORD PTR [r15+0x7fffffff]
   10040547f: 4d 09 bc 24 ff ff ff 7f   or     QWORD PTR [r12+0x7fffffff],r15
   100405487: 49 81 cd ff ff ff 7f  or     r13,0x7fffffff
   10040548e: 49 09 c5              or     r13,rax
   100405491: 4c 0b 28              or     r13,QWORD PTR [rax]
   100405494: 49 09 45 00           or     QWORD PTR [r13+0x0],rax
   100405498: 4c 0b a8 ff ff ff 7f  or     r13,QWORD PTR [rax+0x7fffffff]
   10040549f: 49 09 85 ff ff ff 7f  or     QWORD PTR [r13+0x7fffffff],rax
   1004054a6: 49 09 cd              or     r13,rcx
   1004054a9: 4c 0b 29              or     r13,QWORD PTR [rcx]
   1004054ac: 49 09 4d 00           or     QWORD PTR [r13+0x0],rcx
   1004054b0: 4c 0b a9 ff ff ff 7f  or     r13,QWORD PTR [rcx+0x7fffffff]
   1004054b7: 49 09 8d ff ff ff 7f  or     QWORD PTR [r13+0x7fffffff],rcx
   1004054be: 49 09 d5              or     r13,rdx
   1004054c1: 4c 0b 2a              or     r13,QWORD PTR [rdx]
   1004054c4: 49 09 55 00           or     QWORD PTR [r13+0x0],rdx
   1004054c8: 4c 0b aa ff ff ff 7f  or     r13,QWORD PTR [rdx+0x7fffffff]
   1004054cf: 49 09 95 ff ff ff 7f  or     QWORD PTR [r13+0x7fffffff],rdx
   1004054d6: 49 09 dd              or     r13,rbx
   1004054d9: 4c 0b 2b              or     r13,QWORD PTR [rbx]
   1004054dc: 49 09 5d 00           or     QWORD PTR [r13+0x0],rbx
   1004054e0: 4c 0b ab ff ff ff 7f  or     r13,QWORD PTR [rbx+0x7fffffff]
   1004054e7: 49 09 9d ff ff ff 7f  or     QWORD PTR [r13+0x7fffffff],rbx
   1004054ee: 49 09 e5              or     r13,rsp
   1004054f1: 4c 0b 2c 24           or     r13,QWORD PTR [rsp]
   1004054f5: 49 09 65 00           or     QWORD PTR [r13+0x0],rsp
   1004054f9: 4c 0b ac 24 ff ff ff 7f   or     r13,QWORD PTR [rsp+0x7fffffff]
   100405501: 49 09 a5 ff ff ff 7f  or     QWORD PTR [r13+0x7fffffff],rsp
   100405508: 49 09 ed              or     r13,rbp
   10040550b: 4c 0b 6d 00           or     r13,QWORD PTR [rbp+0x0]
   10040550f: 49 09 6d 00           or     QWORD PTR [r13+0x0],rbp
   100405513: 4c 0b ad ff ff ff 7f  or     r13,QWORD PTR [rbp+0x7fffffff]
   10040551a: 49 09 ad ff ff ff 7f  or     QWORD PTR [r13+0x7fffffff],rbp
   100405521: 49 09 f5              or     r13,rsi
   100405524: 4c 0b 2e              or     r13,QWORD PTR [rsi]
   100405527: 49 09 75 00           or     QWORD PTR [r13+0x0],rsi
   10040552b: 4c 0b ae ff ff ff 7f  or     r13,QWORD PTR [rsi+0x7fffffff]
   100405532: 49 09 b5 ff ff ff 7f  or     QWORD PTR [r13+0x7fffffff],rsi
   100405539: 49 09 fd              or     r13,rdi
   10040553c: 4c 0b 2f              or     r13,QWORD PTR [rdi]
   10040553f: 49 09 7d 00           or     QWORD PTR [r13+0x0],rdi
   100405543: 4c 0b af ff ff ff 7f  or     r13,QWORD PTR [rdi+0x7fffffff]
   10040554a: 49 09 bd ff ff ff 7f  or     QWORD PTR [r13+0x7fffffff],rdi
   100405551: 4d 09 c5              or     r13,r8
   100405554: 4d 0b 28              or     r13,QWORD PTR [r8]
   100405557: 4d 09 45 00           or     QWORD PTR [r13+0x0],r8
   10040555b: 4d 0b a8 ff ff ff 7f  or     r13,QWORD PTR [r8+0x7fffffff]
   100405562: 4d 09 85 ff ff ff 7f  or     QWORD PTR [r13+0x7fffffff],r8
   100405569: 4d 09 cd              or     r13,r9
   10040556c: 4d 0b 29              or     r13,QWORD PTR [r9]
   10040556f: 4d 09 4d 00           or     QWORD PTR [r13+0x0],r9
   100405573: 4d 0b a9 ff ff ff 7f  or     r13,QWORD PTR [r9+0x7fffffff]
   10040557a: 4d 09 8d ff ff ff 7f  or     QWORD PTR [r13+0x7fffffff],r9
   100405581: 4d 09 d5              or     r13,r10
   100405584: 4d 0b 2a              or     r13,QWORD PTR [r10]
   100405587: 4d 09 55 00           or     QWORD PTR [r13+0x0],r10
   10040558b: 4d 0b aa ff ff ff 7f  or     r13,QWORD PTR [r10+0x7fffffff]
   100405592: 4d 09 95 ff ff ff 7f  or     QWORD PTR [r13+0x7fffffff],r10
   100405599: 4d 09 dd              or     r13,r11
   10040559c: 4d 0b 2b              or     r13,QWORD PTR [r11]
   10040559f: 4d 09 5d 00           or     QWORD PTR [r13+0x0],r11
   1004055a3: 4d 0b ab ff ff ff 7f  or     r13,QWORD PTR [r11+0x7fffffff]
   1004055aa: 4d 09 9d ff ff ff 7f  or     QWORD PTR [r13+0x7fffffff],r11
   1004055b1: 4d 09 e5              or     r13,r12
   1004055b4: 4d 0b 2c 24           or     r13,QWORD PTR [r12]
   1004055b8: 4d 09 65 00           or     QWORD PTR [r13+0x0],r12
   1004055bc: 4d 0b ac 24 ff ff ff 7f   or     r13,QWORD PTR [r12+0x7fffffff]
   1004055c4: 4d 09 a5 ff ff ff 7f  or     QWORD PTR [r13+0x7fffffff],r12
   1004055cb: 4d 09 ed              or     r13,r13
   1004055ce: 4d 0b 6d 00           or     r13,QWORD PTR [r13+0x0]
   1004055d2: 4d 09 6d 00           or     QWORD PTR [r13+0x0],r13
   1004055d6: 4d 0b ad ff ff ff 7f  or     r13,QWORD PTR [r13+0x7fffffff]
   1004055dd: 4d 09 ad ff ff ff 7f  or     QWORD PTR [r13+0x7fffffff],r13
   1004055e4: 4d 09 f5              or     r13,r14
   1004055e7: 4d 0b 2e              or     r13,QWORD PTR [r14]
   1004055ea: 4d 09 75 00           or     QWORD PTR [r13+0x0],r14
   1004055ee: 4d 0b ae ff ff ff 7f  or     r13,QWORD PTR [r14+0x7fffffff]
   1004055f5: 4d 09 b5 ff ff ff 7f  or     QWORD PTR [r13+0x7fffffff],r14
   1004055fc: 4d 09 fd              or     r13,r15
   1004055ff: 4d 0b 2f              or     r13,QWORD PTR [r15]
   100405602: 4d 09 7d 00           or     QWORD PTR [r13+0x0],r15
   100405606: 4d 0b af ff ff ff 7f  or     r13,QWORD PTR [r15+0x7fffffff]
   10040560d: 4d 09 bd ff ff ff 7f  or     QWORD PTR [r13+0x7fffffff],r15
   100405614: 49 81 ce ff ff ff 7f  or     r14,0x7fffffff
   10040561b: 49 09 c6              or     r14,rax
   10040561e: 4c 0b 30              or     r14,QWORD PTR [rax]
   100405621: 49 09 06              or     QWORD PTR [r14],rax
   100405624: 4c 0b b0 ff ff ff 7f  or     r14,QWORD PTR [rax+0x7fffffff]
   10040562b: 49 09 86 ff ff ff 7f  or     QWORD PTR [r14+0x7fffffff],rax
   100405632: 49 09 ce              or     r14,rcx
   100405635: 4c 0b 31              or     r14,QWORD PTR [rcx]
   100405638: 49 09 0e              or     QWORD PTR [r14],rcx
   10040563b: 4c 0b b1 ff ff ff 7f  or     r14,QWORD PTR [rcx+0x7fffffff]
   100405642: 49 09 8e ff ff ff 7f  or     QWORD PTR [r14+0x7fffffff],rcx
   100405649: 49 09 d6              or     r14,rdx
   10040564c: 4c 0b 32              or     r14,QWORD PTR [rdx]
   10040564f: 49 09 16              or     QWORD PTR [r14],rdx
   100405652: 4c 0b b2 ff ff ff 7f  or     r14,QWORD PTR [rdx+0x7fffffff]
   100405659: 49 09 96 ff ff ff 7f  or     QWORD PTR [r14+0x7fffffff],rdx
   100405660: 49 09 de              or     r14,rbx
   100405663: 4c 0b 33              or     r14,QWORD PTR [rbx]
   100405666: 49 09 1e              or     QWORD PTR [r14],rbx
   100405669: 4c 0b b3 ff ff ff 7f  or     r14,QWORD PTR [rbx+0x7fffffff]
   100405670: 49 09 9e ff ff ff 7f  or     QWORD PTR [r14+0x7fffffff],rbx
   100405677: 49 09 e6              or     r14,rsp
   10040567a: 4c 0b 34 24           or     r14,QWORD PTR [rsp]
   10040567e: 49 09 26              or     QWORD PTR [r14],rsp
   100405681: 4c 0b b4 24 ff ff ff 7f   or     r14,QWORD PTR [rsp+0x7fffffff]
   100405689: 49 09 a6 ff ff ff 7f  or     QWORD PTR [r14+0x7fffffff],rsp
   100405690: 49 09 ee              or     r14,rbp
   100405693: 4c 0b 75 00           or     r14,QWORD PTR [rbp+0x0]
   100405697: 49 09 2e              or     QWORD PTR [r14],rbp
   10040569a: 4c 0b b5 ff ff ff 7f  or     r14,QWORD PTR [rbp+0x7fffffff]
   1004056a1: 49 09 ae ff ff ff 7f  or     QWORD PTR [r14+0x7fffffff],rbp
   1004056a8: 49 09 f6              or     r14,rsi
   1004056ab: 4c 0b 36              or     r14,QWORD PTR [rsi]
   1004056ae: 49 09 36              or     QWORD PTR [r14],rsi
   1004056b1: 4c 0b b6 ff ff ff 7f  or     r14,QWORD PTR [rsi+0x7fffffff]
   1004056b8: 49 09 b6 ff ff ff 7f  or     QWORD PTR [r14+0x7fffffff],rsi
   1004056bf: 49 09 fe              or     r14,rdi
   1004056c2: 4c 0b 37              or     r14,QWORD PTR [rdi]
   1004056c5: 49 09 3e              or     QWORD PTR [r14],rdi
   1004056c8: 4c 0b b7 ff ff ff 7f  or     r14,QWORD PTR [rdi+0x7fffffff]
   1004056cf: 49 09 be ff ff ff 7f  or     QWORD PTR [r14+0x7fffffff],rdi
   1004056d6: 4d 09 c6              or     r14,r8
   1004056d9: 4d 0b 30              or     r14,QWORD PTR [r8]
   1004056dc: 4d 09 06              or     QWORD PTR [r14],r8
   1004056df: 4d 0b b0 ff ff ff 7f  or     r14,QWORD PTR [r8+0x7fffffff]
   1004056e6: 4d 09 86 ff ff ff 7f  or     QWORD PTR [r14+0x7fffffff],r8
   1004056ed: 4d 09 ce              or     r14,r9
   1004056f0: 4d 0b 31              or     r14,QWORD PTR [r9]
   1004056f3: 4d 09 0e              or     QWORD PTR [r14],r9
   1004056f6: 4d 0b b1 ff ff ff 7f  or     r14,QWORD PTR [r9+0x7fffffff]
   1004056fd: 4d 09 8e ff ff ff 7f  or     QWORD PTR [r14+0x7fffffff],r9
   100405704: 4d 09 d6              or     r14,r10
   100405707: 4d 0b 32              or     r14,QWORD PTR [r10]
   10040570a: 4d 09 16              or     QWORD PTR [r14],r10
   10040570d: 4d 0b b2 ff ff ff 7f  or     r14,QWORD PTR [r10+0x7fffffff]
   100405714: 4d 09 96 ff ff ff 7f  or     QWORD PTR [r14+0x7fffffff],r10
   10040571b: 4d 09 de              or     r14,r11
   10040571e: 4d 0b 33              or     r14,QWORD PTR [r11]
   100405721: 4d 09 1e              or     QWORD PTR [r14],r11
   100405724: 4d 0b b3 ff ff ff 7f  or     r14,QWORD PTR [r11+0x7fffffff]
   10040572b: 4d 09 9e ff ff ff 7f  or     QWORD PTR [r14+0x7fffffff],r11
   100405732: 4d 09 e6              or     r14,r12
   100405735: 4d 0b 34 24           or     r14,QWORD PTR [r12]
   100405739: 4d 09 26              or     QWORD PTR [r14],r12
   10040573c: 4d 0b b4 24 ff ff ff 7f   or     r14,QWORD PTR [r12+0x7fffffff]
   100405744: 4d 09 a6 ff ff ff 7f  or     QWORD PTR [r14+0x7fffffff],r12
   10040574b: 4d 09 ee              or     r14,r13
   10040574e: 4d 0b 75 00           or     r14,QWORD PTR [r13+0x0]
   100405752: 4d 09 2e              or     QWORD PTR [r14],r13
   100405755: 4d 0b b5 ff ff ff 7f  or     r14,QWORD PTR [r13+0x7fffffff]
   10040575c: 4d 09 ae ff ff ff 7f  or     QWORD PTR [r14+0x7fffffff],r13
   100405763: 4d 09 f6              or     r14,r14
   100405766: 4d 0b 36              or     r14,QWORD PTR [r14]
   100405769: 4d 09 36              or     QWORD PTR [r14],r14
   10040576c: 4d 0b b6 ff ff ff 7f  or     r14,QWORD PTR [r14+0x7fffffff]
   100405773: 4d 09 b6 ff ff ff 7f  or     QWORD PTR [r14+0x7fffffff],r14
   10040577a: 4d 09 fe              or     r14,r15
   10040577d: 4d 0b 37              or     r14,QWORD PTR [r15]
   100405780: 4d 09 3e              or     QWORD PTR [r14],r15
   100405783: 4d 0b b7 ff ff ff 7f  or     r14,QWORD PTR [r15+0x7fffffff]
   10040578a: 4d 09 be ff ff ff 7f  or     QWORD PTR [r14+0x7fffffff],r15
   100405791: 49 81 cf ff ff ff 7f  or     r15,0x7fffffff
   100405798: 49 09 c7              or     r15,rax
   10040579b: 4c 0b 38              or     r15,QWORD PTR [rax]
   10040579e: 49 09 07              or     QWORD PTR [r15],rax
   1004057a1: 4c 0b b8 ff ff ff 7f  or     r15,QWORD PTR [rax+0x7fffffff]
   1004057a8: 49 09 87 ff ff ff 7f  or     QWORD PTR [r15+0x7fffffff],rax
   1004057af: 49 09 cf              or     r15,rcx
   1004057b2: 4c 0b 39              or     r15,QWORD PTR [rcx]
   1004057b5: 49 09 0f              or     QWORD PTR [r15],rcx
   1004057b8: 4c 0b b9 ff ff ff 7f  or     r15,QWORD PTR [rcx+0x7fffffff]
   1004057bf: 49 09 8f ff ff ff 7f  or     QWORD PTR [r15+0x7fffffff],rcx
   1004057c6: 49 09 d7              or     r15,rdx
   1004057c9: 4c 0b 3a              or     r15,QWORD PTR [rdx]
   1004057cc: 49 09 17              or     QWORD PTR [r15],rdx
   1004057cf: 4c 0b ba ff ff ff 7f  or     r15,QWORD PTR [rdx+0x7fffffff]
   1004057d6: 49 09 97 ff ff ff 7f  or     QWORD PTR [r15+0x7fffffff],rdx
   1004057dd: 49 09 df              or     r15,rbx
   1004057e0: 4c 0b 3b              or     r15,QWORD PTR [rbx]
   1004057e3: 49 09 1f              or     QWORD PTR [r15],rbx
   1004057e6: 4c 0b bb ff ff ff 7f  or     r15,QWORD PTR [rbx+0x7fffffff]
   1004057ed: 49 09 9f ff ff ff 7f  or     QWORD PTR [r15+0x7fffffff],rbx
   1004057f4: 49 09 e7              or     r15,rsp
   1004057f7: 4c 0b 3c 24           or     r15,QWORD PTR [rsp]
   1004057fb: 49 09 27              or     QWORD PTR [r15],rsp
   1004057fe: 4c 0b bc 24 ff ff ff 7f   or     r15,QWORD PTR [rsp+0x7fffffff]
   100405806: 49 09 a7 ff ff ff 7f  or     QWORD PTR [r15+0x7fffffff],rsp
   10040580d: 49 09 ef              or     r15,rbp
   100405810: 4c 0b 7d 00           or     r15,QWORD PTR [rbp+0x0]
   100405814: 49 09 2f              or     QWORD PTR [r15],rbp
   100405817: 4c 0b bd ff ff ff 7f  or     r15,QWORD PTR [rbp+0x7fffffff]
   10040581e: 49 09 af ff ff ff 7f  or     QWORD PTR [r15+0x7fffffff],rbp
   100405825: 49 09 f7              or     r15,rsi
   100405828: 4c 0b 3e              or     r15,QWORD PTR [rsi]
   10040582b: 49 09 37              or     QWORD PTR [r15],rsi
   10040582e: 4c 0b be ff ff ff 7f  or     r15,QWORD PTR [rsi+0x7fffffff]
   100405835: 49 09 b7 ff ff ff 7f  or     QWORD PTR [r15+0x7fffffff],rsi
   10040583c: 49 09 ff              or     r15,rdi
   10040583f: 4c 0b 3f              or     r15,QWORD PTR [rdi]
   100405842: 49 09 3f              or     QWORD PTR [r15],rdi
   100405845: 4c 0b bf ff ff ff 7f  or     r15,QWORD PTR [rdi+0x7fffffff]
   10040584c: 49 09 bf ff ff ff 7f  or     QWORD PTR [r15+0x7fffffff],rdi
   100405853: 4d 09 c7              or     r15,r8
   100405856: 4d 0b 38              or     r15,QWORD PTR [r8]
   100405859: 4d 09 07              or     QWORD PTR [r15],r8
   10040585c: 4d 0b b8 ff ff ff 7f  or     r15,QWORD PTR [r8+0x7fffffff]
   100405863: 4d 09 87 ff ff ff 7f  or     QWORD PTR [r15+0x7fffffff],r8
   10040586a: 4d 09 cf              or     r15,r9
   10040586d: 4d 0b 39              or     r15,QWORD PTR [r9]
   100405870: 4d 09 0f              or     QWORD PTR [r15],r9
   100405873: 4d 0b b9 ff ff ff 7f  or     r15,QWORD PTR [r9+0x7fffffff]
   10040587a: 4d 09 8f ff ff ff 7f  or     QWORD PTR [r15+0x7fffffff],r9
   100405881: 4d 09 d7              or     r15,r10
   100405884: 4d 0b 3a              or     r15,QWORD PTR [r10]
   100405887: 4d 09 17              or     QWORD PTR [r15],r10
   10040588a: 4d 0b ba ff ff ff 7f  or     r15,QWORD PTR [r10+0x7fffffff]
   100405891: 4d 09 97 ff ff ff 7f  or     QWORD PTR [r15+0x7fffffff],r10
   100405898: 4d 09 df              or     r15,r11
   10040589b: 4d 0b 3b              or     r15,QWORD PTR [r11]
   10040589e: 4d 09 1f              or     QWORD PTR [r15],r11
   1004058a1: 4d 0b bb ff ff ff 7f  or     r15,QWORD PTR [r11+0x7fffffff]
   1004058a8: 4d 09 9f ff ff ff 7f  or     QWORD PTR [r15+0x7fffffff],r11
   1004058af: 4d 09 e7              or     r15,r12
   1004058b2: 4d 0b 3c 24           or     r15,QWORD PTR [r12]
   1004058b6: 4d 09 27              or     QWORD PTR [r15],r12
   1004058b9: 4d 0b bc 24 ff ff ff 7f   or     r15,QWORD PTR [r12+0x7fffffff]
   1004058c1: 4d 09 a7 ff ff ff 7f  or     QWORD PTR [r15+0x7fffffff],r12
   1004058c8: 4d 09 ef              or     r15,r13
   1004058cb: 4d 0b 7d 00           or     r15,QWORD PTR [r13+0x0]
   1004058cf: 4d 09 2f              or     QWORD PTR [r15],r13
   1004058d2: 4d 0b bd ff ff ff 7f  or     r15,QWORD PTR [r13+0x7fffffff]
   1004058d9: 4d 09 af ff ff ff 7f  or     QWORD PTR [r15+0x7fffffff],r13
   1004058e0: 4d 09 f7              or     r15,r14
   1004058e3: 4d 0b 3e              or     r15,QWORD PTR [r14]
   1004058e6: 4d 09 37              or     QWORD PTR [r15],r14
   1004058e9: 4d 0b be ff ff ff 7f  or     r15,QWORD PTR [r14+0x7fffffff]
   1004058f0: 4d 09 b7 ff ff ff 7f  or     QWORD PTR [r15+0x7fffffff],r14
   1004058f7: 4d 09 ff              or     r15,r15
   1004058fa: 4d 0b 3f              or     r15,QWORD PTR [r15]
   1004058fd: 4d 09 3f              or     QWORD PTR [r15],r15
   100405900: 4d 0b bf ff ff ff 7f  or     r15,QWORD PTR [r15+0x7fffffff]
   100405907: 4d 09 bf ff ff ff 7f  or     QWORD PTR [r15+0x7fffffff],r15
   10040590e: 48 15 ff ff ff 7f     adc    rax,0x7fffffff
   100405914: 48 11 c0              adc    rax,rax
   100405917: 48 13 00              adc    rax,QWORD PTR [rax]
   10040591a: 48 11 00              adc    QWORD PTR [rax],rax
   10040591d: 48 13 80 ff ff ff 7f  adc    rax,QWORD PTR [rax+0x7fffffff]
   100405924: 48 11 80 ff ff ff 7f  adc    QWORD PTR [rax+0x7fffffff],rax
   10040592b: 48 11 c8              adc    rax,rcx
   10040592e: 48 13 01              adc    rax,QWORD PTR [rcx]
   100405931: 48 11 08              adc    QWORD PTR [rax],rcx
   100405934: 48 13 81 ff ff ff 7f  adc    rax,QWORD PTR [rcx+0x7fffffff]
   10040593b: 48 11 88 ff ff ff 7f  adc    QWORD PTR [rax+0x7fffffff],rcx
   100405942: 48 11 d0              adc    rax,rdx
   100405945: 48 13 02              adc    rax,QWORD PTR [rdx]
   100405948: 48 11 10              adc    QWORD PTR [rax],rdx
   10040594b: 48 13 82 ff ff ff 7f  adc    rax,QWORD PTR [rdx+0x7fffffff]
   100405952: 48 11 90 ff ff ff 7f  adc    QWORD PTR [rax+0x7fffffff],rdx
   100405959: 48 11 d8              adc    rax,rbx
   10040595c: 48 13 03              adc    rax,QWORD PTR [rbx]
   10040595f: 48 11 18              adc    QWORD PTR [rax],rbx
   100405962: 48 13 83 ff ff ff 7f  adc    rax,QWORD PTR [rbx+0x7fffffff]
   100405969: 48 11 98 ff ff ff 7f  adc    QWORD PTR [rax+0x7fffffff],rbx
   100405970: 48 11 e0              adc    rax,rsp
   100405973: 48 13 04 24           adc    rax,QWORD PTR [rsp]
   100405977: 48 11 20              adc    QWORD PTR [rax],rsp
   10040597a: 48 13 84 24 ff ff ff 7f   adc    rax,QWORD PTR [rsp+0x7fffffff]
   100405982: 48 11 a0 ff ff ff 7f  adc    QWORD PTR [rax+0x7fffffff],rsp
   100405989: 48 11 e8              adc    rax,rbp
   10040598c: 48 13 45 00           adc    rax,QWORD PTR [rbp+0x0]
   100405990: 48 11 28              adc    QWORD PTR [rax],rbp
   100405993: 48 13 85 ff ff ff 7f  adc    rax,QWORD PTR [rbp+0x7fffffff]
   10040599a: 48 11 a8 ff ff ff 7f  adc    QWORD PTR [rax+0x7fffffff],rbp
   1004059a1: 48 11 f0              adc    rax,rsi
   1004059a4: 48 13 06              adc    rax,QWORD PTR [rsi]
   1004059a7: 48 11 30              adc    QWORD PTR [rax],rsi
   1004059aa: 48 13 86 ff ff ff 7f  adc    rax,QWORD PTR [rsi+0x7fffffff]
   1004059b1: 48 11 b0 ff ff ff 7f  adc    QWORD PTR [rax+0x7fffffff],rsi
   1004059b8: 48 11 f8              adc    rax,rdi
   1004059bb: 48 13 07              adc    rax,QWORD PTR [rdi]
   1004059be: 48 11 38              adc    QWORD PTR [rax],rdi
   1004059c1: 48 13 87 ff ff ff 7f  adc    rax,QWORD PTR [rdi+0x7fffffff]
   1004059c8: 48 11 b8 ff ff ff 7f  adc    QWORD PTR [rax+0x7fffffff],rdi
   1004059cf: 4c 11 c0              adc    rax,r8
   1004059d2: 49 13 00              adc    rax,QWORD PTR [r8]
   1004059d5: 4c 11 00              adc    QWORD PTR [rax],r8
   1004059d8: 49 13 80 ff ff ff 7f  adc    rax,QWORD PTR [r8+0x7fffffff]
   1004059df: 4c 11 80 ff ff ff 7f  adc    QWORD PTR [rax+0x7fffffff],r8
   1004059e6: 4c 11 c8              adc    rax,r9
   1004059e9: 49 13 01              adc    rax,QWORD PTR [r9]
   1004059ec: 4c 11 08              adc    QWORD PTR [rax],r9
   1004059ef: 49 13 81 ff ff ff 7f  adc    rax,QWORD PTR [r9+0x7fffffff]
   1004059f6: 4c 11 88 ff ff ff 7f  adc    QWORD PTR [rax+0x7fffffff],r9
   1004059fd: 4c 11 d0              adc    rax,r10
   100405a00: 49 13 02              adc    rax,QWORD PTR [r10]
   100405a03: 4c 11 10              adc    QWORD PTR [rax],r10
   100405a06: 49 13 82 ff ff ff 7f  adc    rax,QWORD PTR [r10+0x7fffffff]
   100405a0d: 4c 11 90 ff ff ff 7f  adc    QWORD PTR [rax+0x7fffffff],r10
   100405a14: 4c 11 d8              adc    rax,r11
   100405a17: 49 13 03              adc    rax,QWORD PTR [r11]
   100405a1a: 4c 11 18              adc    QWORD PTR [rax],r11
   100405a1d: 49 13 83 ff ff ff 7f  adc    rax,QWORD PTR [r11+0x7fffffff]
   100405a24: 4c 11 98 ff ff ff 7f  adc    QWORD PTR [rax+0x7fffffff],r11
   100405a2b: 4c 11 e0              adc    rax,r12
   100405a2e: 49 13 04 24           adc    rax,QWORD PTR [r12]
   100405a32: 4c 11 20              adc    QWORD PTR [rax],r12
   100405a35: 49 13 84 24 ff ff ff 7f   adc    rax,QWORD PTR [r12+0x7fffffff]
   100405a3d: 4c 11 a0 ff ff ff 7f  adc    QWORD PTR [rax+0x7fffffff],r12
   100405a44: 4c 11 e8              adc    rax,r13
   100405a47: 49 13 45 00           adc    rax,QWORD PTR [r13+0x0]
   100405a4b: 4c 11 28              adc    QWORD PTR [rax],r13
   100405a4e: 49 13 85 ff ff ff 7f  adc    rax,QWORD PTR [r13+0x7fffffff]
   100405a55: 4c 11 a8 ff ff ff 7f  adc    QWORD PTR [rax+0x7fffffff],r13
   100405a5c: 4c 11 f0              adc    rax,r14
   100405a5f: 49 13 06              adc    rax,QWORD PTR [r14]
   100405a62: 4c 11 30              adc    QWORD PTR [rax],r14
   100405a65: 49 13 86 ff ff ff 7f  adc    rax,QWORD PTR [r14+0x7fffffff]
   100405a6c: 4c 11 b0 ff ff ff 7f  adc    QWORD PTR [rax+0x7fffffff],r14
   100405a73: 4c 11 f8              adc    rax,r15
   100405a76: 49 13 07              adc    rax,QWORD PTR [r15]
   100405a79: 4c 11 38              adc    QWORD PTR [rax],r15
   100405a7c: 49 13 87 ff ff ff 7f  adc    rax,QWORD PTR [r15+0x7fffffff]
   100405a83: 4c 11 b8 ff ff ff 7f  adc    QWORD PTR [rax+0x7fffffff],r15
   100405a8a: 48 81 d1 ff ff ff 7f  adc    rcx,0x7fffffff
   100405a91: 48 11 c1              adc    rcx,rax
   100405a94: 48 13 08              adc    rcx,QWORD PTR [rax]
   100405a97: 48 11 01              adc    QWORD PTR [rcx],rax
   100405a9a: 48 13 88 ff ff ff 7f  adc    rcx,QWORD PTR [rax+0x7fffffff]
   100405aa1: 48 11 81 ff ff ff 7f  adc    QWORD PTR [rcx+0x7fffffff],rax
   100405aa8: 48 11 c9              adc    rcx,rcx
   100405aab: 48 13 09              adc    rcx,QWORD PTR [rcx]
   100405aae: 48 11 09              adc    QWORD PTR [rcx],rcx
   100405ab1: 48 13 89 ff ff ff 7f  adc    rcx,QWORD PTR [rcx+0x7fffffff]
   100405ab8: 48 11 89 ff ff ff 7f  adc    QWORD PTR [rcx+0x7fffffff],rcx
   100405abf: 48 11 d1              adc    rcx,rdx
   100405ac2: 48 13 0a              adc    rcx,QWORD PTR [rdx]
   100405ac5: 48 11 11              adc    QWORD PTR [rcx],rdx
   100405ac8: 48 13 8a ff ff ff 7f  adc    rcx,QWORD PTR [rdx+0x7fffffff]
   100405acf: 48 11 91 ff ff ff 7f  adc    QWORD PTR [rcx+0x7fffffff],rdx
   100405ad6: 48 11 d9              adc    rcx,rbx
   100405ad9: 48 13 0b              adc    rcx,QWORD PTR [rbx]
   100405adc: 48 11 19              adc    QWORD PTR [rcx],rbx
   100405adf: 48 13 8b ff ff ff 7f  adc    rcx,QWORD PTR [rbx+0x7fffffff]
   100405ae6: 48 11 99 ff ff ff 7f  adc    QWORD PTR [rcx+0x7fffffff],rbx
   100405aed: 48 11 e1              adc    rcx,rsp
   100405af0: 48 13 0c 24           adc    rcx,QWORD PTR [rsp]
   100405af4: 48 11 21              adc    QWORD PTR [rcx],rsp
   100405af7: 48 13 8c 24 ff ff ff 7f   adc    rcx,QWORD PTR [rsp+0x7fffffff]
   100405aff: 48 11 a1 ff ff ff 7f  adc    QWORD PTR [rcx+0x7fffffff],rsp
   100405b06: 48 11 e9              adc    rcx,rbp
   100405b09: 48 13 4d 00           adc    rcx,QWORD PTR [rbp+0x0]
   100405b0d: 48 11 29              adc    QWORD PTR [rcx],rbp
   100405b10: 48 13 8d ff ff ff 7f  adc    rcx,QWORD PTR [rbp+0x7fffffff]
   100405b17: 48 11 a9 ff ff ff 7f  adc    QWORD PTR [rcx+0x7fffffff],rbp
   100405b1e: 48 11 f1              adc    rcx,rsi
   100405b21: 48 13 0e              adc    rcx,QWORD PTR [rsi]
   100405b24: 48 11 31              adc    QWORD PTR [rcx],rsi
   100405b27: 48 13 8e ff ff ff 7f  adc    rcx,QWORD PTR [rsi+0x7fffffff]
   100405b2e: 48 11 b1 ff ff ff 7f  adc    QWORD PTR [rcx+0x7fffffff],rsi
   100405b35: 48 11 f9              adc    rcx,rdi
   100405b38: 48 13 0f              adc    rcx,QWORD PTR [rdi]
   100405b3b: 48 11 39              adc    QWORD PTR [rcx],rdi
   100405b3e: 48 13 8f ff ff ff 7f  adc    rcx,QWORD PTR [rdi+0x7fffffff]
   100405b45: 48 11 b9 ff ff ff 7f  adc    QWORD PTR [rcx+0x7fffffff],rdi
   100405b4c: 4c 11 c1              adc    rcx,r8
   100405b4f: 49 13 08              adc    rcx,QWORD PTR [r8]
   100405b52: 4c 11 01              adc    QWORD PTR [rcx],r8
   100405b55: 49 13 88 ff ff ff 7f  adc    rcx,QWORD PTR [r8+0x7fffffff]
   100405b5c: 4c 11 81 ff ff ff 7f  adc    QWORD PTR [rcx+0x7fffffff],r8
   100405b63: 4c 11 c9              adc    rcx,r9
   100405b66: 49 13 09              adc    rcx,QWORD PTR [r9]
   100405b69: 4c 11 09              adc    QWORD PTR [rcx],r9
   100405b6c: 49 13 89 ff ff ff 7f  adc    rcx,QWORD PTR [r9+0x7fffffff]
   100405b73: 4c 11 89 ff ff ff 7f  adc    QWORD PTR [rcx+0x7fffffff],r9
   100405b7a: 4c 11 d1              adc    rcx,r10
   100405b7d: 49 13 0a              adc    rcx,QWORD PTR [r10]
   100405b80: 4c 11 11              adc    QWORD PTR [rcx],r10
   100405b83: 49 13 8a ff ff ff 7f  adc    rcx,QWORD PTR [r10+0x7fffffff]
   100405b8a: 4c 11 91 ff ff ff 7f  adc    QWORD PTR [rcx+0x7fffffff],r10
   100405b91: 4c 11 d9              adc    rcx,r11
   100405b94: 49 13 0b              adc    rcx,QWORD PTR [r11]
   100405b97: 4c 11 19              adc    QWORD PTR [rcx],r11
   100405b9a: 49 13 8b ff ff ff 7f  adc    rcx,QWORD PTR [r11+0x7fffffff]
   100405ba1: 4c 11 99 ff ff ff 7f  adc    QWORD PTR [rcx+0x7fffffff],r11
   100405ba8: 4c 11 e1              adc    rcx,r12
   100405bab: 49 13 0c 24           adc    rcx,QWORD PTR [r12]
   100405baf: 4c 11 21              adc    QWORD PTR [rcx],r12
   100405bb2: 49 13 8c 24 ff ff ff 7f   adc    rcx,QWORD PTR [r12+0x7fffffff]
   100405bba: 4c 11 a1 ff ff ff 7f  adc    QWORD PTR [rcx+0x7fffffff],r12
   100405bc1: 4c 11 e9              adc    rcx,r13
   100405bc4: 49 13 4d 00           adc    rcx,QWORD PTR [r13+0x0]
   100405bc8: 4c 11 29              adc    QWORD PTR [rcx],r13
   100405bcb: 49 13 8d ff ff ff 7f  adc    rcx,QWORD PTR [r13+0x7fffffff]
   100405bd2: 4c 11 a9 ff ff ff 7f  adc    QWORD PTR [rcx+0x7fffffff],r13
   100405bd9: 4c 11 f1              adc    rcx,r14
   100405bdc: 49 13 0e              adc    rcx,QWORD PTR [r14]
   100405bdf: 4c 11 31              adc    QWORD PTR [rcx],r14
   100405be2: 49 13 8e ff ff ff 7f  adc    rcx,QWORD PTR [r14+0x7fffffff]
   100405be9: 4c 11 b1 ff ff ff 7f  adc    QWORD PTR [rcx+0x7fffffff],r14
   100405bf0: 4c 11 f9              adc    rcx,r15
   100405bf3: 49 13 0f              adc    rcx,QWORD PTR [r15]
   100405bf6: 4c 11 39              adc    QWORD PTR [rcx],r15
   100405bf9: 49 13 8f ff ff ff 7f  adc    rcx,QWORD PTR [r15+0x7fffffff]
   100405c00: 4c 11 b9 ff ff ff 7f  adc    QWORD PTR [rcx+0x7fffffff],r15
   100405c07: 48 81 d2 ff ff ff 7f  adc    rdx,0x7fffffff
   100405c0e: 48 11 c2              adc    rdx,rax
   100405c11: 48 13 10              adc    rdx,QWORD PTR [rax]
   100405c14: 48 11 02              adc    QWORD PTR [rdx],rax
   100405c17: 48 13 90 ff ff ff 7f  adc    rdx,QWORD PTR [rax+0x7fffffff]
   100405c1e: 48 11 82 ff ff ff 7f  adc    QWORD PTR [rdx+0x7fffffff],rax
   100405c25: 48 11 ca              adc    rdx,rcx
   100405c28: 48 13 11              adc    rdx,QWORD PTR [rcx]
   100405c2b: 48 11 0a              adc    QWORD PTR [rdx],rcx
   100405c2e: 48 13 91 ff ff ff 7f  adc    rdx,QWORD PTR [rcx+0x7fffffff]
   100405c35: 48 11 8a ff ff ff 7f  adc    QWORD PTR [rdx+0x7fffffff],rcx
   100405c3c: 48 11 d2              adc    rdx,rdx
   100405c3f: 48 13 12              adc    rdx,QWORD PTR [rdx]
   100405c42: 48 11 12              adc    QWORD PTR [rdx],rdx
   100405c45: 48 13 92 ff ff ff 7f  adc    rdx,QWORD PTR [rdx+0x7fffffff]
   100405c4c: 48 11 92 ff ff ff 7f  adc    QWORD PTR [rdx+0x7fffffff],rdx
   100405c53: 48 11 da              adc    rdx,rbx
   100405c56: 48 13 13              adc    rdx,QWORD PTR [rbx]
   100405c59: 48 11 1a              adc    QWORD PTR [rdx],rbx
   100405c5c: 48 13 93 ff ff ff 7f  adc    rdx,QWORD PTR [rbx+0x7fffffff]
   100405c63: 48 11 9a ff ff ff 7f  adc    QWORD PTR [rdx+0x7fffffff],rbx
   100405c6a: 48 11 e2              adc    rdx,rsp
   100405c6d: 48 13 14 24           adc    rdx,QWORD PTR [rsp]
   100405c71: 48 11 22              adc    QWORD PTR [rdx],rsp
   100405c74: 48 13 94 24 ff ff ff 7f   adc    rdx,QWORD PTR [rsp+0x7fffffff]
   100405c7c: 48 11 a2 ff ff ff 7f  adc    QWORD PTR [rdx+0x7fffffff],rsp
   100405c83: 48 11 ea              adc    rdx,rbp
   100405c86: 48 13 55 00           adc    rdx,QWORD PTR [rbp+0x0]
   100405c8a: 48 11 2a              adc    QWORD PTR [rdx],rbp
   100405c8d: 48 13 95 ff ff ff 7f  adc    rdx,QWORD PTR [rbp+0x7fffffff]
   100405c94: 48 11 aa ff ff ff 7f  adc    QWORD PTR [rdx+0x7fffffff],rbp
   100405c9b: 48 11 f2              adc    rdx,rsi
   100405c9e: 48 13 16              adc    rdx,QWORD PTR [rsi]
   100405ca1: 48 11 32              adc    QWORD PTR [rdx],rsi
   100405ca4: 48 13 96 ff ff ff 7f  adc    rdx,QWORD PTR [rsi+0x7fffffff]
   100405cab: 48 11 b2 ff ff ff 7f  adc    QWORD PTR [rdx+0x7fffffff],rsi
   100405cb2: 48 11 fa              adc    rdx,rdi
   100405cb5: 48 13 17              adc    rdx,QWORD PTR [rdi]
   100405cb8: 48 11 3a              adc    QWORD PTR [rdx],rdi
   100405cbb: 48 13 97 ff ff ff 7f  adc    rdx,QWORD PTR [rdi+0x7fffffff]
   100405cc2: 48 11 ba ff ff ff 7f  adc    QWORD PTR [rdx+0x7fffffff],rdi
   100405cc9: 4c 11 c2              adc    rdx,r8
   100405ccc: 49 13 10              adc    rdx,QWORD PTR [r8]
   100405ccf: 4c 11 02              adc    QWORD PTR [rdx],r8
   100405cd2: 49 13 90 ff ff ff 7f  adc    rdx,QWORD PTR [r8+0x7fffffff]
   100405cd9: 4c 11 82 ff ff ff 7f  adc    QWORD PTR [rdx+0x7fffffff],r8
   100405ce0: 4c 11 ca              adc    rdx,r9
   100405ce3: 49 13 11              adc    rdx,QWORD PTR [r9]
   100405ce6: 4c 11 0a              adc    QWORD PTR [rdx],r9
   100405ce9: 49 13 91 ff ff ff 7f  adc    rdx,QWORD PTR [r9+0x7fffffff]
   100405cf0: 4c 11 8a ff ff ff 7f  adc    QWORD PTR [rdx+0x7fffffff],r9
   100405cf7: 4c 11 d2              adc    rdx,r10
   100405cfa: 49 13 12              adc    rdx,QWORD PTR [r10]
   100405cfd: 4c 11 12              adc    QWORD PTR [rdx],r10
   100405d00: 49 13 92 ff ff ff 7f  adc    rdx,QWORD PTR [r10+0x7fffffff]
   100405d07: 4c 11 92 ff ff ff 7f  adc    QWORD PTR [rdx+0x7fffffff],r10
   100405d0e: 4c 11 da              adc    rdx,r11
   100405d11: 49 13 13              adc    rdx,QWORD PTR [r11]
   100405d14: 4c 11 1a              adc    QWORD PTR [rdx],r11
   100405d17: 49 13 93 ff ff ff 7f  adc    rdx,QWORD PTR [r11+0x7fffffff]
   100405d1e: 4c 11 9a ff ff ff 7f  adc    QWORD PTR [rdx+0x7fffffff],r11
   100405d25: 4c 11 e2              adc    rdx,r12
   100405d28: 49 13 14 24           adc    rdx,QWORD PTR [r12]
   100405d2c: 4c 11 22              adc    QWORD PTR [rdx],r12
   100405d2f: 49 13 94 24 ff ff ff 7f   adc    rdx,QWORD PTR [r12+0x7fffffff]
   100405d37: 4c 11 a2 ff ff ff 7f  adc    QWORD PTR [rdx+0x7fffffff],r12
   100405d3e: 4c 11 ea              adc    rdx,r13
   100405d41: 49 13 55 00           adc    rdx,QWORD PTR [r13+0x0]
   100405d45: 4c 11 2a              adc    QWORD PTR [rdx],r13
   100405d48: 49 13 95 ff ff ff 7f  adc    rdx,QWORD PTR [r13+0x7fffffff]
   100405d4f: 4c 11 aa ff ff ff 7f  adc    QWORD PTR [rdx+0x7fffffff],r13
   100405d56: 4c 11 f2              adc    rdx,r14
   100405d59: 49 13 16              adc    rdx,QWORD PTR [r14]
   100405d5c: 4c 11 32              adc    QWORD PTR [rdx],r14
   100405d5f: 49 13 96 ff ff ff 7f  adc    rdx,QWORD PTR [r14+0x7fffffff]
   100405d66: 4c 11 b2 ff ff ff 7f  adc    QWORD PTR [rdx+0x7fffffff],r14
   100405d6d: 4c 11 fa              adc    rdx,r15
   100405d70: 49 13 17              adc    rdx,QWORD PTR [r15]
   100405d73: 4c 11 3a              adc    QWORD PTR [rdx],r15
   100405d76: 49 13 97 ff ff ff 7f  adc    rdx,QWORD PTR [r15+0x7fffffff]
   100405d7d: 4c 11 ba ff ff ff 7f  adc    QWORD PTR [rdx+0x7fffffff],r15
   100405d84: 48 81 d3 ff ff ff 7f  adc    rbx,0x7fffffff
   100405d8b: 48 11 c3              adc    rbx,rax
   100405d8e: 48 13 18              adc    rbx,QWORD PTR [rax]
   100405d91: 48 11 03              adc    QWORD PTR [rbx],rax
   100405d94: 48 13 98 ff ff ff 7f  adc    rbx,QWORD PTR [rax+0x7fffffff]
   100405d9b: 48 11 83 ff ff ff 7f  adc    QWORD PTR [rbx+0x7fffffff],rax
   100405da2: 48 11 cb              adc    rbx,rcx
   100405da5: 48 13 19              adc    rbx,QWORD PTR [rcx]
   100405da8: 48 11 0b              adc    QWORD PTR [rbx],rcx
   100405dab: 48 13 99 ff ff ff 7f  adc    rbx,QWORD PTR [rcx+0x7fffffff]
   100405db2: 48 11 8b ff ff ff 7f  adc    QWORD PTR [rbx+0x7fffffff],rcx
   100405db9: 48 11 d3              adc    rbx,rdx
   100405dbc: 48 13 1a              adc    rbx,QWORD PTR [rdx]
   100405dbf: 48 11 13              adc    QWORD PTR [rbx],rdx
   100405dc2: 48 13 9a ff ff ff 7f  adc    rbx,QWORD PTR [rdx+0x7fffffff]
   100405dc9: 48 11 93 ff ff ff 7f  adc    QWORD PTR [rbx+0x7fffffff],rdx
   100405dd0: 48 11 db              adc    rbx,rbx
   100405dd3: 48 13 1b              adc    rbx,QWORD PTR [rbx]
   100405dd6: 48 11 1b              adc    QWORD PTR [rbx],rbx
   100405dd9: 48 13 9b ff ff ff 7f  adc    rbx,QWORD PTR [rbx+0x7fffffff]
   100405de0: 48 11 9b ff ff ff 7f  adc    QWORD PTR [rbx+0x7fffffff],rbx
   100405de7: 48 11 e3              adc    rbx,rsp
   100405dea: 48 13 1c 24           adc    rbx,QWORD PTR [rsp]
   100405dee: 48 11 23              adc    QWORD PTR [rbx],rsp
   100405df1: 48 13 9c 24 ff ff ff 7f   adc    rbx,QWORD PTR [rsp+0x7fffffff]
   100405df9: 48 11 a3 ff ff ff 7f  adc    QWORD PTR [rbx+0x7fffffff],rsp
   100405e00: 48 11 eb              adc    rbx,rbp
   100405e03: 48 13 5d 00           adc    rbx,QWORD PTR [rbp+0x0]
   100405e07: 48 11 2b              adc    QWORD PTR [rbx],rbp
   100405e0a: 48 13 9d ff ff ff 7f  adc    rbx,QWORD PTR [rbp+0x7fffffff]
   100405e11: 48 11 ab ff ff ff 7f  adc    QWORD PTR [rbx+0x7fffffff],rbp
   100405e18: 48 11 f3              adc    rbx,rsi
   100405e1b: 48 13 1e              adc    rbx,QWORD PTR [rsi]
   100405e1e: 48 11 33              adc    QWORD PTR [rbx],rsi
   100405e21: 48 13 9e ff ff ff 7f  adc    rbx,QWORD PTR [rsi+0x7fffffff]
   100405e28: 48 11 b3 ff ff ff 7f  adc    QWORD PTR [rbx+0x7fffffff],rsi
   100405e2f: 48 11 fb              adc    rbx,rdi
   100405e32: 48 13 1f              adc    rbx,QWORD PTR [rdi]
   100405e35: 48 11 3b              adc    QWORD PTR [rbx],rdi
   100405e38: 48 13 9f ff ff ff 7f  adc    rbx,QWORD PTR [rdi+0x7fffffff]
   100405e3f: 48 11 bb ff ff ff 7f  adc    QWORD PTR [rbx+0x7fffffff],rdi
   100405e46: 4c 11 c3              adc    rbx,r8
   100405e49: 49 13 18              adc    rbx,QWORD PTR [r8]
   100405e4c: 4c 11 03              adc    QWORD PTR [rbx],r8
   100405e4f: 49 13 98 ff ff ff 7f  adc    rbx,QWORD PTR [r8+0x7fffffff]
   100405e56: 4c 11 83 ff ff ff 7f  adc    QWORD PTR [rbx+0x7fffffff],r8
   100405e5d: 4c 11 cb              adc    rbx,r9
   100405e60: 49 13 19              adc    rbx,QWORD PTR [r9]
   100405e63: 4c 11 0b              adc    QWORD PTR [rbx],r9
   100405e66: 49 13 99 ff ff ff 7f  adc    rbx,QWORD PTR [r9+0x7fffffff]
   100405e6d: 4c 11 8b ff ff ff 7f  adc    QWORD PTR [rbx+0x7fffffff],r9
   100405e74: 4c 11 d3              adc    rbx,r10
   100405e77: 49 13 1a              adc    rbx,QWORD PTR [r10]
   100405e7a: 4c 11 13              adc    QWORD PTR [rbx],r10
   100405e7d: 49 13 9a ff ff ff 7f  adc    rbx,QWORD PTR [r10+0x7fffffff]
   100405e84: 4c 11 93 ff ff ff 7f  adc    QWORD PTR [rbx+0x7fffffff],r10
   100405e8b: 4c 11 db              adc    rbx,r11
   100405e8e: 49 13 1b              adc    rbx,QWORD PTR [r11]
   100405e91: 4c 11 1b              adc    QWORD PTR [rbx],r11
   100405e94: 49 13 9b ff ff ff 7f  adc    rbx,QWORD PTR [r11+0x7fffffff]
   100405e9b: 4c 11 9b ff ff ff 7f  adc    QWORD PTR [rbx+0x7fffffff],r11
   100405ea2: 4c 11 e3              adc    rbx,r12
   100405ea5: 49 13 1c 24           adc    rbx,QWORD PTR [r12]
   100405ea9: 4c 11 23              adc    QWORD PTR [rbx],r12
   100405eac: 49 13 9c 24 ff ff ff 7f   adc    rbx,QWORD PTR [r12+0x7fffffff]
   100405eb4: 4c 11 a3 ff ff ff 7f  adc    QWORD PTR [rbx+0x7fffffff],r12
   100405ebb: 4c 11 eb              adc    rbx,r13
   100405ebe: 49 13 5d 00           adc    rbx,QWORD PTR [r13+0x0]
   100405ec2: 4c 11 2b              adc    QWORD PTR [rbx],r13
   100405ec5: 49 13 9d ff ff ff 7f  adc    rbx,QWORD PTR [r13+0x7fffffff]
   100405ecc: 4c 11 ab ff ff ff 7f  adc    QWORD PTR [rbx+0x7fffffff],r13
   100405ed3: 4c 11 f3              adc    rbx,r14
   100405ed6: 49 13 1e              adc    rbx,QWORD PTR [r14]
   100405ed9: 4c 11 33              adc    QWORD PTR [rbx],r14
   100405edc: 49 13 9e ff ff ff 7f  adc    rbx,QWORD PTR [r14+0x7fffffff]
   100405ee3: 4c 11 b3 ff ff ff 7f  adc    QWORD PTR [rbx+0x7fffffff],r14
   100405eea: 4c 11 fb              adc    rbx,r15
   100405eed: 49 13 1f              adc    rbx,QWORD PTR [r15]
   100405ef0: 4c 11 3b              adc    QWORD PTR [rbx],r15
   100405ef3: 49 13 9f ff ff ff 7f  adc    rbx,QWORD PTR [r15+0x7fffffff]
   100405efa: 4c 11 bb ff ff ff 7f  adc    QWORD PTR [rbx+0x7fffffff],r15
   100405f01: 48 81 d4 ff ff ff 7f  adc    rsp,0x7fffffff
   100405f08: 48 11 c4              adc    rsp,rax
   100405f0b: 48 13 20              adc    rsp,QWORD PTR [rax]
   100405f0e: 48 11 04 24           adc    QWORD PTR [rsp],rax
   100405f12: 48 13 a0 ff ff ff 7f  adc    rsp,QWORD PTR [rax+0x7fffffff]
   100405f19: 48 11 84 24 ff ff ff 7f   adc    QWORD PTR [rsp+0x7fffffff],rax
   100405f21: 48 11 cc              adc    rsp,rcx
   100405f24: 48 13 21              adc    rsp,QWORD PTR [rcx]
   100405f27: 48 11 0c 24           adc    QWORD PTR [rsp],rcx
   100405f2b: 48 13 a1 ff ff ff 7f  adc    rsp,QWORD PTR [rcx+0x7fffffff]
   100405f32: 48 11 8c 24 ff ff ff 7f   adc    QWORD PTR [rsp+0x7fffffff],rcx
   100405f3a: 48 11 d4              adc    rsp,rdx
   100405f3d: 48 13 22              adc    rsp,QWORD PTR [rdx]
   100405f40: 48 11 14 24           adc    QWORD PTR [rsp],rdx
   100405f44: 48 13 a2 ff ff ff 7f  adc    rsp,QWORD PTR [rdx+0x7fffffff]
   100405f4b: 48 11 94 24 ff ff ff 7f   adc    QWORD PTR [rsp+0x7fffffff],rdx
   100405f53: 48 11 dc              adc    rsp,rbx
   100405f56: 48 13 23              adc    rsp,QWORD PTR [rbx]
   100405f59: 48 11 1c 24           adc    QWORD PTR [rsp],rbx
   100405f5d: 48 13 a3 ff ff ff 7f  adc    rsp,QWORD PTR [rbx+0x7fffffff]
   100405f64: 48 11 9c 24 ff ff ff 7f   adc    QWORD PTR [rsp+0x7fffffff],rbx
   100405f6c: 48 11 e4              adc    rsp,rsp
   100405f6f: 48 13 24 24           adc    rsp,QWORD PTR [rsp]
   100405f73: 48 11 24 24           adc    QWORD PTR [rsp],rsp
   100405f77: 48 13 a4 24 ff ff ff 7f   adc    rsp,QWORD PTR [rsp+0x7fffffff]
   100405f7f: 48 11 a4 24 ff ff ff 7f   adc    QWORD PTR [rsp+0x7fffffff],rsp
   100405f87: 48 11 ec              adc    rsp,rbp
   100405f8a: 48 13 65 00           adc    rsp,QWORD PTR [rbp+0x0]
   100405f8e: 48 11 2c 24           adc    QWORD PTR [rsp],rbp
   100405f92: 48 13 a5 ff ff ff 7f  adc    rsp,QWORD PTR [rbp+0x7fffffff]
   100405f99: 48 11 ac 24 ff ff ff 7f   adc    QWORD PTR [rsp+0x7fffffff],rbp
   100405fa1: 48 11 f4              adc    rsp,rsi
   100405fa4: 48 13 26              adc    rsp,QWORD PTR [rsi]
   100405fa7: 48 11 34 24           adc    QWORD PTR [rsp],rsi
   100405fab: 48 13 a6 ff ff ff 7f  adc    rsp,QWORD PTR [rsi+0x7fffffff]
   100405fb2: 48 11 b4 24 ff ff ff 7f   adc    QWORD PTR [rsp+0x7fffffff],rsi
   100405fba: 48 11 fc              adc    rsp,rdi
   100405fbd: 48 13 27              adc    rsp,QWORD PTR [rdi]
   100405fc0: 48 11 3c 24           adc    QWORD PTR [rsp],rdi
   100405fc4: 48 13 a7 ff ff ff 7f  adc    rsp,QWORD PTR [rdi+0x7fffffff]
   100405fcb: 48 11 bc 24 ff ff ff 7f   adc    QWORD PTR [rsp+0x7fffffff],rdi
   100405fd3: 4c 11 c4              adc    rsp,r8
   100405fd6: 49 13 20              adc    rsp,QWORD PTR [r8]
   100405fd9: 4c 11 04 24           adc    QWORD PTR [rsp],r8
   100405fdd: 49 13 a0 ff ff ff 7f  adc    rsp,QWORD PTR [r8+0x7fffffff]
   100405fe4: 4c 11 84 24 ff ff ff 7f   adc    QWORD PTR [rsp+0x7fffffff],r8
   100405fec: 4c 11 cc              adc    rsp,r9
   100405fef: 49 13 21              adc    rsp,QWORD PTR [r9]
   100405ff2: 4c 11 0c 24           adc    QWORD PTR [rsp],r9
   100405ff6: 49 13 a1 ff ff ff 7f  adc    rsp,QWORD PTR [r9+0x7fffffff]
   100405ffd: 4c 11 8c 24 ff ff ff 7f   adc    QWORD PTR [rsp+0x7fffffff],r9
   100406005: 4c 11 d4              adc    rsp,r10
   100406008: 49 13 22              adc    rsp,QWORD PTR [r10]
   10040600b: 4c 11 14 24           adc    QWORD PTR [rsp],r10
   10040600f: 49 13 a2 ff ff ff 7f  adc    rsp,QWORD PTR [r10+0x7fffffff]
   100406016: 4c 11 94 24 ff ff ff 7f   adc    QWORD PTR [rsp+0x7fffffff],r10
   10040601e: 4c 11 dc              adc    rsp,r11
   100406021: 49 13 23              adc    rsp,QWORD PTR [r11]
   100406024: 4c 11 1c 24           adc    QWORD PTR [rsp],r11
   100406028: 49 13 a3 ff ff ff 7f  adc    rsp,QWORD PTR [r11+0x7fffffff]
   10040602f: 4c 11 9c 24 ff ff ff 7f   adc    QWORD PTR [rsp+0x7fffffff],r11
   100406037: 4c 11 e4              adc    rsp,r12
   10040603a: 49 13 24 24           adc    rsp,QWORD PTR [r12]
   10040603e: 4c 11 24 24           adc    QWORD PTR [rsp],r12
   100406042: 49 13 a4 24 ff ff ff 7f   adc    rsp,QWORD PTR [r12+0x7fffffff]
   10040604a: 4c 11 a4 24 ff ff ff 7f   adc    QWORD PTR [rsp+0x7fffffff],r12
   100406052: 4c 11 ec              adc    rsp,r13
   100406055: 49 13 65 00           adc    rsp,QWORD PTR [r13+0x0]
   100406059: 4c 11 2c 24           adc    QWORD PTR [rsp],r13
   10040605d: 49 13 a5 ff ff ff 7f  adc    rsp,QWORD PTR [r13+0x7fffffff]
   100406064: 4c 11 ac 24 ff ff ff 7f   adc    QWORD PTR [rsp+0x7fffffff],r13
   10040606c: 4c 11 f4              adc    rsp,r14
   10040606f: 49 13 26              adc    rsp,QWORD PTR [r14]
   100406072: 4c 11 34 24           adc    QWORD PTR [rsp],r14
   100406076: 49 13 a6 ff ff ff 7f  adc    rsp,QWORD PTR [r14+0x7fffffff]
   10040607d: 4c 11 b4 24 ff ff ff 7f   adc    QWORD PTR [rsp+0x7fffffff],r14
   100406085: 4c 11 fc              adc    rsp,r15
   100406088: 49 13 27              adc    rsp,QWORD PTR [r15]
   10040608b: 4c 11 3c 24           adc    QWORD PTR [rsp],r15
   10040608f: 49 13 a7 ff ff ff 7f  adc    rsp,QWORD PTR [r15+0x7fffffff]
   100406096: 4c 11 bc 24 ff ff ff 7f   adc    QWORD PTR [rsp+0x7fffffff],r15
   10040609e: 48 81 d5 ff ff ff 7f  adc    rbp,0x7fffffff
   1004060a5: 48 11 c5              adc    rbp,rax
   1004060a8: 48 13 28              adc    rbp,QWORD PTR [rax]
   1004060ab: 48 11 45 00           adc    QWORD PTR [rbp+0x0],rax
   1004060af: 48 13 a8 ff ff ff 7f  adc    rbp,QWORD PTR [rax+0x7fffffff]
   1004060b6: 48 11 85 ff ff ff 7f  adc    QWORD PTR [rbp+0x7fffffff],rax
   1004060bd: 48 11 cd              adc    rbp,rcx
   1004060c0: 48 13 29              adc    rbp,QWORD PTR [rcx]
   1004060c3: 48 11 4d 00           adc    QWORD PTR [rbp+0x0],rcx
   1004060c7: 48 13 a9 ff ff ff 7f  adc    rbp,QWORD PTR [rcx+0x7fffffff]
   1004060ce: 48 11 8d ff ff ff 7f  adc    QWORD PTR [rbp+0x7fffffff],rcx
   1004060d5: 48 11 d5              adc    rbp,rdx
   1004060d8: 48 13 2a              adc    rbp,QWORD PTR [rdx]
   1004060db: 48 11 55 00           adc    QWORD PTR [rbp+0x0],rdx
   1004060df: 48 13 aa ff ff ff 7f  adc    rbp,QWORD PTR [rdx+0x7fffffff]
   1004060e6: 48 11 95 ff ff ff 7f  adc    QWORD PTR [rbp+0x7fffffff],rdx
   1004060ed: 48 11 dd              adc    rbp,rbx
   1004060f0: 48 13 2b              adc    rbp,QWORD PTR [rbx]
   1004060f3: 48 11 5d 00           adc    QWORD PTR [rbp+0x0],rbx
   1004060f7: 48 13 ab ff ff ff 7f  adc    rbp,QWORD PTR [rbx+0x7fffffff]
   1004060fe: 48 11 9d ff ff ff 7f  adc    QWORD PTR [rbp+0x7fffffff],rbx
   100406105: 48 11 e5              adc    rbp,rsp
   100406108: 48 13 2c 24           adc    rbp,QWORD PTR [rsp]
   10040610c: 48 11 65 00           adc    QWORD PTR [rbp+0x0],rsp
   100406110: 48 13 ac 24 ff ff ff 7f   adc    rbp,QWORD PTR [rsp+0x7fffffff]
   100406118: 48 11 a5 ff ff ff 7f  adc    QWORD PTR [rbp+0x7fffffff],rsp
   10040611f: 48 11 ed              adc    rbp,rbp
   100406122: 48 13 6d 00           adc    rbp,QWORD PTR [rbp+0x0]
   100406126: 48 11 6d 00           adc    QWORD PTR [rbp+0x0],rbp
   10040612a: 48 13 ad ff ff ff 7f  adc    rbp,QWORD PTR [rbp+0x7fffffff]
   100406131: 48 11 ad ff ff ff 7f  adc    QWORD PTR [rbp+0x7fffffff],rbp
   100406138: 48 11 f5              adc    rbp,rsi
   10040613b: 48 13 2e              adc    rbp,QWORD PTR [rsi]
   10040613e: 48 11 75 00           adc    QWORD PTR [rbp+0x0],rsi
   100406142: 48 13 ae ff ff ff 7f  adc    rbp,QWORD PTR [rsi+0x7fffffff]
   100406149: 48 11 b5 ff ff ff 7f  adc    QWORD PTR [rbp+0x7fffffff],rsi
   100406150: 48 11 fd              adc    rbp,rdi
   100406153: 48 13 2f              adc    rbp,QWORD PTR [rdi]
   100406156: 48 11 7d 00           adc    QWORD PTR [rbp+0x0],rdi
   10040615a: 48 13 af ff ff ff 7f  adc    rbp,QWORD PTR [rdi+0x7fffffff]
   100406161: 48 11 bd ff ff ff 7f  adc    QWORD PTR [rbp+0x7fffffff],rdi
   100406168: 4c 11 c5              adc    rbp,r8
   10040616b: 49 13 28              adc    rbp,QWORD PTR [r8]
   10040616e: 4c 11 45 00           adc    QWORD PTR [rbp+0x0],r8
   100406172: 49 13 a8 ff ff ff 7f  adc    rbp,QWORD PTR [r8+0x7fffffff]
   100406179: 4c 11 85 ff ff ff 7f  adc    QWORD PTR [rbp+0x7fffffff],r8
   100406180: 4c 11 cd              adc    rbp,r9
   100406183: 49 13 29              adc    rbp,QWORD PTR [r9]
   100406186: 4c 11 4d 00           adc    QWORD PTR [rbp+0x0],r9
   10040618a: 49 13 a9 ff ff ff 7f  adc    rbp,QWORD PTR [r9+0x7fffffff]
   100406191: 4c 11 8d ff ff ff 7f  adc    QWORD PTR [rbp+0x7fffffff],r9
   100406198: 4c 11 d5              adc    rbp,r10
   10040619b: 49 13 2a              adc    rbp,QWORD PTR [r10]
   10040619e: 4c 11 55 00           adc    QWORD PTR [rbp+0x0],r10
   1004061a2: 49 13 aa ff ff ff 7f  adc    rbp,QWORD PTR [r10+0x7fffffff]
   1004061a9: 4c 11 95 ff ff ff 7f  adc    QWORD PTR [rbp+0x7fffffff],r10
   1004061b0: 4c 11 dd              adc    rbp,r11
   1004061b3: 49 13 2b              adc    rbp,QWORD PTR [r11]
   1004061b6: 4c 11 5d 00           adc    QWORD PTR [rbp+0x0],r11
   1004061ba: 49 13 ab ff ff ff 7f  adc    rbp,QWORD PTR [r11+0x7fffffff]
   1004061c1: 4c 11 9d ff ff ff 7f  adc    QWORD PTR [rbp+0x7fffffff],r11
   1004061c8: 4c 11 e5              adc    rbp,r12
   1004061cb: 49 13 2c 24           adc    rbp,QWORD PTR [r12]
   1004061cf: 4c 11 65 00           adc    QWORD PTR [rbp+0x0],r12
   1004061d3: 49 13 ac 24 ff ff ff 7f   adc    rbp,QWORD PTR [r12+0x7fffffff]
   1004061db: 4c 11 a5 ff ff ff 7f  adc    QWORD PTR [rbp+0x7fffffff],r12
   1004061e2: 4c 11 ed              adc    rbp,r13
   1004061e5: 49 13 6d 00           adc    rbp,QWORD PTR [r13+0x0]
   1004061e9: 4c 11 6d 00           adc    QWORD PTR [rbp+0x0],r13
   1004061ed: 49 13 ad ff ff ff 7f  adc    rbp,QWORD PTR [r13+0x7fffffff]
   1004061f4: 4c 11 ad ff ff ff 7f  adc    QWORD PTR [rbp+0x7fffffff],r13
   1004061fb: 4c 11 f5              adc    rbp,r14
   1004061fe: 49 13 2e              adc    rbp,QWORD PTR [r14]
   100406201: 4c 11 75 00           adc    QWORD PTR [rbp+0x0],r14
   100406205: 49 13 ae ff ff ff 7f  adc    rbp,QWORD PTR [r14+0x7fffffff]
   10040620c: 4c 11 b5 ff ff ff 7f  adc    QWORD PTR [rbp+0x7fffffff],r14
   100406213: 4c 11 fd              adc    rbp,r15
   100406216: 49 13 2f              adc    rbp,QWORD PTR [r15]
   100406219: 4c 11 7d 00           adc    QWORD PTR [rbp+0x0],r15
   10040621d: 49 13 af ff ff ff 7f  adc    rbp,QWORD PTR [r15+0x7fffffff]
   100406224: 4c 11 bd ff ff ff 7f  adc    QWORD PTR [rbp+0x7fffffff],r15
   10040622b: 48 81 d6 ff ff ff 7f  adc    rsi,0x7fffffff
   100406232: 48 11 c6              adc    rsi,rax
   100406235: 48 13 30              adc    rsi,QWORD PTR [rax]
   100406238: 48 11 06              adc    QWORD PTR [rsi],rax
   10040623b: 48 13 b0 ff ff ff 7f  adc    rsi,QWORD PTR [rax+0x7fffffff]
   100406242: 48 11 86 ff ff ff 7f  adc    QWORD PTR [rsi+0x7fffffff],rax
   100406249: 48 11 ce              adc    rsi,rcx
   10040624c: 48 13 31              adc    rsi,QWORD PTR [rcx]
   10040624f: 48 11 0e              adc    QWORD PTR [rsi],rcx
   100406252: 48 13 b1 ff ff ff 7f  adc    rsi,QWORD PTR [rcx+0x7fffffff]
   100406259: 48 11 8e ff ff ff 7f  adc    QWORD PTR [rsi+0x7fffffff],rcx
   100406260: 48 11 d6              adc    rsi,rdx
   100406263: 48 13 32              adc    rsi,QWORD PTR [rdx]
   100406266: 48 11 16              adc    QWORD PTR [rsi],rdx
   100406269: 48 13 b2 ff ff ff 7f  adc    rsi,QWORD PTR [rdx+0x7fffffff]
   100406270: 48 11 96 ff ff ff 7f  adc    QWORD PTR [rsi+0x7fffffff],rdx
   100406277: 48 11 de              adc    rsi,rbx
   10040627a: 48 13 33              adc    rsi,QWORD PTR [rbx]
   10040627d: 48 11 1e              adc    QWORD PTR [rsi],rbx
   100406280: 48 13 b3 ff ff ff 7f  adc    rsi,QWORD PTR [rbx+0x7fffffff]
   100406287: 48 11 9e ff ff ff 7f  adc    QWORD PTR [rsi+0x7fffffff],rbx
   10040628e: 48 11 e6              adc    rsi,rsp
   100406291: 48 13 34 24           adc    rsi,QWORD PTR [rsp]
   100406295: 48 11 26              adc    QWORD PTR [rsi],rsp
   100406298: 48 13 b4 24 ff ff ff 7f   adc    rsi,QWORD PTR [rsp+0x7fffffff]
   1004062a0: 48 11 a6 ff ff ff 7f  adc    QWORD PTR [rsi+0x7fffffff],rsp
   1004062a7: 48 11 ee              adc    rsi,rbp
   1004062aa: 48 13 75 00           adc    rsi,QWORD PTR [rbp+0x0]
   1004062ae: 48 11 2e              adc    QWORD PTR [rsi],rbp
   1004062b1: 48 13 b5 ff ff ff 7f  adc    rsi,QWORD PTR [rbp+0x7fffffff]
   1004062b8: 48 11 ae ff ff ff 7f  adc    QWORD PTR [rsi+0x7fffffff],rbp
   1004062bf: 48 11 f6              adc    rsi,rsi
   1004062c2: 48 13 36              adc    rsi,QWORD PTR [rsi]
   1004062c5: 48 11 36              adc    QWORD PTR [rsi],rsi
   1004062c8: 48 13 b6 ff ff ff 7f  adc    rsi,QWORD PTR [rsi+0x7fffffff]
   1004062cf: 48 11 b6 ff ff ff 7f  adc    QWORD PTR [rsi+0x7fffffff],rsi
   1004062d6: 48 11 fe              adc    rsi,rdi
   1004062d9: 48 13 37              adc    rsi,QWORD PTR [rdi]
   1004062dc: 48 11 3e              adc    QWORD PTR [rsi],rdi
   1004062df: 48 13 b7 ff ff ff 7f  adc    rsi,QWORD PTR [rdi+0x7fffffff]
   1004062e6: 48 11 be ff ff ff 7f  adc    QWORD PTR [rsi+0x7fffffff],rdi
   1004062ed: 4c 11 c6              adc    rsi,r8
   1004062f0: 49 13 30              adc    rsi,QWORD PTR [r8]
   1004062f3: 4c 11 06              adc    QWORD PTR [rsi],r8
   1004062f6: 49 13 b0 ff ff ff 7f  adc    rsi,QWORD PTR [r8+0x7fffffff]
   1004062fd: 4c 11 86 ff ff ff 7f  adc    QWORD PTR [rsi+0x7fffffff],r8
   100406304: 4c 11 ce              adc    rsi,r9
   100406307: 49 13 31              adc    rsi,QWORD PTR [r9]
   10040630a: 4c 11 0e              adc    QWORD PTR [rsi],r9
   10040630d: 49 13 b1 ff ff ff 7f  adc    rsi,QWORD PTR [r9+0x7fffffff]
   100406314: 4c 11 8e ff ff ff 7f  adc    QWORD PTR [rsi+0x7fffffff],r9
   10040631b: 4c 11 d6              adc    rsi,r10
   10040631e: 49 13 32              adc    rsi,QWORD PTR [r10]
   100406321: 4c 11 16              adc    QWORD PTR [rsi],r10
   100406324: 49 13 b2 ff ff ff 7f  adc    rsi,QWORD PTR [r10+0x7fffffff]
   10040632b: 4c 11 96 ff ff ff 7f  adc    QWORD PTR [rsi+0x7fffffff],r10
   100406332: 4c 11 de              adc    rsi,r11
   100406335: 49 13 33              adc    rsi,QWORD PTR [r11]
   100406338: 4c 11 1e              adc    QWORD PTR [rsi],r11
   10040633b: 49 13 b3 ff ff ff 7f  adc    rsi,QWORD PTR [r11+0x7fffffff]
   100406342: 4c 11 9e ff ff ff 7f  adc    QWORD PTR [rsi+0x7fffffff],r11
   100406349: 4c 11 e6              adc    rsi,r12
   10040634c: 49 13 34 24           adc    rsi,QWORD PTR [r12]
   100406350: 4c 11 26              adc    QWORD PTR [rsi],r12
   100406353: 49 13 b4 24 ff ff ff 7f   adc    rsi,QWORD PTR [r12+0x7fffffff]
   10040635b: 4c 11 a6 ff ff ff 7f  adc    QWORD PTR [rsi+0x7fffffff],r12
   100406362: 4c 11 ee              adc    rsi,r13
   100406365: 49 13 75 00           adc    rsi,QWORD PTR [r13+0x0]
   100406369: 4c 11 2e              adc    QWORD PTR [rsi],r13
   10040636c: 49 13 b5 ff ff ff 7f  adc    rsi,QWORD PTR [r13+0x7fffffff]
   100406373: 4c 11 ae ff ff ff 7f  adc    QWORD PTR [rsi+0x7fffffff],r13
   10040637a: 4c 11 f6              adc    rsi,r14
   10040637d: 49 13 36              adc    rsi,QWORD PTR [r14]
   100406380: 4c 11 36              adc    QWORD PTR [rsi],r14
   100406383: 49 13 b6 ff ff ff 7f  adc    rsi,QWORD PTR [r14+0x7fffffff]
   10040638a: 4c 11 b6 ff ff ff 7f  adc    QWORD PTR [rsi+0x7fffffff],r14
   100406391: 4c 11 fe              adc    rsi,r15
   100406394: 49 13 37              adc    rsi,QWORD PTR [r15]
   100406397: 4c 11 3e              adc    QWORD PTR [rsi],r15
   10040639a: 49 13 b7 ff ff ff 7f  adc    rsi,QWORD PTR [r15+0x7fffffff]
   1004063a1: 4c 11 be ff ff ff 7f  adc    QWORD PTR [rsi+0x7fffffff],r15
   1004063a8: 48 81 d7 ff ff ff 7f  adc    rdi,0x7fffffff
   1004063af: 48 11 c7              adc    rdi,rax
   1004063b2: 48 13 38              adc    rdi,QWORD PTR [rax]
   1004063b5: 48 11 07              adc    QWORD PTR [rdi],rax
   1004063b8: 48 13 b8 ff ff ff 7f  adc    rdi,QWORD PTR [rax+0x7fffffff]
   1004063bf: 48 11 87 ff ff ff 7f  adc    QWORD PTR [rdi+0x7fffffff],rax
   1004063c6: 48 11 cf              adc    rdi,rcx
   1004063c9: 48 13 39              adc    rdi,QWORD PTR [rcx]
   1004063cc: 48 11 0f              adc    QWORD PTR [rdi],rcx
   1004063cf: 48 13 b9 ff ff ff 7f  adc    rdi,QWORD PTR [rcx+0x7fffffff]
   1004063d6: 48 11 8f ff ff ff 7f  adc    QWORD PTR [rdi+0x7fffffff],rcx
   1004063dd: 48 11 d7              adc    rdi,rdx
   1004063e0: 48 13 3a              adc    rdi,QWORD PTR [rdx]
   1004063e3: 48 11 17              adc    QWORD PTR [rdi],rdx
   1004063e6: 48 13 ba ff ff ff 7f  adc    rdi,QWORD PTR [rdx+0x7fffffff]
   1004063ed: 48 11 97 ff ff ff 7f  adc    QWORD PTR [rdi+0x7fffffff],rdx
   1004063f4: 48 11 df              adc    rdi,rbx
   1004063f7: 48 13 3b              adc    rdi,QWORD PTR [rbx]
   1004063fa: 48 11 1f              adc    QWORD PTR [rdi],rbx
   1004063fd: 48 13 bb ff ff ff 7f  adc    rdi,QWORD PTR [rbx+0x7fffffff]
   100406404: 48 11 9f ff ff ff 7f  adc    QWORD PTR [rdi+0x7fffffff],rbx
   10040640b: 48 11 e7              adc    rdi,rsp
   10040640e: 48 13 3c 24           adc    rdi,QWORD PTR [rsp]
   100406412: 48 11 27              adc    QWORD PTR [rdi],rsp
   100406415: 48 13 bc 24 ff ff ff 7f   adc    rdi,QWORD PTR [rsp+0x7fffffff]
   10040641d: 48 11 a7 ff ff ff 7f  adc    QWORD PTR [rdi+0x7fffffff],rsp
   100406424: 48 11 ef              adc    rdi,rbp
   100406427: 48 13 7d 00           adc    rdi,QWORD PTR [rbp+0x0]
   10040642b: 48 11 2f              adc    QWORD PTR [rdi],rbp
   10040642e: 48 13 bd ff ff ff 7f  adc    rdi,QWORD PTR [rbp+0x7fffffff]
   100406435: 48 11 af ff ff ff 7f  adc    QWORD PTR [rdi+0x7fffffff],rbp
   10040643c: 48 11 f7              adc    rdi,rsi
   10040643f: 48 13 3e              adc    rdi,QWORD PTR [rsi]
   100406442: 48 11 37              adc    QWORD PTR [rdi],rsi
   100406445: 48 13 be ff ff ff 7f  adc    rdi,QWORD PTR [rsi+0x7fffffff]
   10040644c: 48 11 b7 ff ff ff 7f  adc    QWORD PTR [rdi+0x7fffffff],rsi
   100406453: 48 11 ff              adc    rdi,rdi
   100406456: 48 13 3f              adc    rdi,QWORD PTR [rdi]
   100406459: 48 11 3f              adc    QWORD PTR [rdi],rdi
   10040645c: 48 13 bf ff ff ff 7f  adc    rdi,QWORD PTR [rdi+0x7fffffff]
   100406463: 48 11 bf ff ff ff 7f  adc    QWORD PTR [rdi+0x7fffffff],rdi
   10040646a: 4c 11 c7              adc    rdi,r8
   10040646d: 49 13 38              adc    rdi,QWORD PTR [r8]
   100406470: 4c 11 07              adc    QWORD PTR [rdi],r8
   100406473: 49 13 b8 ff ff ff 7f  adc    rdi,QWORD PTR [r8+0x7fffffff]
   10040647a: 4c 11 87 ff ff ff 7f  adc    QWORD PTR [rdi+0x7fffffff],r8
   100406481: 4c 11 cf              adc    rdi,r9
   100406484: 49 13 39              adc    rdi,QWORD PTR [r9]
   100406487: 4c 11 0f              adc    QWORD PTR [rdi],r9
   10040648a: 49 13 b9 ff ff ff 7f  adc    rdi,QWORD PTR [r9+0x7fffffff]
   100406491: 4c 11 8f ff ff ff 7f  adc    QWORD PTR [rdi+0x7fffffff],r9
   100406498: 4c 11 d7              adc    rdi,r10
   10040649b: 49 13 3a              adc    rdi,QWORD PTR [r10]
   10040649e: 4c 11 17              adc    QWORD PTR [rdi],r10
   1004064a1: 49 13 ba ff ff ff 7f  adc    rdi,QWORD PTR [r10+0x7fffffff]
   1004064a8: 4c 11 97 ff ff ff 7f  adc    QWORD PTR [rdi+0x7fffffff],r10
   1004064af: 4c 11 df              adc    rdi,r11
   1004064b2: 49 13 3b              adc    rdi,QWORD PTR [r11]
   1004064b5: 4c 11 1f              adc    QWORD PTR [rdi],r11
   1004064b8: 49 13 bb ff ff ff 7f  adc    rdi,QWORD PTR [r11+0x7fffffff]
   1004064bf: 4c 11 9f ff ff ff 7f  adc    QWORD PTR [rdi+0x7fffffff],r11
   1004064c6: 4c 11 e7              adc    rdi,r12
   1004064c9: 49 13 3c 24           adc    rdi,QWORD PTR [r12]
   1004064cd: 4c 11 27              adc    QWORD PTR [rdi],r12
   1004064d0: 49 13 bc 24 ff ff ff 7f   adc    rdi,QWORD PTR [r12+0x7fffffff]
   1004064d8: 4c 11 a7 ff ff ff 7f  adc    QWORD PTR [rdi+0x7fffffff],r12
   1004064df: 4c 11 ef              adc    rdi,r13
   1004064e2: 49 13 7d 00           adc    rdi,QWORD PTR [r13+0x0]
   1004064e6: 4c 11 2f              adc    QWORD PTR [rdi],r13
   1004064e9: 49 13 bd ff ff ff 7f  adc    rdi,QWORD PTR [r13+0x7fffffff]
   1004064f0: 4c 11 af ff ff ff 7f  adc    QWORD PTR [rdi+0x7fffffff],r13
   1004064f7: 4c 11 f7              adc    rdi,r14
   1004064fa: 49 13 3e              adc    rdi,QWORD PTR [r14]
   1004064fd: 4c 11 37              adc    QWORD PTR [rdi],r14
   100406500: 49 13 be ff ff ff 7f  adc    rdi,QWORD PTR [r14+0x7fffffff]
   100406507: 4c 11 b7 ff ff ff 7f  adc    QWORD PTR [rdi+0x7fffffff],r14
   10040650e: 4c 11 ff              adc    rdi,r15
   100406511: 49 13 3f              adc    rdi,QWORD PTR [r15]
   100406514: 4c 11 3f              adc    QWORD PTR [rdi],r15
   100406517: 49 13 bf ff ff ff 7f  adc    rdi,QWORD PTR [r15+0x7fffffff]
   10040651e: 4c 11 bf ff ff ff 7f  adc    QWORD PTR [rdi+0x7fffffff],r15
   100406525: 49 81 d0 ff ff ff 7f  adc    r8,0x7fffffff
   10040652c: 49 11 c0              adc    r8,rax
   10040652f: 4c 13 00              adc    r8,QWORD PTR [rax]
   100406532: 49 11 00              adc    QWORD PTR [r8],rax
   100406535: 4c 13 80 ff ff ff 7f  adc    r8,QWORD PTR [rax+0x7fffffff]
   10040653c: 49 11 80 ff ff ff 7f  adc    QWORD PTR [r8+0x7fffffff],rax
   100406543: 49 11 c8              adc    r8,rcx
   100406546: 4c 13 01              adc    r8,QWORD PTR [rcx]
   100406549: 49 11 08              adc    QWORD PTR [r8],rcx
   10040654c: 4c 13 81 ff ff ff 7f  adc    r8,QWORD PTR [rcx+0x7fffffff]
   100406553: 49 11 88 ff ff ff 7f  adc    QWORD PTR [r8+0x7fffffff],rcx
   10040655a: 49 11 d0              adc    r8,rdx
   10040655d: 4c 13 02              adc    r8,QWORD PTR [rdx]
   100406560: 49 11 10              adc    QWORD PTR [r8],rdx
   100406563: 4c 13 82 ff ff ff 7f  adc    r8,QWORD PTR [rdx+0x7fffffff]
   10040656a: 49 11 90 ff ff ff 7f  adc    QWORD PTR [r8+0x7fffffff],rdx
   100406571: 49 11 d8              adc    r8,rbx
   100406574: 4c 13 03              adc    r8,QWORD PTR [rbx]
   100406577: 49 11 18              adc    QWORD PTR [r8],rbx
   10040657a: 4c 13 83 ff ff ff 7f  adc    r8,QWORD PTR [rbx+0x7fffffff]
   100406581: 49 11 98 ff ff ff 7f  adc    QWORD PTR [r8+0x7fffffff],rbx
   100406588: 49 11 e0              adc    r8,rsp
   10040658b: 4c 13 04 24           adc    r8,QWORD PTR [rsp]
   10040658f: 49 11 20              adc    QWORD PTR [r8],rsp
   100406592: 4c 13 84 24 ff ff ff 7f   adc    r8,QWORD PTR [rsp+0x7fffffff]
   10040659a: 49 11 a0 ff ff ff 7f  adc    QWORD PTR [r8+0x7fffffff],rsp
   1004065a1: 49 11 e8              adc    r8,rbp
   1004065a4: 4c 13 45 00           adc    r8,QWORD PTR [rbp+0x0]
   1004065a8: 49 11 28              adc    QWORD PTR [r8],rbp
   1004065ab: 4c 13 85 ff ff ff 7f  adc    r8,QWORD PTR [rbp+0x7fffffff]
   1004065b2: 49 11 a8 ff ff ff 7f  adc    QWORD PTR [r8+0x7fffffff],rbp
   1004065b9: 49 11 f0              adc    r8,rsi
   1004065bc: 4c 13 06              adc    r8,QWORD PTR [rsi]
   1004065bf: 49 11 30              adc    QWORD PTR [r8],rsi
   1004065c2: 4c 13 86 ff ff ff 7f  adc    r8,QWORD PTR [rsi+0x7fffffff]
   1004065c9: 49 11 b0 ff ff ff 7f  adc    QWORD PTR [r8+0x7fffffff],rsi
   1004065d0: 49 11 f8              adc    r8,rdi
   1004065d3: 4c 13 07              adc    r8,QWORD PTR [rdi]
   1004065d6: 49 11 38              adc    QWORD PTR [r8],rdi
   1004065d9: 4c 13 87 ff ff ff 7f  adc    r8,QWORD PTR [rdi+0x7fffffff]
   1004065e0: 49 11 b8 ff ff ff 7f  adc    QWORD PTR [r8+0x7fffffff],rdi
   1004065e7: 4d 11 c0              adc    r8,r8
   1004065ea: 4d 13 00              adc    r8,QWORD PTR [r8]
   1004065ed: 4d 11 00              adc    QWORD PTR [r8],r8
   1004065f0: 4d 13 80 ff ff ff 7f  adc    r8,QWORD PTR [r8+0x7fffffff]
   1004065f7: 4d 11 80 ff ff ff 7f  adc    QWORD PTR [r8+0x7fffffff],r8
   1004065fe: 4d 11 c8              adc    r8,r9
   100406601: 4d 13 01              adc    r8,QWORD PTR [r9]
   100406604: 4d 11 08              adc    QWORD PTR [r8],r9
   100406607: 4d 13 81 ff ff ff 7f  adc    r8,QWORD PTR [r9+0x7fffffff]
   10040660e: 4d 11 88 ff ff ff 7f  adc    QWORD PTR [r8+0x7fffffff],r9
   100406615: 4d 11 d0              adc    r8,r10
   100406618: 4d 13 02              adc    r8,QWORD PTR [r10]
   10040661b: 4d 11 10              adc    QWORD PTR [r8],r10
   10040661e: 4d 13 82 ff ff ff 7f  adc    r8,QWORD PTR [r10+0x7fffffff]
   100406625: 4d 11 90 ff ff ff 7f  adc    QWORD PTR [r8+0x7fffffff],r10
   10040662c: 4d 11 d8              adc    r8,r11
   10040662f: 4d 13 03              adc    r8,QWORD PTR [r11]
   100406632: 4d 11 18              adc    QWORD PTR [r8],r11
   100406635: 4d 13 83 ff ff ff 7f  adc    r8,QWORD PTR [r11+0x7fffffff]
   10040663c: 4d 11 98 ff ff ff 7f  adc    QWORD PTR [r8+0x7fffffff],r11
   100406643: 4d 11 e0              adc    r8,r12
   100406646: 4d 13 04 24           adc    r8,QWORD PTR [r12]
   10040664a: 4d 11 20              adc    QWORD PTR [r8],r12
   10040664d: 4d 13 84 24 ff ff ff 7f   adc    r8,QWORD PTR [r12+0x7fffffff]
   100406655: 4d 11 a0 ff ff ff 7f  adc    QWORD PTR [r8+0x7fffffff],r12
   10040665c: 4d 11 e8              adc    r8,r13
   10040665f: 4d 13 45 00           adc    r8,QWORD PTR [r13+0x0]
   100406663: 4d 11 28              adc    QWORD PTR [r8],r13
   100406666: 4d 13 85 ff ff ff 7f  adc    r8,QWORD PTR [r13+0x7fffffff]
   10040666d: 4d 11 a8 ff ff ff 7f  adc    QWORD PTR [r8+0x7fffffff],r13
   100406674: 4d 11 f0              adc    r8,r14
   100406677: 4d 13 06              adc    r8,QWORD PTR [r14]
   10040667a: 4d 11 30              adc    QWORD PTR [r8],r14
   10040667d: 4d 13 86 ff ff ff 7f  adc    r8,QWORD PTR [r14+0x7fffffff]
   100406684: 4d 11 b0 ff ff ff 7f  adc    QWORD PTR [r8+0x7fffffff],r14
   10040668b: 4d 11 f8              adc    r8,r15
   10040668e: 4d 13 07              adc    r8,QWORD PTR [r15]
   100406691: 4d 11 38              adc    QWORD PTR [r8],r15
   100406694: 4d 13 87 ff ff ff 7f  adc    r8,QWORD PTR [r15+0x7fffffff]
   10040669b: 4d 11 b8 ff ff ff 7f  adc    QWORD PTR [r8+0x7fffffff],r15
   1004066a2: 49 81 d1 ff ff ff 7f  adc    r9,0x7fffffff
   1004066a9: 49 11 c1              adc    r9,rax
   1004066ac: 4c 13 08              adc    r9,QWORD PTR [rax]
   1004066af: 49 11 01              adc    QWORD PTR [r9],rax
   1004066b2: 4c 13 88 ff ff ff 7f  adc    r9,QWORD PTR [rax+0x7fffffff]
   1004066b9: 49 11 81 ff ff ff 7f  adc    QWORD PTR [r9+0x7fffffff],rax
   1004066c0: 49 11 c9              adc    r9,rcx
   1004066c3: 4c 13 09              adc    r9,QWORD PTR [rcx]
   1004066c6: 49 11 09              adc    QWORD PTR [r9],rcx
   1004066c9: 4c 13 89 ff ff ff 7f  adc    r9,QWORD PTR [rcx+0x7fffffff]
   1004066d0: 49 11 89 ff ff ff 7f  adc    QWORD PTR [r9+0x7fffffff],rcx
   1004066d7: 49 11 d1              adc    r9,rdx
   1004066da: 4c 13 0a              adc    r9,QWORD PTR [rdx]
   1004066dd: 49 11 11              adc    QWORD PTR [r9],rdx
   1004066e0: 4c 13 8a ff ff ff 7f  adc    r9,QWORD PTR [rdx+0x7fffffff]
   1004066e7: 49 11 91 ff ff ff 7f  adc    QWORD PTR [r9+0x7fffffff],rdx
   1004066ee: 49 11 d9              adc    r9,rbx
   1004066f1: 4c 13 0b              adc    r9,QWORD PTR [rbx]
   1004066f4: 49 11 19              adc    QWORD PTR [r9],rbx
   1004066f7: 4c 13 8b ff ff ff 7f  adc    r9,QWORD PTR [rbx+0x7fffffff]
   1004066fe: 49 11 99 ff ff ff 7f  adc    QWORD PTR [r9+0x7fffffff],rbx
   100406705: 49 11 e1              adc    r9,rsp
   100406708: 4c 13 0c 24           adc    r9,QWORD PTR [rsp]
   10040670c: 49 11 21              adc    QWORD PTR [r9],rsp
   10040670f: 4c 13 8c 24 ff ff ff 7f   adc    r9,QWORD PTR [rsp+0x7fffffff]
   100406717: 49 11 a1 ff ff ff 7f  adc    QWORD PTR [r9+0x7fffffff],rsp
   10040671e: 49 11 e9              adc    r9,rbp
   100406721: 4c 13 4d 00           adc    r9,QWORD PTR [rbp+0x0]
   100406725: 49 11 29              adc    QWORD PTR [r9],rbp
   100406728: 4c 13 8d ff ff ff 7f  adc    r9,QWORD PTR [rbp+0x7fffffff]
   10040672f: 49 11 a9 ff ff ff 7f  adc    QWORD PTR [r9+0x7fffffff],rbp
   100406736: 49 11 f1              adc    r9,rsi
   100406739: 4c 13 0e              adc    r9,QWORD PTR [rsi]
   10040673c: 49 11 31              adc    QWORD PTR [r9],rsi
   10040673f: 4c 13 8e ff ff ff 7f  adc    r9,QWORD PTR [rsi+0x7fffffff]
   100406746: 49 11 b1 ff ff ff 7f  adc    QWORD PTR [r9+0x7fffffff],rsi
   10040674d: 49 11 f9              adc    r9,rdi
   100406750: 4c 13 0f              adc    r9,QWORD PTR [rdi]
   100406753: 49 11 39              adc    QWORD PTR [r9],rdi
   100406756: 4c 13 8f ff ff ff 7f  adc    r9,QWORD PTR [rdi+0x7fffffff]
   10040675d: 49 11 b9 ff ff ff 7f  adc    QWORD PTR [r9+0x7fffffff],rdi
   100406764: 4d 11 c1              adc    r9,r8
   100406767: 4d 13 08              adc    r9,QWORD PTR [r8]
   10040676a: 4d 11 01              adc    QWORD PTR [r9],r8
   10040676d: 4d 13 88 ff ff ff 7f  adc    r9,QWORD PTR [r8+0x7fffffff]
   100406774: 4d 11 81 ff ff ff 7f  adc    QWORD PTR [r9+0x7fffffff],r8
   10040677b: 4d 11 c9              adc    r9,r9
   10040677e: 4d 13 09              adc    r9,QWORD PTR [r9]
   100406781: 4d 11 09              adc    QWORD PTR [r9],r9
   100406784: 4d 13 89 ff ff ff 7f  adc    r9,QWORD PTR [r9+0x7fffffff]
   10040678b: 4d 11 89 ff ff ff 7f  adc    QWORD PTR [r9+0x7fffffff],r9
   100406792: 4d 11 d1              adc    r9,r10
   100406795: 4d 13 0a              adc    r9,QWORD PTR [r10]
   100406798: 4d 11 11              adc    QWORD PTR [r9],r10
   10040679b: 4d 13 8a ff ff ff 7f  adc    r9,QWORD PTR [r10+0x7fffffff]
   1004067a2: 4d 11 91 ff ff ff 7f  adc    QWORD PTR [r9+0x7fffffff],r10
   1004067a9: 4d 11 d9              adc    r9,r11
   1004067ac: 4d 13 0b              adc    r9,QWORD PTR [r11]
   1004067af: 4d 11 19              adc    QWORD PTR [r9],r11
   1004067b2: 4d 13 8b ff ff ff 7f  adc    r9,QWORD PTR [r11+0x7fffffff]
   1004067b9: 4d 11 99 ff ff ff 7f  adc    QWORD PTR [r9+0x7fffffff],r11
   1004067c0: 4d 11 e1              adc    r9,r12
   1004067c3: 4d 13 0c 24           adc    r9,QWORD PTR [r12]
   1004067c7: 4d 11 21              adc    QWORD PTR [r9],r12
   1004067ca: 4d 13 8c 24 ff ff ff 7f   adc    r9,QWORD PTR [r12+0x7fffffff]
   1004067d2: 4d 11 a1 ff ff ff 7f  adc    QWORD PTR [r9+0x7fffffff],r12
   1004067d9: 4d 11 e9              adc    r9,r13
   1004067dc: 4d 13 4d 00           adc    r9,QWORD PTR [r13+0x0]
   1004067e0: 4d 11 29              adc    QWORD PTR [r9],r13
   1004067e3: 4d 13 8d ff ff ff 7f  adc    r9,QWORD PTR [r13+0x7fffffff]
   1004067ea: 4d 11 a9 ff ff ff 7f  adc    QWORD PTR [r9+0x7fffffff],r13
   1004067f1: 4d 11 f1              adc    r9,r14
   1004067f4: 4d 13 0e              adc    r9,QWORD PTR [r14]
   1004067f7: 4d 11 31              adc    QWORD PTR [r9],r14
   1004067fa: 4d 13 8e ff ff ff 7f  adc    r9,QWORD PTR [r14+0x7fffffff]
   100406801: 4d 11 b1 ff ff ff 7f  adc    QWORD PTR [r9+0x7fffffff],r14
   100406808: 4d 11 f9              adc    r9,r15
   10040680b: 4d 13 0f              adc    r9,QWORD PTR [r15]
   10040680e: 4d 11 39              adc    QWORD PTR [r9],r15
   100406811: 4d 13 8f ff ff ff 7f  adc    r9,QWORD PTR [r15+0x7fffffff]
   100406818: 4d 11 b9 ff ff ff 7f  adc    QWORD PTR [r9+0x7fffffff],r15
   10040681f: 49 81 d2 ff ff ff 7f  adc    r10,0x7fffffff
   100406826: 49 11 c2              adc    r10,rax
   100406829: 4c 13 10              adc    r10,QWORD PTR [rax]
   10040682c: 49 11 02              adc    QWORD PTR [r10],rax
   10040682f: 4c 13 90 ff ff ff 7f  adc    r10,QWORD PTR [rax+0x7fffffff]
   100406836: 49 11 82 ff ff ff 7f  adc    QWORD PTR [r10+0x7fffffff],rax
   10040683d: 49 11 ca              adc    r10,rcx
   100406840: 4c 13 11              adc    r10,QWORD PTR [rcx]
   100406843: 49 11 0a              adc    QWORD PTR [r10],rcx
   100406846: 4c 13 91 ff ff ff 7f  adc    r10,QWORD PTR [rcx+0x7fffffff]
   10040684d: 49 11 8a ff ff ff 7f  adc    QWORD PTR [r10+0x7fffffff],rcx
   100406854: 49 11 d2              adc    r10,rdx
   100406857: 4c 13 12              adc    r10,QWORD PTR [rdx]
   10040685a: 49 11 12              adc    QWORD PTR [r10],rdx
   10040685d: 4c 13 92 ff ff ff 7f  adc    r10,QWORD PTR [rdx+0x7fffffff]
   100406864: 49 11 92 ff ff ff 7f  adc    QWORD PTR [r10+0x7fffffff],rdx
   10040686b: 49 11 da              adc    r10,rbx
   10040686e: 4c 13 13              adc    r10,QWORD PTR [rbx]
   100406871: 49 11 1a              adc    QWORD PTR [r10],rbx
   100406874: 4c 13 93 ff ff ff 7f  adc    r10,QWORD PTR [rbx+0x7fffffff]
   10040687b: 49 11 9a ff ff ff 7f  adc    QWORD PTR [r10+0x7fffffff],rbx
   100406882: 49 11 e2              adc    r10,rsp
   100406885: 4c 13 14 24           adc    r10,QWORD PTR [rsp]
   100406889: 49 11 22              adc    QWORD PTR [r10],rsp
   10040688c: 4c 13 94 24 ff ff ff 7f   adc    r10,QWORD PTR [rsp+0x7fffffff]
   100406894: 49 11 a2 ff ff ff 7f  adc    QWORD PTR [r10+0x7fffffff],rsp
   10040689b: 49 11 ea              adc    r10,rbp
   10040689e: 4c 13 55 00           adc    r10,QWORD PTR [rbp+0x0]
   1004068a2: 49 11 2a              adc    QWORD PTR [r10],rbp
   1004068a5: 4c 13 95 ff ff ff 7f  adc    r10,QWORD PTR [rbp+0x7fffffff]
   1004068ac: 49 11 aa ff ff ff 7f  adc    QWORD PTR [r10+0x7fffffff],rbp
   1004068b3: 49 11 f2              adc    r10,rsi
   1004068b6: 4c 13 16              adc    r10,QWORD PTR [rsi]
   1004068b9: 49 11 32              adc    QWORD PTR [r10],rsi
   1004068bc: 4c 13 96 ff ff ff 7f  adc    r10,QWORD PTR [rsi+0x7fffffff]
   1004068c3: 49 11 b2 ff ff ff 7f  adc    QWORD PTR [r10+0x7fffffff],rsi
   1004068ca: 49 11 fa              adc    r10,rdi
   1004068cd: 4c 13 17              adc    r10,QWORD PTR [rdi]
   1004068d0: 49 11 3a              adc    QWORD PTR [r10],rdi
   1004068d3: 4c 13 97 ff ff ff 7f  adc    r10,QWORD PTR [rdi+0x7fffffff]
   1004068da: 49 11 ba ff ff ff 7f  adc    QWORD PTR [r10+0x7fffffff],rdi
   1004068e1: 4d 11 c2              adc    r10,r8
   1004068e4: 4d 13 10              adc    r10,QWORD PTR [r8]
   1004068e7: 4d 11 02              adc    QWORD PTR [r10],r8
   1004068ea: 4d 13 90 ff ff ff 7f  adc    r10,QWORD PTR [r8+0x7fffffff]
   1004068f1: 4d 11 82 ff ff ff 7f  adc    QWORD PTR [r10+0x7fffffff],r8
   1004068f8: 4d 11 ca              adc    r10,r9
   1004068fb: 4d 13 11              adc    r10,QWORD PTR [r9]
   1004068fe: 4d 11 0a              adc    QWORD PTR [r10],r9
   100406901: 4d 13 91 ff ff ff 7f  adc    r10,QWORD PTR [r9+0x7fffffff]
   100406908: 4d 11 8a ff ff ff 7f  adc    QWORD PTR [r10+0x7fffffff],r9
   10040690f: 4d 11 d2              adc    r10,r10
   100406912: 4d 13 12              adc    r10,QWORD PTR [r10]
   100406915: 4d 11 12              adc    QWORD PTR [r10],r10
   100406918: 4d 13 92 ff ff ff 7f  adc    r10,QWORD PTR [r10+0x7fffffff]
   10040691f: 4d 11 92 ff ff ff 7f  adc    QWORD PTR [r10+0x7fffffff],r10
   100406926: 4d 11 da              adc    r10,r11
   100406929: 4d 13 13              adc    r10,QWORD PTR [r11]
   10040692c: 4d 11 1a              adc    QWORD PTR [r10],r11
   10040692f: 4d 13 93 ff ff ff 7f  adc    r10,QWORD PTR [r11+0x7fffffff]
   100406936: 4d 11 9a ff ff ff 7f  adc    QWORD PTR [r10+0x7fffffff],r11
   10040693d: 4d 11 e2              adc    r10,r12
   100406940: 4d 13 14 24           adc    r10,QWORD PTR [r12]
   100406944: 4d 11 22              adc    QWORD PTR [r10],r12
   100406947: 4d 13 94 24 ff ff ff 7f   adc    r10,QWORD PTR [r12+0x7fffffff]
   10040694f: 4d 11 a2 ff ff ff 7f  adc    QWORD PTR [r10+0x7fffffff],r12
   100406956: 4d 11 ea              adc    r10,r13
   100406959: 4d 13 55 00           adc    r10,QWORD PTR [r13+0x0]
   10040695d: 4d 11 2a              adc    QWORD PTR [r10],r13
   100406960: 4d 13 95 ff ff ff 7f  adc    r10,QWORD PTR [r13+0x7fffffff]
   100406967: 4d 11 aa ff ff ff 7f  adc    QWORD PTR [r10+0x7fffffff],r13
   10040696e: 4d 11 f2              adc    r10,r14
   100406971: 4d 13 16              adc    r10,QWORD PTR [r14]
   100406974: 4d 11 32              adc    QWORD PTR [r10],r14
   100406977: 4d 13 96 ff ff ff 7f  adc    r10,QWORD PTR [r14+0x7fffffff]
   10040697e: 4d 11 b2 ff ff ff 7f  adc    QWORD PTR [r10+0x7fffffff],r14
   100406985: 4d 11 fa              adc    r10,r15
   100406988: 4d 13 17              adc    r10,QWORD PTR [r15]
   10040698b: 4d 11 3a              adc    QWORD PTR [r10],r15
   10040698e: 4d 13 97 ff ff ff 7f  adc    r10,QWORD PTR [r15+0x7fffffff]
   100406995: 4d 11 ba ff ff ff 7f  adc    QWORD PTR [r10+0x7fffffff],r15
   10040699c: 49 81 d3 ff ff ff 7f  adc    r11,0x7fffffff
   1004069a3: 49 11 c3              adc    r11,rax
   1004069a6: 4c 13 18              adc    r11,QWORD PTR [rax]
   1004069a9: 49 11 03              adc    QWORD PTR [r11],rax
   1004069ac: 4c 13 98 ff ff ff 7f  adc    r11,QWORD PTR [rax+0x7fffffff]
   1004069b3: 49 11 83 ff ff ff 7f  adc    QWORD PTR [r11+0x7fffffff],rax
   1004069ba: 49 11 cb              adc    r11,rcx
   1004069bd: 4c 13 19              adc    r11,QWORD PTR [rcx]
   1004069c0: 49 11 0b              adc    QWORD PTR [r11],rcx
   1004069c3: 4c 13 99 ff ff ff 7f  adc    r11,QWORD PTR [rcx+0x7fffffff]
   1004069ca: 49 11 8b ff ff ff 7f  adc    QWORD PTR [r11+0x7fffffff],rcx
   1004069d1: 49 11 d3              adc    r11,rdx
   1004069d4: 4c 13 1a              adc    r11,QWORD PTR [rdx]
   1004069d7: 49 11 13              adc    QWORD PTR [r11],rdx
   1004069da: 4c 13 9a ff ff ff 7f  adc    r11,QWORD PTR [rdx+0x7fffffff]
   1004069e1: 49 11 93 ff ff ff 7f  adc    QWORD PTR [r11+0x7fffffff],rdx
   1004069e8: 49 11 db              adc    r11,rbx
   1004069eb: 4c 13 1b              adc    r11,QWORD PTR [rbx]
   1004069ee: 49 11 1b              adc    QWORD PTR [r11],rbx
   1004069f1: 4c 13 9b ff ff ff 7f  adc    r11,QWORD PTR [rbx+0x7fffffff]
   1004069f8: 49 11 9b ff ff ff 7f  adc    QWORD PTR [r11+0x7fffffff],rbx
   1004069ff: 49 11 e3              adc    r11,rsp
   100406a02: 4c 13 1c 24           adc    r11,QWORD PTR [rsp]
   100406a06: 49 11 23              adc    QWORD PTR [r11],rsp
   100406a09: 4c 13 9c 24 ff ff ff 7f   adc    r11,QWORD PTR [rsp+0x7fffffff]
   100406a11: 49 11 a3 ff ff ff 7f  adc    QWORD PTR [r11+0x7fffffff],rsp
   100406a18: 49 11 eb              adc    r11,rbp
   100406a1b: 4c 13 5d 00           adc    r11,QWORD PTR [rbp+0x0]
   100406a1f: 49 11 2b              adc    QWORD PTR [r11],rbp
   100406a22: 4c 13 9d ff ff ff 7f  adc    r11,QWORD PTR [rbp+0x7fffffff]
   100406a29: 49 11 ab ff ff ff 7f  adc    QWORD PTR [r11+0x7fffffff],rbp
   100406a30: 49 11 f3              adc    r11,rsi
   100406a33: 4c 13 1e              adc    r11,QWORD PTR [rsi]
   100406a36: 49 11 33              adc    QWORD PTR [r11],rsi
   100406a39: 4c 13 9e ff ff ff 7f  adc    r11,QWORD PTR [rsi+0x7fffffff]
   100406a40: 49 11 b3 ff ff ff 7f  adc    QWORD PTR [r11+0x7fffffff],rsi
   100406a47: 49 11 fb              adc    r11,rdi
   100406a4a: 4c 13 1f              adc    r11,QWORD PTR [rdi]
   100406a4d: 49 11 3b              adc    QWORD PTR [r11],rdi
   100406a50: 4c 13 9f ff ff ff 7f  adc    r11,QWORD PTR [rdi+0x7fffffff]
   100406a57: 49 11 bb ff ff ff 7f  adc    QWORD PTR [r11+0x7fffffff],rdi
   100406a5e: 4d 11 c3              adc    r11,r8
   100406a61: 4d 13 18              adc    r11,QWORD PTR [r8]
   100406a64: 4d 11 03              adc    QWORD PTR [r11],r8
   100406a67: 4d 13 98 ff ff ff 7f  adc    r11,QWORD PTR [r8+0x7fffffff]
   100406a6e: 4d 11 83 ff ff ff 7f  adc    QWORD PTR [r11+0x7fffffff],r8
   100406a75: 4d 11 cb              adc    r11,r9
   100406a78: 4d 13 19              adc    r11,QWORD PTR [r9]
   100406a7b: 4d 11 0b              adc    QWORD PTR [r11],r9
   100406a7e: 4d 13 99 ff ff ff 7f  adc    r11,QWORD PTR [r9+0x7fffffff]
   100406a85: 4d 11 8b ff ff ff 7f  adc    QWORD PTR [r11+0x7fffffff],r9
   100406a8c: 4d 11 d3              adc    r11,r10
   100406a8f: 4d 13 1a              adc    r11,QWORD PTR [r10]
   100406a92: 4d 11 13              adc    QWORD PTR [r11],r10
   100406a95: 4d 13 9a ff ff ff 7f  adc    r11,QWORD PTR [r10+0x7fffffff]
   100406a9c: 4d 11 93 ff ff ff 7f  adc    QWORD PTR [r11+0x7fffffff],r10
   100406aa3: 4d 11 db              adc    r11,r11
   100406aa6: 4d 13 1b              adc    r11,QWORD PTR [r11]
   100406aa9: 4d 11 1b              adc    QWORD PTR [r11],r11
   100406aac: 4d 13 9b ff ff ff 7f  adc    r11,QWORD PTR [r11+0x7fffffff]
   100406ab3: 4d 11 9b ff ff ff 7f  adc    QWORD PTR [r11+0x7fffffff],r11
   100406aba: 4d 11 e3              adc    r11,r12
   100406abd: 4d 13 1c 24           adc    r11,QWORD PTR [r12]
   100406ac1: 4d 11 23              adc    QWORD PTR [r11],r12
   100406ac4: 4d 13 9c 24 ff ff ff 7f   adc    r11,QWORD PTR [r12+0x7fffffff]
   100406acc: 4d 11 a3 ff ff ff 7f  adc    QWORD PTR [r11+0x7fffffff],r12
   100406ad3: 4d 11 eb              adc    r11,r13
   100406ad6: 4d 13 5d 00           adc    r11,QWORD PTR [r13+0x0]
   100406ada: 4d 11 2b              adc    QWORD PTR [r11],r13
   100406add: 4d 13 9d ff ff ff 7f  adc    r11,QWORD PTR [r13+0x7fffffff]
   100406ae4: 4d 11 ab ff ff ff 7f  adc    QWORD PTR [r11+0x7fffffff],r13
   100406aeb: 4d 11 f3              adc    r11,r14
   100406aee: 4d 13 1e              adc    r11,QWORD PTR [r14]
   100406af1: 4d 11 33              adc    QWORD PTR [r11],r14
   100406af4: 4d 13 9e ff ff ff 7f  adc    r11,QWORD PTR [r14+0x7fffffff]
   100406afb: 4d 11 b3 ff ff ff 7f  adc    QWORD PTR [r11+0x7fffffff],r14
   100406b02: 4d 11 fb              adc    r11,r15
   100406b05: 4d 13 1f              adc    r11,QWORD PTR [r15]
   100406b08: 4d 11 3b              adc    QWORD PTR [r11],r15
   100406b0b: 4d 13 9f ff ff ff 7f  adc    r11,QWORD PTR [r15+0x7fffffff]
   100406b12: 4d 11 bb ff ff ff 7f  adc    QWORD PTR [r11+0x7fffffff],r15
   100406b19: 49 81 d4 ff ff ff 7f  adc    r12,0x7fffffff
   100406b20: 49 11 c4              adc    r12,rax
   100406b23: 4c 13 20              adc    r12,QWORD PTR [rax]
   100406b26: 49 11 04 24           adc    QWORD PTR [r12],rax
   100406b2a: 4c 13 a0 ff ff ff 7f  adc    r12,QWORD PTR [rax+0x7fffffff]
   100406b31: 49 11 84 24 ff ff ff 7f   adc    QWORD PTR [r12+0x7fffffff],rax
   100406b39: 49 11 cc              adc    r12,rcx
   100406b3c: 4c 13 21              adc    r12,QWORD PTR [rcx]
   100406b3f: 49 11 0c 24           adc    QWORD PTR [r12],rcx
   100406b43: 4c 13 a1 ff ff ff 7f  adc    r12,QWORD PTR [rcx+0x7fffffff]
   100406b4a: 49 11 8c 24 ff ff ff 7f   adc    QWORD PTR [r12+0x7fffffff],rcx
   100406b52: 49 11 d4              adc    r12,rdx
   100406b55: 4c 13 22              adc    r12,QWORD PTR [rdx]
   100406b58: 49 11 14 24           adc    QWORD PTR [r12],rdx
   100406b5c: 4c 13 a2 ff ff ff 7f  adc    r12,QWORD PTR [rdx+0x7fffffff]
   100406b63: 49 11 94 24 ff ff ff 7f   adc    QWORD PTR [r12+0x7fffffff],rdx
   100406b6b: 49 11 dc              adc    r12,rbx
   100406b6e: 4c 13 23              adc    r12,QWORD PTR [rbx]
   100406b71: 49 11 1c 24           adc    QWORD PTR [r12],rbx
   100406b75: 4c 13 a3 ff ff ff 7f  adc    r12,QWORD PTR [rbx+0x7fffffff]
   100406b7c: 49 11 9c 24 ff ff ff 7f   adc    QWORD PTR [r12+0x7fffffff],rbx
   100406b84: 49 11 e4              adc    r12,rsp
   100406b87: 4c 13 24 24           adc    r12,QWORD PTR [rsp]
   100406b8b: 49 11 24 24           adc    QWORD PTR [r12],rsp
   100406b8f: 4c 13 a4 24 ff ff ff 7f   adc    r12,QWORD PTR [rsp+0x7fffffff]
   100406b97: 49 11 a4 24 ff ff ff 7f   adc    QWORD PTR [r12+0x7fffffff],rsp
   100406b9f: 49 11 ec              adc    r12,rbp
   100406ba2: 4c 13 65 00           adc    r12,QWORD PTR [rbp+0x0]
   100406ba6: 49 11 2c 24           adc    QWORD PTR [r12],rbp
   100406baa: 4c 13 a5 ff ff ff 7f  adc    r12,QWORD PTR [rbp+0x7fffffff]
   100406bb1: 49 11 ac 24 ff ff ff 7f   adc    QWORD PTR [r12+0x7fffffff],rbp
   100406bb9: 49 11 f4              adc    r12,rsi
   100406bbc: 4c 13 26              adc    r12,QWORD PTR [rsi]
   100406bbf: 49 11 34 24           adc    QWORD PTR [r12],rsi
   100406bc3: 4c 13 a6 ff ff ff 7f  adc    r12,QWORD PTR [rsi+0x7fffffff]
   100406bca: 49 11 b4 24 ff ff ff 7f   adc    QWORD PTR [r12+0x7fffffff],rsi
   100406bd2: 49 11 fc              adc    r12,rdi
   100406bd5: 4c 13 27              adc    r12,QWORD PTR [rdi]
   100406bd8: 49 11 3c 24           adc    QWORD PTR [r12],rdi
   100406bdc: 4c 13 a7 ff ff ff 7f  adc    r12,QWORD PTR [rdi+0x7fffffff]
   100406be3: 49 11 bc 24 ff ff ff 7f   adc    QWORD PTR [r12+0x7fffffff],rdi
   100406beb: 4d 11 c4              adc    r12,r8
   100406bee: 4d 13 20              adc    r12,QWORD PTR [r8]
   100406bf1: 4d 11 04 24           adc    QWORD PTR [r12],r8
   100406bf5: 4d 13 a0 ff ff ff 7f  adc    r12,QWORD PTR [r8+0x7fffffff]
   100406bfc: 4d 11 84 24 ff ff ff 7f   adc    QWORD PTR [r12+0x7fffffff],r8
   100406c04: 4d 11 cc              adc    r12,r9
   100406c07: 4d 13 21              adc    r12,QWORD PTR [r9]
   100406c0a: 4d 11 0c 24           adc    QWORD PTR [r12],r9
   100406c0e: 4d 13 a1 ff ff ff 7f  adc    r12,QWORD PTR [r9+0x7fffffff]
   100406c15: 4d 11 8c 24 ff ff ff 7f   adc    QWORD PTR [r12+0x7fffffff],r9
   100406c1d: 4d 11 d4              adc    r12,r10
   100406c20: 4d 13 22              adc    r12,QWORD PTR [r10]
   100406c23: 4d 11 14 24           adc    QWORD PTR [r12],r10
   100406c27: 4d 13 a2 ff ff ff 7f  adc    r12,QWORD PTR [r10+0x7fffffff]
   100406c2e: 4d 11 94 24 ff ff ff 7f   adc    QWORD PTR [r12+0x7fffffff],r10
   100406c36: 4d 11 dc              adc    r12,r11
   100406c39: 4d 13 23              adc    r12,QWORD PTR [r11]
   100406c3c: 4d 11 1c 24           adc    QWORD PTR [r12],r11
   100406c40: 4d 13 a3 ff ff ff 7f  adc    r12,QWORD PTR [r11+0x7fffffff]
   100406c47: 4d 11 9c 24 ff ff ff 7f   adc    QWORD PTR [r12+0x7fffffff],r11
   100406c4f: 4d 11 e4              adc    r12,r12
   100406c52: 4d 13 24 24           adc    r12,QWORD PTR [r12]
   100406c56: 4d 11 24 24           adc    QWORD PTR [r12],r12
   100406c5a: 4d 13 a4 24 ff ff ff 7f   adc    r12,QWORD PTR [r12+0x7fffffff]
   100406c62: 4d 11 a4 24 ff ff ff 7f   adc    QWORD PTR [r12+0x7fffffff],r12
   100406c6a: 4d 11 ec              adc    r12,r13
   100406c6d: 4d 13 65 00           adc    r12,QWORD PTR [r13+0x0]
   100406c71: 4d 11 2c 24           adc    QWORD PTR [r12],r13
   100406c75: 4d 13 a5 ff ff ff 7f  adc    r12,QWORD PTR [r13+0x7fffffff]
   100406c7c: 4d 11 ac 24 ff ff ff 7f   adc    QWORD PTR [r12+0x7fffffff],r13
   100406c84: 4d 11 f4              adc    r12,r14
   100406c87: 4d 13 26              adc    r12,QWORD PTR [r14]
   100406c8a: 4d 11 34 24           adc    QWORD PTR [r12],r14
   100406c8e: 4d 13 a6 ff ff ff 7f  adc    r12,QWORD PTR [r14+0x7fffffff]
   100406c95: 4d 11 b4 24 ff ff ff 7f   adc    QWORD PTR [r12+0x7fffffff],r14
   100406c9d: 4d 11 fc              adc    r12,r15
   100406ca0: 4d 13 27              adc    r12,QWORD PTR [r15]
   100406ca3: 4d 11 3c 24           adc    QWORD PTR [r12],r15
   100406ca7: 4d 13 a7 ff ff ff 7f  adc    r12,QWORD PTR [r15+0x7fffffff]
   100406cae: 4d 11 bc 24 ff ff ff 7f   adc    QWORD PTR [r12+0x7fffffff],r15
   100406cb6: 49 81 d5 ff ff ff 7f  adc    r13,0x7fffffff
   100406cbd: 49 11 c5              adc    r13,rax
   100406cc0: 4c 13 28              adc    r13,QWORD PTR [rax]
   100406cc3: 49 11 45 00           adc    QWORD PTR [r13+0x0],rax
   100406cc7: 4c 13 a8 ff ff ff 7f  adc    r13,QWORD PTR [rax+0x7fffffff]
   100406cce: 49 11 85 ff ff ff 7f  adc    QWORD PTR [r13+0x7fffffff],rax
   100406cd5: 49 11 cd              adc    r13,rcx
   100406cd8: 4c 13 29              adc    r13,QWORD PTR [rcx]
   100406cdb: 49 11 4d 00           adc    QWORD PTR [r13+0x0],rcx
   100406cdf: 4c 13 a9 ff ff ff 7f  adc    r13,QWORD PTR [rcx+0x7fffffff]
   100406ce6: 49 11 8d ff ff ff 7f  adc    QWORD PTR [r13+0x7fffffff],rcx
   100406ced: 49 11 d5              adc    r13,rdx
   100406cf0: 4c 13 2a              adc    r13,QWORD PTR [rdx]
   100406cf3: 49 11 55 00           adc    QWORD PTR [r13+0x0],rdx
   100406cf7: 4c 13 aa ff ff ff 7f  adc    r13,QWORD PTR [rdx+0x7fffffff]
   100406cfe: 49 11 95 ff ff ff 7f  adc    QWORD PTR [r13+0x7fffffff],rdx
   100406d05: 49 11 dd              adc    r13,rbx
   100406d08: 4c 13 2b              adc    r13,QWORD PTR [rbx]
   100406d0b: 49 11 5d 00           adc    QWORD PTR [r13+0x0],rbx
   100406d0f: 4c 13 ab ff ff ff 7f  adc    r13,QWORD PTR [rbx+0x7fffffff]
   100406d16: 49 11 9d ff ff ff 7f  adc    QWORD PTR [r13+0x7fffffff],rbx
   100406d1d: 49 11 e5              adc    r13,rsp
   100406d20: 4c 13 2c 24           adc    r13,QWORD PTR [rsp]
   100406d24: 49 11 65 00           adc    QWORD PTR [r13+0x0],rsp
   100406d28: 4c 13 ac 24 ff ff ff 7f   adc    r13,QWORD PTR [rsp+0x7fffffff]
   100406d30: 49 11 a5 ff ff ff 7f  adc    QWORD PTR [r13+0x7fffffff],rsp
   100406d37: 49 11 ed              adc    r13,rbp
   100406d3a: 4c 13 6d 00           adc    r13,QWORD PTR [rbp+0x0]
   100406d3e: 49 11 6d 00           adc    QWORD PTR [r13+0x0],rbp
   100406d42: 4c 13 ad ff ff ff 7f  adc    r13,QWORD PTR [rbp+0x7fffffff]
   100406d49: 49 11 ad ff ff ff 7f  adc    QWORD PTR [r13+0x7fffffff],rbp
   100406d50: 49 11 f5              adc    r13,rsi
   100406d53: 4c 13 2e              adc    r13,QWORD PTR [rsi]
   100406d56: 49 11 75 00           adc    QWORD PTR [r13+0x0],rsi
   100406d5a: 4c 13 ae ff ff ff 7f  adc    r13,QWORD PTR [rsi+0x7fffffff]
   100406d61: 49 11 b5 ff ff ff 7f  adc    QWORD PTR [r13+0x7fffffff],rsi
   100406d68: 49 11 fd              adc    r13,rdi
   100406d6b: 4c 13 2f              adc    r13,QWORD PTR [rdi]
   100406d6e: 49 11 7d 00           adc    QWORD PTR [r13+0x0],rdi
   100406d72: 4c 13 af ff ff ff 7f  adc    r13,QWORD PTR [rdi+0x7fffffff]
   100406d79: 49 11 bd ff ff ff 7f  adc    QWORD PTR [r13+0x7fffffff],rdi
   100406d80: 4d 11 c5              adc    r13,r8
   100406d83: 4d 13 28              adc    r13,QWORD PTR [r8]
   100406d86: 4d 11 45 00           adc    QWORD PTR [r13+0x0],r8
   100406d8a: 4d 13 a8 ff ff ff 7f  adc    r13,QWORD PTR [r8+0x7fffffff]
   100406d91: 4d 11 85 ff ff ff 7f  adc    QWORD PTR [r13+0x7fffffff],r8
   100406d98: 4d 11 cd              adc    r13,r9
   100406d9b: 4d 13 29              adc    r13,QWORD PTR [r9]
   100406d9e: 4d 11 4d 00           adc    QWORD PTR [r13+0x0],r9
   100406da2: 4d 13 a9 ff ff ff 7f  adc    r13,QWORD PTR [r9+0x7fffffff]
   100406da9: 4d 11 8d ff ff ff 7f  adc    QWORD PTR [r13+0x7fffffff],r9
   100406db0: 4d 11 d5              adc    r13,r10
   100406db3: 4d 13 2a              adc    r13,QWORD PTR [r10]
   100406db6: 4d 11 55 00           adc    QWORD PTR [r13+0x0],r10
   100406dba: 4d 13 aa ff ff ff 7f  adc    r13,QWORD PTR [r10+0x7fffffff]
   100406dc1: 4d 11 95 ff ff ff 7f  adc    QWORD PTR [r13+0x7fffffff],r10
   100406dc8: 4d 11 dd              adc    r13,r11
   100406dcb: 4d 13 2b              adc    r13,QWORD PTR [r11]
   100406dce: 4d 11 5d 00           adc    QWORD PTR [r13+0x0],r11
   100406dd2: 4d 13 ab ff ff ff 7f  adc    r13,QWORD PTR [r11+0x7fffffff]
   100406dd9: 4d 11 9d ff ff ff 7f  adc    QWORD PTR [r13+0x7fffffff],r11
   100406de0: 4d 11 e5              adc    r13,r12
   100406de3: 4d 13 2c 24           adc    r13,QWORD PTR [r12]
   100406de7: 4d 11 65 00           adc    QWORD PTR [r13+0x0],r12
   100406deb: 4d 13 ac 24 ff ff ff 7f   adc    r13,QWORD PTR [r12+0x7fffffff]
   100406df3: 4d 11 a5 ff ff ff 7f  adc    QWORD PTR [r13+0x7fffffff],r12
   100406dfa: 4d 11 ed              adc    r13,r13
   100406dfd: 4d 13 6d 00           adc    r13,QWORD PTR [r13+0x0]
   100406e01: 4d 11 6d 00           adc    QWORD PTR [r13+0x0],r13
   100406e05: 4d 13 ad ff ff ff 7f  adc    r13,QWORD PTR [r13+0x7fffffff]
   100406e0c: 4d 11 ad ff ff ff 7f  adc    QWORD PTR [r13+0x7fffffff],r13
   100406e13: 4d 11 f5              adc    r13,r14
   100406e16: 4d 13 2e              adc    r13,QWORD PTR [r14]
   100406e19: 4d 11 75 00           adc    QWORD PTR [r13+0x0],r14
   100406e1d: 4d 13 ae ff ff ff 7f  adc    r13,QWORD PTR [r14+0x7fffffff]
   100406e24: 4d 11 b5 ff ff ff 7f  adc    QWORD PTR [r13+0x7fffffff],r14
   100406e2b: 4d 11 fd              adc    r13,r15
   100406e2e: 4d 13 2f              adc    r13,QWORD PTR [r15]
   100406e31: 4d 11 7d 00           adc    QWORD PTR [r13+0x0],r15
   100406e35: 4d 13 af ff ff ff 7f  adc    r13,QWORD PTR [r15+0x7fffffff]
   100406e3c: 4d 11 bd ff ff ff 7f  adc    QWORD PTR [r13+0x7fffffff],r15
   100406e43: 49 81 d6 ff ff ff 7f  adc    r14,0x7fffffff
   100406e4a: 49 11 c6              adc    r14,rax
   100406e4d: 4c 13 30              adc    r14,QWORD PTR [rax]
   100406e50: 49 11 06              adc    QWORD PTR [r14],rax
   100406e53: 4c 13 b0 ff ff ff 7f  adc    r14,QWORD PTR [rax+0x7fffffff]
   100406e5a: 49 11 86 ff ff ff 7f  adc    QWORD PTR [r14+0x7fffffff],rax
   100406e61: 49 11 ce              adc    r14,rcx
   100406e64: 4c 13 31              adc    r14,QWORD PTR [rcx]
   100406e67: 49 11 0e              adc    QWORD PTR [r14],rcx
   100406e6a: 4c 13 b1 ff ff ff 7f  adc    r14,QWORD PTR [rcx+0x7fffffff]
   100406e71: 49 11 8e ff ff ff 7f  adc    QWORD PTR [r14+0x7fffffff],rcx
   100406e78: 49 11 d6              adc    r14,rdx
   100406e7b: 4c 13 32              adc    r14,QWORD PTR [rdx]
   100406e7e: 49 11 16              adc    QWORD PTR [r14],rdx
   100406e81: 4c 13 b2 ff ff ff 7f  adc    r14,QWORD PTR [rdx+0x7fffffff]
   100406e88: 49 11 96 ff ff ff 7f  adc    QWORD PTR [r14+0x7fffffff],rdx
   100406e8f: 49 11 de              adc    r14,rbx
   100406e92: 4c 13 33              adc    r14,QWORD PTR [rbx]
   100406e95: 49 11 1e              adc    QWORD PTR [r14],rbx
   100406e98: 4c 13 b3 ff ff ff 7f  adc    r14,QWORD PTR [rbx+0x7fffffff]
   100406e9f: 49 11 9e ff ff ff 7f  adc    QWORD PTR [r14+0x7fffffff],rbx
   100406ea6: 49 11 e6              adc    r14,rsp
   100406ea9: 4c 13 34 24           adc    r14,QWORD PTR [rsp]
   100406ead: 49 11 26              adc    QWORD PTR [r14],rsp
   100406eb0: 4c 13 b4 24 ff ff ff 7f   adc    r14,QWORD PTR [rsp+0x7fffffff]
   100406eb8: 49 11 a6 ff ff ff 7f  adc    QWORD PTR [r14+0x7fffffff],rsp
   100406ebf: 49 11 ee              adc    r14,rbp
   100406ec2: 4c 13 75 00           adc    r14,QWORD PTR [rbp+0x0]
   100406ec6: 49 11 2e              adc    QWORD PTR [r14],rbp
   100406ec9: 4c 13 b5 ff ff ff 7f  adc    r14,QWORD PTR [rbp+0x7fffffff]
   100406ed0: 49 11 ae ff ff ff 7f  adc    QWORD PTR [r14+0x7fffffff],rbp
   100406ed7: 49 11 f6              adc    r14,rsi
   100406eda: 4c 13 36              adc    r14,QWORD PTR [rsi]
   100406edd: 49 11 36              adc    QWORD PTR [r14],rsi
   100406ee0: 4c 13 b6 ff ff ff 7f  adc    r14,QWORD PTR [rsi+0x7fffffff]
   100406ee7: 49 11 b6 ff ff ff 7f  adc    QWORD PTR [r14+0x7fffffff],rsi
   100406eee: 49 11 fe              adc    r14,rdi
   100406ef1: 4c 13 37              adc    r14,QWORD PTR [rdi]
   100406ef4: 49 11 3e              adc    QWORD PTR [r14],rdi
   100406ef7: 4c 13 b7 ff ff ff 7f  adc    r14,QWORD PTR [rdi+0x7fffffff]
   100406efe: 49 11 be ff ff ff 7f  adc    QWORD PTR [r14+0x7fffffff],rdi
   100406f05: 4d 11 c6              adc    r14,r8
   100406f08: 4d 13 30              adc    r14,QWORD PTR [r8]
   100406f0b: 4d 11 06              adc    QWORD PTR [r14],r8
   100406f0e: 4d 13 b0 ff ff ff 7f  adc    r14,QWORD PTR [r8+0x7fffffff]
   100406f15: 4d 11 86 ff ff ff 7f  adc    QWORD PTR [r14+0x7fffffff],r8
   100406f1c: 4d 11 ce              adc    r14,r9
   100406f1f: 4d 13 31              adc    r14,QWORD PTR [r9]
   100406f22: 4d 11 0e              adc    QWORD PTR [r14],r9
   100406f25: 4d 13 b1 ff ff ff 7f  adc    r14,QWORD PTR [r9+0x7fffffff]
   100406f2c: 4d 11 8e ff ff ff 7f  adc    QWORD PTR [r14+0x7fffffff],r9
   100406f33: 4d 11 d6              adc    r14,r10
   100406f36: 4d 13 32              adc    r14,QWORD PTR [r10]
   100406f39: 4d 11 16              adc    QWORD PTR [r14],r10
   100406f3c: 4d 13 b2 ff ff ff 7f  adc    r14,QWORD PTR [r10+0x7fffffff]
   100406f43: 4d 11 96 ff ff ff 7f  adc    QWORD PTR [r14+0x7fffffff],r10
   100406f4a: 4d 11 de              adc    r14,r11
   100406f4d: 4d 13 33              adc    r14,QWORD PTR [r11]
   100406f50: 4d 11 1e              adc    QWORD PTR [r14],r11
   100406f53: 4d 13 b3 ff ff ff 7f  adc    r14,QWORD PTR [r11+0x7fffffff]
   100406f5a: 4d 11 9e ff ff ff 7f  adc    QWORD PTR [r14+0x7fffffff],r11
   100406f61: 4d 11 e6              adc    r14,r12
   100406f64: 4d 13 34 24           adc    r14,QWORD PTR [r12]
   100406f68: 4d 11 26              adc    QWORD PTR [r14],r12
   100406f6b: 4d 13 b4 24 ff ff ff 7f   adc    r14,QWORD PTR [r12+0x7fffffff]
   100406f73: 4d 11 a6 ff ff ff 7f  adc    QWORD PTR [r14+0x7fffffff],r12
   100406f7a: 4d 11 ee              adc    r14,r13
   100406f7d: 4d 13 75 00           adc    r14,QWORD PTR [r13+0x0]
   100406f81: 4d 11 2e              adc    QWORD PTR [r14],r13
   100406f84: 4d 13 b5 ff ff ff 7f  adc    r14,QWORD PTR [r13+0x7fffffff]
   100406f8b: 4d 11 ae ff ff ff 7f  adc    QWORD PTR [r14+0x7fffffff],r13
   100406f92: 4d 11 f6              adc    r14,r14
   100406f95: 4d 13 36              adc    r14,QWORD PTR [r14]
   100406f98: 4d 11 36              adc    QWORD PTR [r14],r14
   100406f9b: 4d 13 b6 ff ff ff 7f  adc    r14,QWORD PTR [r14+0x7fffffff]
   100406fa2: 4d 11 b6 ff ff ff 7f  adc    QWORD PTR [r14+0x7fffffff],r14
   100406fa9: 4d 11 fe              adc    r14,r15
   100406fac: 4d 13 37              adc    r14,QWORD PTR [r15]
   100406faf: 4d 11 3e              adc    QWORD PTR [r14],r15
   100406fb2: 4d 13 b7 ff ff ff 7f  adc    r14,QWORD PTR [r15+0x7fffffff]
   100406fb9: 4d 11 be ff ff ff 7f  adc    QWORD PTR [r14+0x7fffffff],r15
   100406fc0: 49 81 d7 ff ff ff 7f  adc    r15,0x7fffffff
   100406fc7: 49 11 c7              adc    r15,rax
   100406fca: 4c 13 38              adc    r15,QWORD PTR [rax]
   100406fcd: 49 11 07              adc    QWORD PTR [r15],rax
   100406fd0: 4c 13 b8 ff ff ff 7f  adc    r15,QWORD PTR [rax+0x7fffffff]
   100406fd7: 49 11 87 ff ff ff 7f  adc    QWORD PTR [r15+0x7fffffff],rax
   100406fde: 49 11 cf              adc    r15,rcx
   100406fe1: 4c 13 39              adc    r15,QWORD PTR [rcx]
   100406fe4: 49 11 0f              adc    QWORD PTR [r15],rcx
   100406fe7: 4c 13 b9 ff ff ff 7f  adc    r15,QWORD PTR [rcx+0x7fffffff]
   100406fee: 49 11 8f ff ff ff 7f  adc    QWORD PTR [r15+0x7fffffff],rcx
   100406ff5: 49 11 d7              adc    r15,rdx
   100406ff8: 4c 13 3a              adc    r15,QWORD PTR [rdx]
   100406ffb: 49 11 17              adc    QWORD PTR [r15],rdx
   100406ffe: 4c 13 ba ff ff ff 7f  adc    r15,QWORD PTR [rdx+0x7fffffff]
   100407005: 49 11 97 ff ff ff 7f  adc    QWORD PTR [r15+0x7fffffff],rdx
   10040700c: 49 11 df              adc    r15,rbx
   10040700f: 4c 13 3b              adc    r15,QWORD PTR [rbx]
   100407012: 49 11 1f              adc    QWORD PTR [r15],rbx
   100407015: 4c 13 bb ff ff ff 7f  adc    r15,QWORD PTR [rbx+0x7fffffff]
   10040701c: 49 11 9f ff ff ff 7f  adc    QWORD PTR [r15+0x7fffffff],rbx
   100407023: 49 11 e7              adc    r15,rsp
   100407026: 4c 13 3c 24           adc    r15,QWORD PTR [rsp]
   10040702a: 49 11 27              adc    QWORD PTR [r15],rsp
   10040702d: 4c 13 bc 24 ff ff ff 7f   adc    r15,QWORD PTR [rsp+0x7fffffff]
   100407035: 49 11 a7 ff ff ff 7f  adc    QWORD PTR [r15+0x7fffffff],rsp
   10040703c: 49 11 ef              adc    r15,rbp
   10040703f: 4c 13 7d 00           adc    r15,QWORD PTR [rbp+0x0]
   100407043: 49 11 2f              adc    QWORD PTR [r15],rbp
   100407046: 4c 13 bd ff ff ff 7f  adc    r15,QWORD PTR [rbp+0x7fffffff]
   10040704d: 49 11 af ff ff ff 7f  adc    QWORD PTR [r15+0x7fffffff],rbp
   100407054: 49 11 f7              adc    r15,rsi
   100407057: 4c 13 3e              adc    r15,QWORD PTR [rsi]
   10040705a: 49 11 37              adc    QWORD PTR [r15],rsi
   10040705d: 4c 13 be ff ff ff 7f  adc    r15,QWORD PTR [rsi+0x7fffffff]
   100407064: 49 11 b7 ff ff ff 7f  adc    QWORD PTR [r15+0x7fffffff],rsi
   10040706b: 49 11 ff              adc    r15,rdi
   10040706e: 4c 13 3f              adc    r15,QWORD PTR [rdi]
   100407071: 49 11 3f              adc    QWORD PTR [r15],rdi
   100407074: 4c 13 bf ff ff ff 7f  adc    r15,QWORD PTR [rdi+0x7fffffff]
   10040707b: 49 11 bf ff ff ff 7f  adc    QWORD PTR [r15+0x7fffffff],rdi
   100407082: 4d 11 c7              adc    r15,r8
   100407085: 4d 13 38              adc    r15,QWORD PTR [r8]
   100407088: 4d 11 07              adc    QWORD PTR [r15],r8
   10040708b: 4d 13 b8 ff ff ff 7f  adc    r15,QWORD PTR [r8+0x7fffffff]
   100407092: 4d 11 87 ff ff ff 7f  adc    QWORD PTR [r15+0x7fffffff],r8
   100407099: 4d 11 cf              adc    r15,r9
   10040709c: 4d 13 39              adc    r15,QWORD PTR [r9]
   10040709f: 4d 11 0f              adc    QWORD PTR [r15],r9
   1004070a2: 4d 13 b9 ff ff ff 7f  adc    r15,QWORD PTR [r9+0x7fffffff]
   1004070a9: 4d 11 8f ff ff ff 7f  adc    QWORD PTR [r15+0x7fffffff],r9
   1004070b0: 4d 11 d7              adc    r15,r10
   1004070b3: 4d 13 3a              adc    r15,QWORD PTR [r10]
   1004070b6: 4d 11 17              adc    QWORD PTR [r15],r10
   1004070b9: 4d 13 ba ff ff ff 7f  adc    r15,QWORD PTR [r10+0x7fffffff]
   1004070c0: 4d 11 97 ff ff ff 7f  adc    QWORD PTR [r15+0x7fffffff],r10
   1004070c7: 4d 11 df              adc    r15,r11
   1004070ca: 4d 13 3b              adc    r15,QWORD PTR [r11]
   1004070cd: 4d 11 1f              adc    QWORD PTR [r15],r11
   1004070d0: 4d 13 bb ff ff ff 7f  adc    r15,QWORD PTR [r11+0x7fffffff]
   1004070d7: 4d 11 9f ff ff ff 7f  adc    QWORD PTR [r15+0x7fffffff],r11
   1004070de: 4d 11 e7              adc    r15,r12
   1004070e1: 4d 13 3c 24           adc    r15,QWORD PTR [r12]
   1004070e5: 4d 11 27              adc    QWORD PTR [r15],r12
   1004070e8: 4d 13 bc 24 ff ff ff 7f   adc    r15,QWORD PTR [r12+0x7fffffff]
   1004070f0: 4d 11 a7 ff ff ff 7f  adc    QWORD PTR [r15+0x7fffffff],r12
   1004070f7: 4d 11 ef              adc    r15,r13
   1004070fa: 4d 13 7d 00           adc    r15,QWORD PTR [r13+0x0]
   1004070fe: 4d 11 2f              adc    QWORD PTR [r15],r13
   100407101: 4d 13 bd ff ff ff 7f  adc    r15,QWORD PTR [r13+0x7fffffff]
   100407108: 4d 11 af ff ff ff 7f  adc    QWORD PTR [r15+0x7fffffff],r13
   10040710f: 4d 11 f7              adc    r15,r14
   100407112: 4d 13 3e              adc    r15,QWORD PTR [r14]
   100407115: 4d 11 37              adc    QWORD PTR [r15],r14
   100407118: 4d 13 be ff ff ff 7f  adc    r15,QWORD PTR [r14+0x7fffffff]
   10040711f: 4d 11 b7 ff ff ff 7f  adc    QWORD PTR [r15+0x7fffffff],r14
   100407126: 4d 11 ff              adc    r15,r15
   100407129: 4d 13 3f              adc    r15,QWORD PTR [r15]
   10040712c: 4d 11 3f              adc    QWORD PTR [r15],r15
   10040712f: 4d 13 bf ff ff ff 7f  adc    r15,QWORD PTR [r15+0x7fffffff]
   100407136: 4d 11 bf ff ff ff 7f  adc    QWORD PTR [r15+0x7fffffff],r15
   10040713d: 48 1d ff ff ff 7f     sbb    rax,0x7fffffff
   100407143: 48 19 c0              sbb    rax,rax
   100407146: 48 1b 00              sbb    rax,QWORD PTR [rax]
   100407149: 48 19 00              sbb    QWORD PTR [rax],rax
   10040714c: 48 1b 80 ff ff ff 7f  sbb    rax,QWORD PTR [rax+0x7fffffff]
   100407153: 48 19 80 ff ff ff 7f  sbb    QWORD PTR [rax+0x7fffffff],rax
   10040715a: 48 19 c8              sbb    rax,rcx
   10040715d: 48 1b 01              sbb    rax,QWORD PTR [rcx]
   100407160: 48 19 08              sbb    QWORD PTR [rax],rcx
   100407163: 48 1b 81 ff ff ff 7f  sbb    rax,QWORD PTR [rcx+0x7fffffff]
   10040716a: 48 19 88 ff ff ff 7f  sbb    QWORD PTR [rax+0x7fffffff],rcx
   100407171: 48 19 d0              sbb    rax,rdx
   100407174: 48 1b 02              sbb    rax,QWORD PTR [rdx]
   100407177: 48 19 10              sbb    QWORD PTR [rax],rdx
   10040717a: 48 1b 82 ff ff ff 7f  sbb    rax,QWORD PTR [rdx+0x7fffffff]
   100407181: 48 19 90 ff ff ff 7f  sbb    QWORD PTR [rax+0x7fffffff],rdx
   100407188: 48 19 d8              sbb    rax,rbx
   10040718b: 48 1b 03              sbb    rax,QWORD PTR [rbx]
   10040718e: 48 19 18              sbb    QWORD PTR [rax],rbx
   100407191: 48 1b 83 ff ff ff 7f  sbb    rax,QWORD PTR [rbx+0x7fffffff]
   100407198: 48 19 98 ff ff ff 7f  sbb    QWORD PTR [rax+0x7fffffff],rbx
   10040719f: 48 19 e0              sbb    rax,rsp
   1004071a2: 48 1b 04 24           sbb    rax,QWORD PTR [rsp]
   1004071a6: 48 19 20              sbb    QWORD PTR [rax],rsp
   1004071a9: 48 1b 84 24 ff ff ff 7f   sbb    rax,QWORD PTR [rsp+0x7fffffff]
   1004071b1: 48 19 a0 ff ff ff 7f  sbb    QWORD PTR [rax+0x7fffffff],rsp
   1004071b8: 48 19 e8              sbb    rax,rbp
   1004071bb: 48 1b 45 00           sbb    rax,QWORD PTR [rbp+0x0]
   1004071bf: 48 19 28              sbb    QWORD PTR [rax],rbp
   1004071c2: 48 1b 85 ff ff ff 7f  sbb    rax,QWORD PTR [rbp+0x7fffffff]
   1004071c9: 48 19 a8 ff ff ff 7f  sbb    QWORD PTR [rax+0x7fffffff],rbp
   1004071d0: 48 19 f0              sbb    rax,rsi
   1004071d3: 48 1b 06              sbb    rax,QWORD PTR [rsi]
   1004071d6: 48 19 30              sbb    QWORD PTR [rax],rsi
   1004071d9: 48 1b 86 ff ff ff 7f  sbb    rax,QWORD PTR [rsi+0x7fffffff]
   1004071e0: 48 19 b0 ff ff ff 7f  sbb    QWORD PTR [rax+0x7fffffff],rsi
   1004071e7: 48 19 f8              sbb    rax,rdi
   1004071ea: 48 1b 07              sbb    rax,QWORD PTR [rdi]
   1004071ed: 48 19 38              sbb    QWORD PTR [rax],rdi
   1004071f0: 48 1b 87 ff ff ff 7f  sbb    rax,QWORD PTR [rdi+0x7fffffff]
   1004071f7: 48 19 b8 ff ff ff 7f  sbb    QWORD PTR [rax+0x7fffffff],rdi
   1004071fe: 4c 19 c0              sbb    rax,r8
   100407201: 49 1b 00              sbb    rax,QWORD PTR [r8]
   100407204: 4c 19 00              sbb    QWORD PTR [rax],r8
   100407207: 49 1b 80 ff ff ff 7f  sbb    rax,QWORD PTR [r8+0x7fffffff]
   10040720e: 4c 19 80 ff ff ff 7f  sbb    QWORD PTR [rax+0x7fffffff],r8
   100407215: 4c 19 c8              sbb    rax,r9
   100407218: 49 1b 01              sbb    rax,QWORD PTR [r9]
   10040721b: 4c 19 08              sbb    QWORD PTR [rax],r9
   10040721e: 49 1b 81 ff ff ff 7f  sbb    rax,QWORD PTR [r9+0x7fffffff]
   100407225: 4c 19 88 ff ff ff 7f  sbb    QWORD PTR [rax+0x7fffffff],r9
   10040722c: 4c 19 d0              sbb    rax,r10
   10040722f: 49 1b 02              sbb    rax,QWORD PTR [r10]
   100407232: 4c 19 10              sbb    QWORD PTR [rax],r10
   100407235: 49 1b 82 ff ff ff 7f  sbb    rax,QWORD PTR [r10+0x7fffffff]
   10040723c: 4c 19 90 ff ff ff 7f  sbb    QWORD PTR [rax+0x7fffffff],r10
   100407243: 4c 19 d8              sbb    rax,r11
   100407246: 49 1b 03              sbb    rax,QWORD PTR [r11]
   100407249: 4c 19 18              sbb    QWORD PTR [rax],r11
   10040724c: 49 1b 83 ff ff ff 7f  sbb    rax,QWORD PTR [r11+0x7fffffff]
   100407253: 4c 19 98 ff ff ff 7f  sbb    QWORD PTR [rax+0x7fffffff],r11
   10040725a: 4c 19 e0              sbb    rax,r12
   10040725d: 49 1b 04 24           sbb    rax,QWORD PTR [r12]
   100407261: 4c 19 20              sbb    QWORD PTR [rax],r12
   100407264: 49 1b 84 24 ff ff ff 7f   sbb    rax,QWORD PTR [r12+0x7fffffff]
   10040726c: 4c 19 a0 ff ff ff 7f  sbb    QWORD PTR [rax+0x7fffffff],r12
   100407273: 4c 19 e8              sbb    rax,r13
   100407276: 49 1b 45 00           sbb    rax,QWORD PTR [r13+0x0]
   10040727a: 4c 19 28              sbb    QWORD PTR [rax],r13
   10040727d: 49 1b 85 ff ff ff 7f  sbb    rax,QWORD PTR [r13+0x7fffffff]
   100407284: 4c 19 a8 ff ff ff 7f  sbb    QWORD PTR [rax+0x7fffffff],r13
   10040728b: 4c 19 f0              sbb    rax,r14
   10040728e: 49 1b 06              sbb    rax,QWORD PTR [r14]
   100407291: 4c 19 30              sbb    QWORD PTR [rax],r14
   100407294: 49 1b 86 ff ff ff 7f  sbb    rax,QWORD PTR [r14+0x7fffffff]
   10040729b: 4c 19 b0 ff ff ff 7f  sbb    QWORD PTR [rax+0x7fffffff],r14
   1004072a2: 4c 19 f8              sbb    rax,r15
   1004072a5: 49 1b 07              sbb    rax,QWORD PTR [r15]
   1004072a8: 4c 19 38              sbb    QWORD PTR [rax],r15
   1004072ab: 49 1b 87 ff ff ff 7f  sbb    rax,QWORD PTR [r15+0x7fffffff]
   1004072b2: 4c 19 b8 ff ff ff 7f  sbb    QWORD PTR [rax+0x7fffffff],r15
   1004072b9: 48 81 d9 ff ff ff 7f  sbb    rcx,0x7fffffff
   1004072c0: 48 19 c1              sbb    rcx,rax
   1004072c3: 48 1b 08              sbb    rcx,QWORD PTR [rax]
   1004072c6: 48 19 01              sbb    QWORD PTR [rcx],rax
   1004072c9: 48 1b 88 ff ff ff 7f  sbb    rcx,QWORD PTR [rax+0x7fffffff]
   1004072d0: 48 19 81 ff ff ff 7f  sbb    QWORD PTR [rcx+0x7fffffff],rax
   1004072d7: 48 19 c9              sbb    rcx,rcx
   1004072da: 48 1b 09              sbb    rcx,QWORD PTR [rcx]
   1004072dd: 48 19 09              sbb    QWORD PTR [rcx],rcx
   1004072e0: 48 1b 89 ff ff ff 7f  sbb    rcx,QWORD PTR [rcx+0x7fffffff]
   1004072e7: 48 19 89 ff ff ff 7f  sbb    QWORD PTR [rcx+0x7fffffff],rcx
   1004072ee: 48 19 d1              sbb    rcx,rdx
   1004072f1: 48 1b 0a              sbb    rcx,QWORD PTR [rdx]
   1004072f4: 48 19 11              sbb    QWORD PTR [rcx],rdx
   1004072f7: 48 1b 8a ff ff ff 7f  sbb    rcx,QWORD PTR [rdx+0x7fffffff]
   1004072fe: 48 19 91 ff ff ff 7f  sbb    QWORD PTR [rcx+0x7fffffff],rdx
   100407305: 48 19 d9              sbb    rcx,rbx
   100407308: 48 1b 0b              sbb    rcx,QWORD PTR [rbx]
   10040730b: 48 19 19              sbb    QWORD PTR [rcx],rbx
   10040730e: 48 1b 8b ff ff ff 7f  sbb    rcx,QWORD PTR [rbx+0x7fffffff]
   100407315: 48 19 99 ff ff ff 7f  sbb    QWORD PTR [rcx+0x7fffffff],rbx
   10040731c: 48 19 e1              sbb    rcx,rsp
   10040731f: 48 1b 0c 24           sbb    rcx,QWORD PTR [rsp]
   100407323: 48 19 21              sbb    QWORD PTR [rcx],rsp
   100407326: 48 1b 8c 24 ff ff ff 7f   sbb    rcx,QWORD PTR [rsp+0x7fffffff]
   10040732e: 48 19 a1 ff ff ff 7f  sbb    QWORD PTR [rcx+0x7fffffff],rsp
   100407335: 48 19 e9              sbb    rcx,rbp
   100407338: 48 1b 4d 00           sbb    rcx,QWORD PTR [rbp+0x0]
   10040733c: 48 19 29              sbb    QWORD PTR [rcx],rbp
   10040733f: 48 1b 8d ff ff ff 7f  sbb    rcx,QWORD PTR [rbp+0x7fffffff]
   100407346: 48 19 a9 ff ff ff 7f  sbb    QWORD PTR [rcx+0x7fffffff],rbp
   10040734d: 48 19 f1              sbb    rcx,rsi
   100407350: 48 1b 0e              sbb    rcx,QWORD PTR [rsi]
   100407353: 48 19 31              sbb    QWORD PTR [rcx],rsi
   100407356: 48 1b 8e ff ff ff 7f  sbb    rcx,QWORD PTR [rsi+0x7fffffff]
   10040735d: 48 19 b1 ff ff ff 7f  sbb    QWORD PTR [rcx+0x7fffffff],rsi
   100407364: 48 19 f9              sbb    rcx,rdi
   100407367: 48 1b 0f              sbb    rcx,QWORD PTR [rdi]
   10040736a: 48 19 39              sbb    QWORD PTR [rcx],rdi
   10040736d: 48 1b 8f ff ff ff 7f  sbb    rcx,QWORD PTR [rdi+0x7fffffff]
   100407374: 48 19 b9 ff ff ff 7f  sbb    QWORD PTR [rcx+0x7fffffff],rdi
   10040737b: 4c 19 c1              sbb    rcx,r8
   10040737e: 49 1b 08              sbb    rcx,QWORD PTR [r8]
   100407381: 4c 19 01              sbb    QWORD PTR [rcx],r8
   100407384: 49 1b 88 ff ff ff 7f  sbb    rcx,QWORD PTR [r8+0x7fffffff]
   10040738b: 4c 19 81 ff ff ff 7f  sbb    QWORD PTR [rcx+0x7fffffff],r8
   100407392: 4c 19 c9              sbb    rcx,r9
   100407395: 49 1b 09              sbb    rcx,QWORD PTR [r9]
   100407398: 4c 19 09              sbb    QWORD PTR [rcx],r9
   10040739b: 49 1b 89 ff ff ff 7f  sbb    rcx,QWORD PTR [r9+0x7fffffff]
   1004073a2: 4c 19 89 ff ff ff 7f  sbb    QWORD PTR [rcx+0x7fffffff],r9
   1004073a9: 4c 19 d1              sbb    rcx,r10
   1004073ac: 49 1b 0a              sbb    rcx,QWORD PTR [r10]
   1004073af: 4c 19 11              sbb    QWORD PTR [rcx],r10
   1004073b2: 49 1b 8a ff ff ff 7f  sbb    rcx,QWORD PTR [r10+0x7fffffff]
   1004073b9: 4c 19 91 ff ff ff 7f  sbb    QWORD PTR [rcx+0x7fffffff],r10
   1004073c0: 4c 19 d9              sbb    rcx,r11
   1004073c3: 49 1b 0b              sbb    rcx,QWORD PTR [r11]
   1004073c6: 4c 19 19              sbb    QWORD PTR [rcx],r11
   1004073c9: 49 1b 8b ff ff ff 7f  sbb    rcx,QWORD PTR [r11+0x7fffffff]
   1004073d0: 4c 19 99 ff ff ff 7f  sbb    QWORD PTR [rcx+0x7fffffff],r11
   1004073d7: 4c 19 e1              sbb    rcx,r12
   1004073da: 49 1b 0c 24           sbb    rcx,QWORD PTR [r12]
   1004073de: 4c 19 21              sbb    QWORD PTR [rcx],r12
   1004073e1: 49 1b 8c 24 ff ff ff 7f   sbb    rcx,QWORD PTR [r12+0x7fffffff]
   1004073e9: 4c 19 a1 ff ff ff 7f  sbb    QWORD PTR [rcx+0x7fffffff],r12
   1004073f0: 4c 19 e9              sbb    rcx,r13
   1004073f3: 49 1b 4d 00           sbb    rcx,QWORD PTR [r13+0x0]
   1004073f7: 4c 19 29              sbb    QWORD PTR [rcx],r13
   1004073fa: 49 1b 8d ff ff ff 7f  sbb    rcx,QWORD PTR [r13+0x7fffffff]
   100407401: 4c 19 a9 ff ff ff 7f  sbb    QWORD PTR [rcx+0x7fffffff],r13
   100407408: 4c 19 f1              sbb    rcx,r14
   10040740b: 49 1b 0e              sbb    rcx,QWORD PTR [r14]
   10040740e: 4c 19 31              sbb    QWORD PTR [rcx],r14
   100407411: 49 1b 8e ff ff ff 7f  sbb    rcx,QWORD PTR [r14+0x7fffffff]
   100407418: 4c 19 b1 ff ff ff 7f  sbb    QWORD PTR [rcx+0x7fffffff],r14
   10040741f: 4c 19 f9              sbb    rcx,r15
   100407422: 49 1b 0f              sbb    rcx,QWORD PTR [r15]
   100407425: 4c 19 39              sbb    QWORD PTR [rcx],r15
   100407428: 49 1b 8f ff ff ff 7f  sbb    rcx,QWORD PTR [r15+0x7fffffff]
   10040742f: 4c 19 b9 ff ff ff 7f  sbb    QWORD PTR [rcx+0x7fffffff],r15
   100407436: 48 81 da ff ff ff 7f  sbb    rdx,0x7fffffff
   10040743d: 48 19 c2              sbb    rdx,rax
   100407440: 48 1b 10              sbb    rdx,QWORD PTR [rax]
   100407443: 48 19 02              sbb    QWORD PTR [rdx],rax
   100407446: 48 1b 90 ff ff ff 7f  sbb    rdx,QWORD PTR [rax+0x7fffffff]
   10040744d: 48 19 82 ff ff ff 7f  sbb    QWORD PTR [rdx+0x7fffffff],rax
   100407454: 48 19 ca              sbb    rdx,rcx
   100407457: 48 1b 11              sbb    rdx,QWORD PTR [rcx]
   10040745a: 48 19 0a              sbb    QWORD PTR [rdx],rcx
   10040745d: 48 1b 91 ff ff ff 7f  sbb    rdx,QWORD PTR [rcx+0x7fffffff]
   100407464: 48 19 8a ff ff ff 7f  sbb    QWORD PTR [rdx+0x7fffffff],rcx
   10040746b: 48 19 d2              sbb    rdx,rdx
   10040746e: 48 1b 12              sbb    rdx,QWORD PTR [rdx]
   100407471: 48 19 12              sbb    QWORD PTR [rdx],rdx
   100407474: 48 1b 92 ff ff ff 7f  sbb    rdx,QWORD PTR [rdx+0x7fffffff]
   10040747b: 48 19 92 ff ff ff 7f  sbb    QWORD PTR [rdx+0x7fffffff],rdx
   100407482: 48 19 da              sbb    rdx,rbx
   100407485: 48 1b 13              sbb    rdx,QWORD PTR [rbx]
   100407488: 48 19 1a              sbb    QWORD PTR [rdx],rbx
   10040748b: 48 1b 93 ff ff ff 7f  sbb    rdx,QWORD PTR [rbx+0x7fffffff]
   100407492: 48 19 9a ff ff ff 7f  sbb    QWORD PTR [rdx+0x7fffffff],rbx
   100407499: 48 19 e2              sbb    rdx,rsp
   10040749c: 48 1b 14 24           sbb    rdx,QWORD PTR [rsp]
   1004074a0: 48 19 22              sbb    QWORD PTR [rdx],rsp
   1004074a3: 48 1b 94 24 ff ff ff 7f   sbb    rdx,QWORD PTR [rsp+0x7fffffff]
   1004074ab: 48 19 a2 ff ff ff 7f  sbb    QWORD PTR [rdx+0x7fffffff],rsp
   1004074b2: 48 19 ea              sbb    rdx,rbp
   1004074b5: 48 1b 55 00           sbb    rdx,QWORD PTR [rbp+0x0]
   1004074b9: 48 19 2a              sbb    QWORD PTR [rdx],rbp
   1004074bc: 48 1b 95 ff ff ff 7f  sbb    rdx,QWORD PTR [rbp+0x7fffffff]
   1004074c3: 48 19 aa ff ff ff 7f  sbb    QWORD PTR [rdx+0x7fffffff],rbp
   1004074ca: 48 19 f2              sbb    rdx,rsi
   1004074cd: 48 1b 16              sbb    rdx,QWORD PTR [rsi]
   1004074d0: 48 19 32              sbb    QWORD PTR [rdx],rsi
   1004074d3: 48 1b 96 ff ff ff 7f  sbb    rdx,QWORD PTR [rsi+0x7fffffff]
   1004074da: 48 19 b2 ff ff ff 7f  sbb    QWORD PTR [rdx+0x7fffffff],rsi
   1004074e1: 48 19 fa              sbb    rdx,rdi
   1004074e4: 48 1b 17              sbb    rdx,QWORD PTR [rdi]
   1004074e7: 48 19 3a              sbb    QWORD PTR [rdx],rdi
   1004074ea: 48 1b 97 ff ff ff 7f  sbb    rdx,QWORD PTR [rdi+0x7fffffff]
   1004074f1: 48 19 ba ff ff ff 7f  sbb    QWORD PTR [rdx+0x7fffffff],rdi
   1004074f8: 4c 19 c2              sbb    rdx,r8
   1004074fb: 49 1b 10              sbb    rdx,QWORD PTR [r8]
   1004074fe: 4c 19 02              sbb    QWORD PTR [rdx],r8
   100407501: 49 1b 90 ff ff ff 7f  sbb    rdx,QWORD PTR [r8+0x7fffffff]
   100407508: 4c 19 82 ff ff ff 7f  sbb    QWORD PTR [rdx+0x7fffffff],r8
   10040750f: 4c 19 ca              sbb    rdx,r9
   100407512: 49 1b 11              sbb    rdx,QWORD PTR [r9]
   100407515: 4c 19 0a              sbb    QWORD PTR [rdx],r9
   100407518: 49 1b 91 ff ff ff 7f  sbb    rdx,QWORD PTR [r9+0x7fffffff]
   10040751f: 4c 19 8a ff ff ff 7f  sbb    QWORD PTR [rdx+0x7fffffff],r9
   100407526: 4c 19 d2              sbb    rdx,r10
   100407529: 49 1b 12              sbb    rdx,QWORD PTR [r10]
   10040752c: 4c 19 12              sbb    QWORD PTR [rdx],r10
   10040752f: 49 1b 92 ff ff ff 7f  sbb    rdx,QWORD PTR [r10+0x7fffffff]
   100407536: 4c 19 92 ff ff ff 7f  sbb    QWORD PTR [rdx+0x7fffffff],r10
   10040753d: 4c 19 da              sbb    rdx,r11
   100407540: 49 1b 13              sbb    rdx,QWORD PTR [r11]
   100407543: 4c 19 1a              sbb    QWORD PTR [rdx],r11
   100407546: 49 1b 93 ff ff ff 7f  sbb    rdx,QWORD PTR [r11+0x7fffffff]
   10040754d: 4c 19 9a ff ff ff 7f  sbb    QWORD PTR [rdx+0x7fffffff],r11
   100407554: 4c 19 e2              sbb    rdx,r12
   100407557: 49 1b 14 24           sbb    rdx,QWORD PTR [r12]
   10040755b: 4c 19 22              sbb    QWORD PTR [rdx],r12
   10040755e: 49 1b 94 24 ff ff ff 7f   sbb    rdx,QWORD PTR [r12+0x7fffffff]
   100407566: 4c 19 a2 ff ff ff 7f  sbb    QWORD PTR [rdx+0x7fffffff],r12
   10040756d: 4c 19 ea              sbb    rdx,r13
   100407570: 49 1b 55 00           sbb    rdx,QWORD PTR [r13+0x0]
   100407574: 4c 19 2a              sbb    QWORD PTR [rdx],r13
   100407577: 49 1b 95 ff ff ff 7f  sbb    rdx,QWORD PTR [r13+0x7fffffff]
   10040757e: 4c 19 aa ff ff ff 7f  sbb    QWORD PTR [rdx+0x7fffffff],r13
   100407585: 4c 19 f2              sbb    rdx,r14
   100407588: 49 1b 16              sbb    rdx,QWORD PTR [r14]
   10040758b: 4c 19 32              sbb    QWORD PTR [rdx],r14
   10040758e: 49 1b 96 ff ff ff 7f  sbb    rdx,QWORD PTR [r14+0x7fffffff]
   100407595: 4c 19 b2 ff ff ff 7f  sbb    QWORD PTR [rdx+0x7fffffff],r14
   10040759c: 4c 19 fa              sbb    rdx,r15
   10040759f: 49 1b 17              sbb    rdx,QWORD PTR [r15]
   1004075a2: 4c 19 3a              sbb    QWORD PTR [rdx],r15
   1004075a5: 49 1b 97 ff ff ff 7f  sbb    rdx,QWORD PTR [r15+0x7fffffff]
   1004075ac: 4c 19 ba ff ff ff 7f  sbb    QWORD PTR [rdx+0x7fffffff],r15
   1004075b3: 48 81 db ff ff ff 7f  sbb    rbx,0x7fffffff
   1004075ba: 48 19 c3              sbb    rbx,rax
   1004075bd: 48 1b 18              sbb    rbx,QWORD PTR [rax]
   1004075c0: 48 19 03              sbb    QWORD PTR [rbx],rax
   1004075c3: 48 1b 98 ff ff ff 7f  sbb    rbx,QWORD PTR [rax+0x7fffffff]
   1004075ca: 48 19 83 ff ff ff 7f  sbb    QWORD PTR [rbx+0x7fffffff],rax
   1004075d1: 48 19 cb              sbb    rbx,rcx
   1004075d4: 48 1b 19              sbb    rbx,QWORD PTR [rcx]
   1004075d7: 48 19 0b              sbb    QWORD PTR [rbx],rcx
   1004075da: 48 1b 99 ff ff ff 7f  sbb    rbx,QWORD PTR [rcx+0x7fffffff]
   1004075e1: 48 19 8b ff ff ff 7f  sbb    QWORD PTR [rbx+0x7fffffff],rcx
   1004075e8: 48 19 d3              sbb    rbx,rdx
   1004075eb: 48 1b 1a              sbb    rbx,QWORD PTR [rdx]
   1004075ee: 48 19 13              sbb    QWORD PTR [rbx],rdx
   1004075f1: 48 1b 9a ff ff ff 7f  sbb    rbx,QWORD PTR [rdx+0x7fffffff]
   1004075f8: 48 19 93 ff ff ff 7f  sbb    QWORD PTR [rbx+0x7fffffff],rdx
   1004075ff: 48 19 db              sbb    rbx,rbx
   100407602: 48 1b 1b              sbb    rbx,QWORD PTR [rbx]
   100407605: 48 19 1b              sbb    QWORD PTR [rbx],rbx
   100407608: 48 1b 9b ff ff ff 7f  sbb    rbx,QWORD PTR [rbx+0x7fffffff]
   10040760f: 48 19 9b ff ff ff 7f  sbb    QWORD PTR [rbx+0x7fffffff],rbx
   100407616: 48 19 e3              sbb    rbx,rsp
   100407619: 48 1b 1c 24           sbb    rbx,QWORD PTR [rsp]
   10040761d: 48 19 23              sbb    QWORD PTR [rbx],rsp
   100407620: 48 1b 9c 24 ff ff ff 7f   sbb    rbx,QWORD PTR [rsp+0x7fffffff]
   100407628: 48 19 a3 ff ff ff 7f  sbb    QWORD PTR [rbx+0x7fffffff],rsp
   10040762f: 48 19 eb              sbb    rbx,rbp
   100407632: 48 1b 5d 00           sbb    rbx,QWORD PTR [rbp+0x0]
   100407636: 48 19 2b              sbb    QWORD PTR [rbx],rbp
   100407639: 48 1b 9d ff ff ff 7f  sbb    rbx,QWORD PTR [rbp+0x7fffffff]
   100407640: 48 19 ab ff ff ff 7f  sbb    QWORD PTR [rbx+0x7fffffff],rbp
   100407647: 48 19 f3              sbb    rbx,rsi
   10040764a: 48 1b 1e              sbb    rbx,QWORD PTR [rsi]
   10040764d: 48 19 33              sbb    QWORD PTR [rbx],rsi
   100407650: 48 1b 9e ff ff ff 7f  sbb    rbx,QWORD PTR [rsi+0x7fffffff]
   100407657: 48 19 b3 ff ff ff 7f  sbb    QWORD PTR [rbx+0x7fffffff],rsi
   10040765e: 48 19 fb              sbb    rbx,rdi
   100407661: 48 1b 1f              sbb    rbx,QWORD PTR [rdi]
   100407664: 48 19 3b              sbb    QWORD PTR [rbx],rdi
   100407667: 48 1b 9f ff ff ff 7f  sbb    rbx,QWORD PTR [rdi+0x7fffffff]
   10040766e: 48 19 bb ff ff ff 7f  sbb    QWORD PTR [rbx+0x7fffffff],rdi
   100407675: 4c 19 c3              sbb    rbx,r8
   100407678: 49 1b 18              sbb    rbx,QWORD PTR [r8]
   10040767b: 4c 19 03              sbb    QWORD PTR [rbx],r8
   10040767e: 49 1b 98 ff ff ff 7f  sbb    rbx,QWORD PTR [r8+0x7fffffff]
   100407685: 4c 19 83 ff ff ff 7f  sbb    QWORD PTR [rbx+0x7fffffff],r8
   10040768c: 4c 19 cb              sbb    rbx,r9
   10040768f: 49 1b 19              sbb    rbx,QWORD PTR [r9]
   100407692: 4c 19 0b              sbb    QWORD PTR [rbx],r9
   100407695: 49 1b 99 ff ff ff 7f  sbb    rbx,QWORD PTR [r9+0x7fffffff]
   10040769c: 4c 19 8b ff ff ff 7f  sbb    QWORD PTR [rbx+0x7fffffff],r9
   1004076a3: 4c 19 d3              sbb    rbx,r10
   1004076a6: 49 1b 1a              sbb    rbx,QWORD PTR [r10]
   1004076a9: 4c 19 13              sbb    QWORD PTR [rbx],r10
   1004076ac: 49 1b 9a ff ff ff 7f  sbb    rbx,QWORD PTR [r10+0x7fffffff]
   1004076b3: 4c 19 93 ff ff ff 7f  sbb    QWORD PTR [rbx+0x7fffffff],r10
   1004076ba: 4c 19 db              sbb    rbx,r11
   1004076bd: 49 1b 1b              sbb    rbx,QWORD PTR [r11]
   1004076c0: 4c 19 1b              sbb    QWORD PTR [rbx],r11
   1004076c3: 49 1b 9b ff ff ff 7f  sbb    rbx,QWORD PTR [r11+0x7fffffff]
   1004076ca: 4c 19 9b ff ff ff 7f  sbb    QWORD PTR [rbx+0x7fffffff],r11
   1004076d1: 4c 19 e3              sbb    rbx,r12
   1004076d4: 49 1b 1c 24           sbb    rbx,QWORD PTR [r12]
   1004076d8: 4c 19 23              sbb    QWORD PTR [rbx],r12
   1004076db: 49 1b 9c 24 ff ff ff 7f   sbb    rbx,QWORD PTR [r12+0x7fffffff]
   1004076e3: 4c 19 a3 ff ff ff 7f  sbb    QWORD PTR [rbx+0x7fffffff],r12
   1004076ea: 4c 19 eb              sbb    rbx,r13
   1004076ed: 49 1b 5d 00           sbb    rbx,QWORD PTR [r13+0x0]
   1004076f1: 4c 19 2b              sbb    QWORD PTR [rbx],r13
   1004076f4: 49 1b 9d ff ff ff 7f  sbb    rbx,QWORD PTR [r13+0x7fffffff]
   1004076fb: 4c 19 ab ff ff ff 7f  sbb    QWORD PTR [rbx+0x7fffffff],r13
   100407702: 4c 19 f3              sbb    rbx,r14
   100407705: 49 1b 1e              sbb    rbx,QWORD PTR [r14]
   100407708: 4c 19 33              sbb    QWORD PTR [rbx],r14
   10040770b: 49 1b 9e ff ff ff 7f  sbb    rbx,QWORD PTR [r14+0x7fffffff]
   100407712: 4c 19 b3 ff ff ff 7f  sbb    QWORD PTR [rbx+0x7fffffff],r14
   100407719: 4c 19 fb              sbb    rbx,r15
   10040771c: 49 1b 1f              sbb    rbx,QWORD PTR [r15]
   10040771f: 4c 19 3b              sbb    QWORD PTR [rbx],r15
   100407722: 49 1b 9f ff ff ff 7f  sbb    rbx,QWORD PTR [r15+0x7fffffff]
   100407729: 4c 19 bb ff ff ff 7f  sbb    QWORD PTR [rbx+0x7fffffff],r15
   100407730: 48 81 dc ff ff ff 7f  sbb    rsp,0x7fffffff
   100407737: 48 19 c4              sbb    rsp,rax
   10040773a: 48 1b 20              sbb    rsp,QWORD PTR [rax]
   10040773d: 48 19 04 24           sbb    QWORD PTR [rsp],rax
   100407741: 48 1b a0 ff ff ff 7f  sbb    rsp,QWORD PTR [rax+0x7fffffff]
   100407748: 48 19 84 24 ff ff ff 7f   sbb    QWORD PTR [rsp+0x7fffffff],rax
   100407750: 48 19 cc              sbb    rsp,rcx
   100407753: 48 1b 21              sbb    rsp,QWORD PTR [rcx]
   100407756: 48 19 0c 24           sbb    QWORD PTR [rsp],rcx
   10040775a: 48 1b a1 ff ff ff 7f  sbb    rsp,QWORD PTR [rcx+0x7fffffff]
   100407761: 48 19 8c 24 ff ff ff 7f   sbb    QWORD PTR [rsp+0x7fffffff],rcx
   100407769: 48 19 d4              sbb    rsp,rdx
   10040776c: 48 1b 22              sbb    rsp,QWORD PTR [rdx]
   10040776f: 48 19 14 24           sbb    QWORD PTR [rsp],rdx
   100407773: 48 1b a2 ff ff ff 7f  sbb    rsp,QWORD PTR [rdx+0x7fffffff]
   10040777a: 48 19 94 24 ff ff ff 7f   sbb    QWORD PTR [rsp+0x7fffffff],rdx
   100407782: 48 19 dc              sbb    rsp,rbx
   100407785: 48 1b 23              sbb    rsp,QWORD PTR [rbx]
   100407788: 48 19 1c 24           sbb    QWORD PTR [rsp],rbx
   10040778c: 48 1b a3 ff ff ff 7f  sbb    rsp,QWORD PTR [rbx+0x7fffffff]
   100407793: 48 19 9c 24 ff ff ff 7f   sbb    QWORD PTR [rsp+0x7fffffff],rbx
   10040779b: 48 19 e4              sbb    rsp,rsp
   10040779e: 48 1b 24 24           sbb    rsp,QWORD PTR [rsp]
   1004077a2: 48 19 24 24           sbb    QWORD PTR [rsp],rsp
   1004077a6: 48 1b a4 24 ff ff ff 7f   sbb    rsp,QWORD PTR [rsp+0x7fffffff]
   1004077ae: 48 19 a4 24 ff ff ff 7f   sbb    QWORD PTR [rsp+0x7fffffff],rsp
   1004077b6: 48 19 ec              sbb    rsp,rbp
   1004077b9: 48 1b 65 00           sbb    rsp,QWORD PTR [rbp+0x0]
   1004077bd: 48 19 2c 24           sbb    QWORD PTR [rsp],rbp
   1004077c1: 48 1b a5 ff ff ff 7f  sbb    rsp,QWORD PTR [rbp+0x7fffffff]
   1004077c8: 48 19 ac 24 ff ff ff 7f   sbb    QWORD PTR [rsp+0x7fffffff],rbp
   1004077d0: 48 19 f4              sbb    rsp,rsi
   1004077d3: 48 1b 26              sbb    rsp,QWORD PTR [rsi]
   1004077d6: 48 19 34 24           sbb    QWORD PTR [rsp],rsi
   1004077da: 48 1b a6 ff ff ff 7f  sbb    rsp,QWORD PTR [rsi+0x7fffffff]
   1004077e1: 48 19 b4 24 ff ff ff 7f   sbb    QWORD PTR [rsp+0x7fffffff],rsi
   1004077e9: 48 19 fc              sbb    rsp,rdi
   1004077ec: 48 1b 27              sbb    rsp,QWORD PTR [rdi]
   1004077ef: 48 19 3c 24           sbb    QWORD PTR [rsp],rdi
   1004077f3: 48 1b a7 ff ff ff 7f  sbb    rsp,QWORD PTR [rdi+0x7fffffff]
   1004077fa: 48 19 bc 24 ff ff ff 7f   sbb    QWORD PTR [rsp+0x7fffffff],rdi
   100407802: 4c 19 c4              sbb    rsp,r8
   100407805: 49 1b 20              sbb    rsp,QWORD PTR [r8]
   100407808: 4c 19 04 24           sbb    QWORD PTR [rsp],r8
   10040780c: 49 1b a0 ff ff ff 7f  sbb    rsp,QWORD PTR [r8+0x7fffffff]
   100407813: 4c 19 84 24 ff ff ff 7f   sbb    QWORD PTR [rsp+0x7fffffff],r8
   10040781b: 4c 19 cc              sbb    rsp,r9
   10040781e: 49 1b 21              sbb    rsp,QWORD PTR [r9]
   100407821: 4c 19 0c 24           sbb    QWORD PTR [rsp],r9
   100407825: 49 1b a1 ff ff ff 7f  sbb    rsp,QWORD PTR [r9+0x7fffffff]
   10040782c: 4c 19 8c 24 ff ff ff 7f   sbb    QWORD PTR [rsp+0x7fffffff],r9
   100407834: 4c 19 d4              sbb    rsp,r10
   100407837: 49 1b 22              sbb    rsp,QWORD PTR [r10]
   10040783a: 4c 19 14 24           sbb    QWORD PTR [rsp],r10
   10040783e: 49 1b a2 ff ff ff 7f  sbb    rsp,QWORD PTR [r10+0x7fffffff]
   100407845: 4c 19 94 24 ff ff ff 7f   sbb    QWORD PTR [rsp+0x7fffffff],r10
   10040784d: 4c 19 dc              sbb    rsp,r11
   100407850: 49 1b 23              sbb    rsp,QWORD PTR [r11]
   100407853: 4c 19 1c 24           sbb    QWORD PTR [rsp],r11
   100407857: 49 1b a3 ff ff ff 7f  sbb    rsp,QWORD PTR [r11+0x7fffffff]
   10040785e: 4c 19 9c 24 ff ff ff 7f   sbb    QWORD PTR [rsp+0x7fffffff],r11
   100407866: 4c 19 e4              sbb    rsp,r12
   100407869: 49 1b 24 24           sbb    rsp,QWORD PTR [r12]
   10040786d: 4c 19 24 24           sbb    QWORD PTR [rsp],r12
   100407871: 49 1b a4 24 ff ff ff 7f   sbb    rsp,QWORD PTR [r12+0x7fffffff]
   100407879: 4c 19 a4 24 ff ff ff 7f   sbb    QWORD PTR [rsp+0x7fffffff],r12
   100407881: 4c 19 ec              sbb    rsp,r13
   100407884: 49 1b 65 00           sbb    rsp,QWORD PTR [r13+0x0]
   100407888: 4c 19 2c 24           sbb    QWORD PTR [rsp],r13
   10040788c: 49 1b a5 ff ff ff 7f  sbb    rsp,QWORD PTR [r13+0x7fffffff]
   100407893: 4c 19 ac 24 ff ff ff 7f   sbb    QWORD PTR [rsp+0x7fffffff],r13
   10040789b: 4c 19 f4              sbb    rsp,r14
   10040789e: 49 1b 26              sbb    rsp,QWORD PTR [r14]
   1004078a1: 4c 19 34 24           sbb    QWORD PTR [rsp],r14
   1004078a5: 49 1b a6 ff ff ff 7f  sbb    rsp,QWORD PTR [r14+0x7fffffff]
   1004078ac: 4c 19 b4 24 ff ff ff 7f   sbb    QWORD PTR [rsp+0x7fffffff],r14
   1004078b4: 4c 19 fc              sbb    rsp,r15
   1004078b7: 49 1b 27              sbb    rsp,QWORD PTR [r15]
   1004078ba: 4c 19 3c 24           sbb    QWORD PTR [rsp],r15
   1004078be: 49 1b a7 ff ff ff 7f  sbb    rsp,QWORD PTR [r15+0x7fffffff]
   1004078c5: 4c 19 bc 24 ff ff ff 7f   sbb    QWORD PTR [rsp+0x7fffffff],r15
   1004078cd: 48 81 dd ff ff ff 7f  sbb    rbp,0x7fffffff
   1004078d4: 48 19 c5              sbb    rbp,rax
   1004078d7: 48 1b 28              sbb    rbp,QWORD PTR [rax]
   1004078da: 48 19 45 00           sbb    QWORD PTR [rbp+0x0],rax
   1004078de: 48 1b a8 ff ff ff 7f  sbb    rbp,QWORD PTR [rax+0x7fffffff]
   1004078e5: 48 19 85 ff ff ff 7f  sbb    QWORD PTR [rbp+0x7fffffff],rax
   1004078ec: 48 19 cd              sbb    rbp,rcx
   1004078ef: 48 1b 29              sbb    rbp,QWORD PTR [rcx]
   1004078f2: 48 19 4d 00           sbb    QWORD PTR [rbp+0x0],rcx
   1004078f6: 48 1b a9 ff ff ff 7f  sbb    rbp,QWORD PTR [rcx+0x7fffffff]
   1004078fd: 48 19 8d ff ff ff 7f  sbb    QWORD PTR [rbp+0x7fffffff],rcx
   100407904: 48 19 d5              sbb    rbp,rdx
   100407907: 48 1b 2a              sbb    rbp,QWORD PTR [rdx]
   10040790a: 48 19 55 00           sbb    QWORD PTR [rbp+0x0],rdx
   10040790e: 48 1b aa ff ff ff 7f  sbb    rbp,QWORD PTR [rdx+0x7fffffff]
   100407915: 48 19 95 ff ff ff 7f  sbb    QWORD PTR [rbp+0x7fffffff],rdx
   10040791c: 48 19 dd              sbb    rbp,rbx
   10040791f: 48 1b 2b              sbb    rbp,QWORD PTR [rbx]
   100407922: 48 19 5d 00           sbb    QWORD PTR [rbp+0x0],rbx
   100407926: 48 1b ab ff ff ff 7f  sbb    rbp,QWORD PTR [rbx+0x7fffffff]
   10040792d: 48 19 9d ff ff ff 7f  sbb    QWORD PTR [rbp+0x7fffffff],rbx
   100407934: 48 19 e5              sbb    rbp,rsp
   100407937: 48 1b 2c 24           sbb    rbp,QWORD PTR [rsp]
   10040793b: 48 19 65 00           sbb    QWORD PTR [rbp+0x0],rsp
   10040793f: 48 1b ac 24 ff ff ff 7f   sbb    rbp,QWORD PTR [rsp+0x7fffffff]
   100407947: 48 19 a5 ff ff ff 7f  sbb    QWORD PTR [rbp+0x7fffffff],rsp
   10040794e: 48 19 ed              sbb    rbp,rbp
   100407951: 48 1b 6d 00           sbb    rbp,QWORD PTR [rbp+0x0]
   100407955: 48 19 6d 00           sbb    QWORD PTR [rbp+0x0],rbp
   100407959: 48 1b ad ff ff ff 7f  sbb    rbp,QWORD PTR [rbp+0x7fffffff]
   100407960: 48 19 ad ff ff ff 7f  sbb    QWORD PTR [rbp+0x7fffffff],rbp
   100407967: 48 19 f5              sbb    rbp,rsi
   10040796a: 48 1b 2e              sbb    rbp,QWORD PTR [rsi]
   10040796d: 48 19 75 00           sbb    QWORD PTR [rbp+0x0],rsi
   100407971: 48 1b ae ff ff ff 7f  sbb    rbp,QWORD PTR [rsi+0x7fffffff]
   100407978: 48 19 b5 ff ff ff 7f  sbb    QWORD PTR [rbp+0x7fffffff],rsi
   10040797f: 48 19 fd              sbb    rbp,rdi
   100407982: 48 1b 2f              sbb    rbp,QWORD PTR [rdi]
   100407985: 48 19 7d 00           sbb    QWORD PTR [rbp+0x0],rdi
   100407989: 48 1b af ff ff ff 7f  sbb    rbp,QWORD PTR [rdi+0x7fffffff]
   100407990: 48 19 bd ff ff ff 7f  sbb    QWORD PTR [rbp+0x7fffffff],rdi
   100407997: 4c 19 c5              sbb    rbp,r8
   10040799a: 49 1b 28              sbb    rbp,QWORD PTR [r8]
   10040799d: 4c 19 45 00           sbb    QWORD PTR [rbp+0x0],r8
   1004079a1: 49 1b a8 ff ff ff 7f  sbb    rbp,QWORD PTR [r8+0x7fffffff]
   1004079a8: 4c 19 85 ff ff ff 7f  sbb    QWORD PTR [rbp+0x7fffffff],r8
   1004079af: 4c 19 cd              sbb    rbp,r9
   1004079b2: 49 1b 29              sbb    rbp,QWORD PTR [r9]
   1004079b5: 4c 19 4d 00           sbb    QWORD PTR [rbp+0x0],r9
   1004079b9: 49 1b a9 ff ff ff 7f  sbb    rbp,QWORD PTR [r9+0x7fffffff]
   1004079c0: 4c 19 8d ff ff ff 7f  sbb    QWORD PTR [rbp+0x7fffffff],r9
   1004079c7: 4c 19 d5              sbb    rbp,r10
   1004079ca: 49 1b 2a              sbb    rbp,QWORD PTR [r10]
   1004079cd: 4c 19 55 00           sbb    QWORD PTR [rbp+0x0],r10
   1004079d1: 49 1b aa ff ff ff 7f  sbb    rbp,QWORD PTR [r10+0x7fffffff]
   1004079d8: 4c 19 95 ff ff ff 7f  sbb    QWORD PTR [rbp+0x7fffffff],r10
   1004079df: 4c 19 dd              sbb    rbp,r11
   1004079e2: 49 1b 2b              sbb    rbp,QWORD PTR [r11]
   1004079e5: 4c 19 5d 00           sbb    QWORD PTR [rbp+0x0],r11
   1004079e9: 49 1b ab ff ff ff 7f  sbb    rbp,QWORD PTR [r11+0x7fffffff]
   1004079f0: 4c 19 9d ff ff ff 7f  sbb    QWORD PTR [rbp+0x7fffffff],r11
   1004079f7: 4c 19 e5              sbb    rbp,r12
   1004079fa: 49 1b 2c 24           sbb    rbp,QWORD PTR [r12]
   1004079fe: 4c 19 65 00           sbb    QWORD PTR [rbp+0x0],r12
   100407a02: 49 1b ac 24 ff ff ff 7f   sbb    rbp,QWORD PTR [r12+0x7fffffff]
   100407a0a: 4c 19 a5 ff ff ff 7f  sbb    QWORD PTR [rbp+0x7fffffff],r12
   100407a11: 4c 19 ed              sbb    rbp,r13
   100407a14: 49 1b 6d 00           sbb    rbp,QWORD PTR [r13+0x0]
   100407a18: 4c 19 6d 00           sbb    QWORD PTR [rbp+0x0],r13
   100407a1c: 49 1b ad ff ff ff 7f  sbb    rbp,QWORD PTR [r13+0x7fffffff]
   100407a23: 4c 19 ad ff ff ff 7f  sbb    QWORD PTR [rbp+0x7fffffff],r13
   100407a2a: 4c 19 f5              sbb    rbp,r14
   100407a2d: 49 1b 2e              sbb    rbp,QWORD PTR [r14]
   100407a30: 4c 19 75 00           sbb    QWORD PTR [rbp+0x0],r14
   100407a34: 49 1b ae ff ff ff 7f  sbb    rbp,QWORD PTR [r14+0x7fffffff]
   100407a3b: 4c 19 b5 ff ff ff 7f  sbb    QWORD PTR [rbp+0x7fffffff],r14
   100407a42: 4c 19 fd              sbb    rbp,r15
   100407a45: 49 1b 2f              sbb    rbp,QWORD PTR [r15]
   100407a48: 4c 19 7d 00           sbb    QWORD PTR [rbp+0x0],r15
   100407a4c: 49 1b af ff ff ff 7f  sbb    rbp,QWORD PTR [r15+0x7fffffff]
   100407a53: 4c 19 bd ff ff ff 7f  sbb    QWORD PTR [rbp+0x7fffffff],r15
   100407a5a: 48 81 de ff ff ff 7f  sbb    rsi,0x7fffffff
   100407a61: 48 19 c6              sbb    rsi,rax
   100407a64: 48 1b 30              sbb    rsi,QWORD PTR [rax]
   100407a67: 48 19 06              sbb    QWORD PTR [rsi],rax
   100407a6a: 48 1b b0 ff ff ff 7f  sbb    rsi,QWORD PTR [rax+0x7fffffff]
   100407a71: 48 19 86 ff ff ff 7f  sbb    QWORD PTR [rsi+0x7fffffff],rax
   100407a78: 48 19 ce              sbb    rsi,rcx
   100407a7b: 48 1b 31              sbb    rsi,QWORD PTR [rcx]
   100407a7e: 48 19 0e              sbb    QWORD PTR [rsi],rcx
   100407a81: 48 1b b1 ff ff ff 7f  sbb    rsi,QWORD PTR [rcx+0x7fffffff]
   100407a88: 48 19 8e ff ff ff 7f  sbb    QWORD PTR [rsi+0x7fffffff],rcx
   100407a8f: 48 19 d6              sbb    rsi,rdx
   100407a92: 48 1b 32              sbb    rsi,QWORD PTR [rdx]
   100407a95: 48 19 16              sbb    QWORD PTR [rsi],rdx
   100407a98: 48 1b b2 ff ff ff 7f  sbb    rsi,QWORD PTR [rdx+0x7fffffff]
   100407a9f: 48 19 96 ff ff ff 7f  sbb    QWORD PTR [rsi+0x7fffffff],rdx
   100407aa6: 48 19 de              sbb    rsi,rbx
   100407aa9: 48 1b 33              sbb    rsi,QWORD PTR [rbx]
   100407aac: 48 19 1e              sbb    QWORD PTR [rsi],rbx
   100407aaf: 48 1b b3 ff ff ff 7f  sbb    rsi,QWORD PTR [rbx+0x7fffffff]
   100407ab6: 48 19 9e ff ff ff 7f  sbb    QWORD PTR [rsi+0x7fffffff],rbx
   100407abd: 48 19 e6              sbb    rsi,rsp
   100407ac0: 48 1b 34 24           sbb    rsi,QWORD PTR [rsp]
   100407ac4: 48 19 26              sbb    QWORD PTR [rsi],rsp
   100407ac7: 48 1b b4 24 ff ff ff 7f   sbb    rsi,QWORD PTR [rsp+0x7fffffff]
   100407acf: 48 19 a6 ff ff ff 7f  sbb    QWORD PTR [rsi+0x7fffffff],rsp
   100407ad6: 48 19 ee              sbb    rsi,rbp
   100407ad9: 48 1b 75 00           sbb    rsi,QWORD PTR [rbp+0x0]
   100407add: 48 19 2e              sbb    QWORD PTR [rsi],rbp
   100407ae0: 48 1b b5 ff ff ff 7f  sbb    rsi,QWORD PTR [rbp+0x7fffffff]
   100407ae7: 48 19 ae ff ff ff 7f  sbb    QWORD PTR [rsi+0x7fffffff],rbp
   100407aee: 48 19 f6              sbb    rsi,rsi
   100407af1: 48 1b 36              sbb    rsi,QWORD PTR [rsi]
   100407af4: 48 19 36              sbb    QWORD PTR [rsi],rsi
   100407af7: 48 1b b6 ff ff ff 7f  sbb    rsi,QWORD PTR [rsi+0x7fffffff]
   100407afe: 48 19 b6 ff ff ff 7f  sbb    QWORD PTR [rsi+0x7fffffff],rsi
   100407b05: 48 19 fe              sbb    rsi,rdi
   100407b08: 48 1b 37              sbb    rsi,QWORD PTR [rdi]
   100407b0b: 48 19 3e              sbb    QWORD PTR [rsi],rdi
   100407b0e: 48 1b b7 ff ff ff 7f  sbb    rsi,QWORD PTR [rdi+0x7fffffff]
   100407b15: 48 19 be ff ff ff 7f  sbb    QWORD PTR [rsi+0x7fffffff],rdi
   100407b1c: 4c 19 c6              sbb    rsi,r8
   100407b1f: 49 1b 30              sbb    rsi,QWORD PTR [r8]
   100407b22: 4c 19 06              sbb    QWORD PTR [rsi],r8
   100407b25: 49 1b b0 ff ff ff 7f  sbb    rsi,QWORD PTR [r8+0x7fffffff]
   100407b2c: 4c 19 86 ff ff ff 7f  sbb    QWORD PTR [rsi+0x7fffffff],r8
   100407b33: 4c 19 ce              sbb    rsi,r9
   100407b36: 49 1b 31              sbb    rsi,QWORD PTR [r9]
   100407b39: 4c 19 0e              sbb    QWORD PTR [rsi],r9
   100407b3c: 49 1b b1 ff ff ff 7f  sbb    rsi,QWORD PTR [r9+0x7fffffff]
   100407b43: 4c 19 8e ff ff ff 7f  sbb    QWORD PTR [rsi+0x7fffffff],r9
   100407b4a: 4c 19 d6              sbb    rsi,r10
   100407b4d: 49 1b 32              sbb    rsi,QWORD PTR [r10]
   100407b50: 4c 19 16              sbb    QWORD PTR [rsi],r10
   100407b53: 49 1b b2 ff ff ff 7f  sbb    rsi,QWORD PTR [r10+0x7fffffff]
   100407b5a: 4c 19 96 ff ff ff 7f  sbb    QWORD PTR [rsi+0x7fffffff],r10
   100407b61: 4c 19 de              sbb    rsi,r11
   100407b64: 49 1b 33              sbb    rsi,QWORD PTR [r11]
   100407b67: 4c 19 1e              sbb    QWORD PTR [rsi],r11
   100407b6a: 49 1b b3 ff ff ff 7f  sbb    rsi,QWORD PTR [r11+0x7fffffff]
   100407b71: 4c 19 9e ff ff ff 7f  sbb    QWORD PTR [rsi+0x7fffffff],r11
   100407b78: 4c 19 e6              sbb    rsi,r12
   100407b7b: 49 1b 34 24           sbb    rsi,QWORD PTR [r12]
   100407b7f: 4c 19 26              sbb    QWORD PTR [rsi],r12
   100407b82: 49 1b b4 24 ff ff ff 7f   sbb    rsi,QWORD PTR [r12+0x7fffffff]
   100407b8a: 4c 19 a6 ff ff ff 7f  sbb    QWORD PTR [rsi+0x7fffffff],r12
   100407b91: 4c 19 ee              sbb    rsi,r13
   100407b94: 49 1b 75 00           sbb    rsi,QWORD PTR [r13+0x0]
   100407b98: 4c 19 2e              sbb    QWORD PTR [rsi],r13
   100407b9b: 49 1b b5 ff ff ff 7f  sbb    rsi,QWORD PTR [r13+0x7fffffff]
   100407ba2: 4c 19 ae ff ff ff 7f  sbb    QWORD PTR [rsi+0x7fffffff],r13
   100407ba9: 4c 19 f6              sbb    rsi,r14
   100407bac: 49 1b 36              sbb    rsi,QWORD PTR [r14]
   100407baf: 4c 19 36              sbb    QWORD PTR [rsi],r14
   100407bb2: 49 1b b6 ff ff ff 7f  sbb    rsi,QWORD PTR [r14+0x7fffffff]
   100407bb9: 4c 19 b6 ff ff ff 7f  sbb    QWORD PTR [rsi+0x7fffffff],r14
   100407bc0: 4c 19 fe              sbb    rsi,r15
   100407bc3: 49 1b 37              sbb    rsi,QWORD PTR [r15]
   100407bc6: 4c 19 3e              sbb    QWORD PTR [rsi],r15
   100407bc9: 49 1b b7 ff ff ff 7f  sbb    rsi,QWORD PTR [r15+0x7fffffff]
   100407bd0: 4c 19 be ff ff ff 7f  sbb    QWORD PTR [rsi+0x7fffffff],r15
   100407bd7: 48 81 df ff ff ff 7f  sbb    rdi,0x7fffffff
   100407bde: 48 19 c7              sbb    rdi,rax
   100407be1: 48 1b 38              sbb    rdi,QWORD PTR [rax]
   100407be4: 48 19 07              sbb    QWORD PTR [rdi],rax
   100407be7: 48 1b b8 ff ff ff 7f  sbb    rdi,QWORD PTR [rax+0x7fffffff]
   100407bee: 48 19 87 ff ff ff 7f  sbb    QWORD PTR [rdi+0x7fffffff],rax
   100407bf5: 48 19 cf              sbb    rdi,rcx
   100407bf8: 48 1b 39              sbb    rdi,QWORD PTR [rcx]
   100407bfb: 48 19 0f              sbb    QWORD PTR [rdi],rcx
   100407bfe: 48 1b b9 ff ff ff 7f  sbb    rdi,QWORD PTR [rcx+0x7fffffff]
   100407c05: 48 19 8f ff ff ff 7f  sbb    QWORD PTR [rdi+0x7fffffff],rcx
   100407c0c: 48 19 d7              sbb    rdi,rdx
   100407c0f: 48 1b 3a              sbb    rdi,QWORD PTR [rdx]
   100407c12: 48 19 17              sbb    QWORD PTR [rdi],rdx
   100407c15: 48 1b ba ff ff ff 7f  sbb    rdi,QWORD PTR [rdx+0x7fffffff]
   100407c1c: 48 19 97 ff ff ff 7f  sbb    QWORD PTR [rdi+0x7fffffff],rdx
   100407c23: 48 19 df              sbb    rdi,rbx
   100407c26: 48 1b 3b              sbb    rdi,QWORD PTR [rbx]
   100407c29: 48 19 1f              sbb    QWORD PTR [rdi],rbx
   100407c2c: 48 1b bb ff ff ff 7f  sbb    rdi,QWORD PTR [rbx+0x7fffffff]
   100407c33: 48 19 9f ff ff ff 7f  sbb    QWORD PTR [rdi+0x7fffffff],rbx
   100407c3a: 48 19 e7              sbb    rdi,rsp
   100407c3d: 48 1b 3c 24           sbb    rdi,QWORD PTR [rsp]
   100407c41: 48 19 27              sbb    QWORD PTR [rdi],rsp
   100407c44: 48 1b bc 24 ff ff ff 7f   sbb    rdi,QWORD PTR [rsp+0x7fffffff]
   100407c4c: 48 19 a7 ff ff ff 7f  sbb    QWORD PTR [rdi+0x7fffffff],rsp
   100407c53: 48 19 ef              sbb    rdi,rbp
   100407c56: 48 1b 7d 00           sbb    rdi,QWORD PTR [rbp+0x0]
   100407c5a: 48 19 2f              sbb    QWORD PTR [rdi],rbp
   100407c5d: 48 1b bd ff ff ff 7f  sbb    rdi,QWORD PTR [rbp+0x7fffffff]
   100407c64: 48 19 af ff ff ff 7f  sbb    QWORD PTR [rdi+0x7fffffff],rbp
   100407c6b: 48 19 f7              sbb    rdi,rsi
   100407c6e: 48 1b 3e              sbb    rdi,QWORD PTR [rsi]
   100407c71: 48 19 37              sbb    QWORD PTR [rdi],rsi
   100407c74: 48 1b be ff ff ff 7f  sbb    rdi,QWORD PTR [rsi+0x7fffffff]
   100407c7b: 48 19 b7 ff ff ff 7f  sbb    QWORD PTR [rdi+0x7fffffff],rsi
   100407c82: 48 19 ff              sbb    rdi,rdi
   100407c85: 48 1b 3f              sbb    rdi,QWORD PTR [rdi]
   100407c88: 48 19 3f              sbb    QWORD PTR [rdi],rdi
   100407c8b: 48 1b bf ff ff ff 7f  sbb    rdi,QWORD PTR [rdi+0x7fffffff]
   100407c92: 48 19 bf ff ff ff 7f  sbb    QWORD PTR [rdi+0x7fffffff],rdi
   100407c99: 4c 19 c7              sbb    rdi,r8
   100407c9c: 49 1b 38              sbb    rdi,QWORD PTR [r8]
   100407c9f: 4c 19 07              sbb    QWORD PTR [rdi],r8
   100407ca2: 49 1b b8 ff ff ff 7f  sbb    rdi,QWORD PTR [r8+0x7fffffff]
   100407ca9: 4c 19 87 ff ff ff 7f  sbb    QWORD PTR [rdi+0x7fffffff],r8
   100407cb0: 4c 19 cf              sbb    rdi,r9
   100407cb3: 49 1b 39              sbb    rdi,QWORD PTR [r9]
   100407cb6: 4c 19 0f              sbb    QWORD PTR [rdi],r9
   100407cb9: 49 1b b9 ff ff ff 7f  sbb    rdi,QWORD PTR [r9+0x7fffffff]
   100407cc0: 4c 19 8f ff ff ff 7f  sbb    QWORD PTR [rdi+0x7fffffff],r9
   100407cc7: 4c 19 d7              sbb    rdi,r10
   100407cca: 49 1b 3a              sbb    rdi,QWORD PTR [r10]
   100407ccd: 4c 19 17              sbb    QWORD PTR [rdi],r10
   100407cd0: 49 1b ba ff ff ff 7f  sbb    rdi,QWORD PTR [r10+0x7fffffff]
   100407cd7: 4c 19 97 ff ff ff 7f  sbb    QWORD PTR [rdi+0x7fffffff],r10
   100407cde: 4c 19 df              sbb    rdi,r11
   100407ce1: 49 1b 3b              sbb    rdi,QWORD PTR [r11]
   100407ce4: 4c 19 1f              sbb    QWORD PTR [rdi],r11
   100407ce7: 49 1b bb ff ff ff 7f  sbb    rdi,QWORD PTR [r11+0x7fffffff]
   100407cee: 4c 19 9f ff ff ff 7f  sbb    QWORD PTR [rdi+0x7fffffff],r11
   100407cf5: 4c 19 e7              sbb    rdi,r12
   100407cf8: 49 1b 3c 24           sbb    rdi,QWORD PTR [r12]
   100407cfc: 4c 19 27              sbb    QWORD PTR [rdi],r12
   100407cff: 49 1b bc 24 ff ff ff 7f   sbb    rdi,QWORD PTR [r12+0x7fffffff]
   100407d07: 4c 19 a7 ff ff ff 7f  sbb    QWORD PTR [rdi+0x7fffffff],r12
   100407d0e: 4c 19 ef              sbb    rdi,r13
   100407d11: 49 1b 7d 00           sbb    rdi,QWORD PTR [r13+0x0]
   100407d15: 4c 19 2f              sbb    QWORD PTR [rdi],r13
   100407d18: 49 1b bd ff ff ff 7f  sbb    rdi,QWORD PTR [r13+0x7fffffff]
   100407d1f: 4c 19 af ff ff ff 7f  sbb    QWORD PTR [rdi+0x7fffffff],r13
   100407d26: 4c 19 f7              sbb    rdi,r14
   100407d29: 49 1b 3e              sbb    rdi,QWORD PTR [r14]
   100407d2c: 4c 19 37              sbb    QWORD PTR [rdi],r14
   100407d2f: 49 1b be ff ff ff 7f  sbb    rdi,QWORD PTR [r14+0x7fffffff]
   100407d36: 4c 19 b7 ff ff ff 7f  sbb    QWORD PTR [rdi+0x7fffffff],r14
   100407d3d: 4c 19 ff              sbb    rdi,r15
   100407d40: 49 1b 3f              sbb    rdi,QWORD PTR [r15]
   100407d43: 4c 19 3f              sbb    QWORD PTR [rdi],r15
   100407d46: 49 1b bf ff ff ff 7f  sbb    rdi,QWORD PTR [r15+0x7fffffff]
   100407d4d: 4c 19 bf ff ff ff 7f  sbb    QWORD PTR [rdi+0x7fffffff],r15
   100407d54: 49 81 d8 ff ff ff 7f  sbb    r8,0x7fffffff
   100407d5b: 49 19 c0              sbb    r8,rax
   100407d5e: 4c 1b 00              sbb    r8,QWORD PTR [rax]
   100407d61: 49 19 00              sbb    QWORD PTR [r8],rax
   100407d64: 4c 1b 80 ff ff ff 7f  sbb    r8,QWORD PTR [rax+0x7fffffff]
   100407d6b: 49 19 80 ff ff ff 7f  sbb    QWORD PTR [r8+0x7fffffff],rax
   100407d72: 49 19 c8              sbb    r8,rcx
   100407d75: 4c 1b 01              sbb    r8,QWORD PTR [rcx]
   100407d78: 49 19 08              sbb    QWORD PTR [r8],rcx
   100407d7b: 4c 1b 81 ff ff ff 7f  sbb    r8,QWORD PTR [rcx+0x7fffffff]
   100407d82: 49 19 88 ff ff ff 7f  sbb    QWORD PTR [r8+0x7fffffff],rcx
   100407d89: 49 19 d0              sbb    r8,rdx
   100407d8c: 4c 1b 02              sbb    r8,QWORD PTR [rdx]
   100407d8f: 49 19 10              sbb    QWORD PTR [r8],rdx
   100407d92: 4c 1b 82 ff ff ff 7f  sbb    r8,QWORD PTR [rdx+0x7fffffff]
   100407d99: 49 19 90 ff ff ff 7f  sbb    QWORD PTR [r8+0x7fffffff],rdx
   100407da0: 49 19 d8              sbb    r8,rbx
   100407da3: 4c 1b 03              sbb    r8,QWORD PTR [rbx]
   100407da6: 49 19 18              sbb    QWORD PTR [r8],rbx
   100407da9: 4c 1b 83 ff ff ff 7f  sbb    r8,QWORD PTR [rbx+0x7fffffff]
   100407db0: 49 19 98 ff ff ff 7f  sbb    QWORD PTR [r8+0x7fffffff],rbx
   100407db7: 49 19 e0              sbb    r8,rsp
   100407dba: 4c 1b 04 24           sbb    r8,QWORD PTR [rsp]
   100407dbe: 49 19 20              sbb    QWORD PTR [r8],rsp
   100407dc1: 4c 1b 84 24 ff ff ff 7f   sbb    r8,QWORD PTR [rsp+0x7fffffff]
   100407dc9: 49 19 a0 ff ff ff 7f  sbb    QWORD PTR [r8+0x7fffffff],rsp
   100407dd0: 49 19 e8              sbb    r8,rbp
   100407dd3: 4c 1b 45 00           sbb    r8,QWORD PTR [rbp+0x0]
   100407dd7: 49 19 28              sbb    QWORD PTR [r8],rbp
   100407dda: 4c 1b 85 ff ff ff 7f  sbb    r8,QWORD PTR [rbp+0x7fffffff]
   100407de1: 49 19 a8 ff ff ff 7f  sbb    QWORD PTR [r8+0x7fffffff],rbp
   100407de8: 49 19 f0              sbb    r8,rsi
   100407deb: 4c 1b 06              sbb    r8,QWORD PTR [rsi]
   100407dee: 49 19 30              sbb    QWORD PTR [r8],rsi
   100407df1: 4c 1b 86 ff ff ff 7f  sbb    r8,QWORD PTR [rsi+0x7fffffff]
   100407df8: 49 19 b0 ff ff ff 7f  sbb    QWORD PTR [r8+0x7fffffff],rsi
   100407dff: 49 19 f8              sbb    r8,rdi
   100407e02: 4c 1b 07              sbb    r8,QWORD PTR [rdi]
   100407e05: 49 19 38              sbb    QWORD PTR [r8],rdi
   100407e08: 4c 1b 87 ff ff ff 7f  sbb    r8,QWORD PTR [rdi+0x7fffffff]
   100407e0f: 49 19 b8 ff ff ff 7f  sbb    QWORD PTR [r8+0x7fffffff],rdi
   100407e16: 4d 19 c0              sbb    r8,r8
   100407e19: 4d 1b 00              sbb    r8,QWORD PTR [r8]
   100407e1c: 4d 19 00              sbb    QWORD PTR [r8],r8
   100407e1f: 4d 1b 80 ff ff ff 7f  sbb    r8,QWORD PTR [r8+0x7fffffff]
   100407e26: 4d 19 80 ff ff ff 7f  sbb    QWORD PTR [r8+0x7fffffff],r8
   100407e2d: 4d 19 c8              sbb    r8,r9
   100407e30: 4d 1b 01              sbb    r8,QWORD PTR [r9]
   100407e33: 4d 19 08              sbb    QWORD PTR [r8],r9
   100407e36: 4d 1b 81 ff ff ff 7f  sbb    r8,QWORD PTR [r9+0x7fffffff]
   100407e3d: 4d 19 88 ff ff ff 7f  sbb    QWORD PTR [r8+0x7fffffff],r9
   100407e44: 4d 19 d0              sbb    r8,r10
   100407e47: 4d 1b 02              sbb    r8,QWORD PTR [r10]
   100407e4a: 4d 19 10              sbb    QWORD PTR [r8],r10
   100407e4d: 4d 1b 82 ff ff ff 7f  sbb    r8,QWORD PTR [r10+0x7fffffff]
   100407e54: 4d 19 90 ff ff ff 7f  sbb    QWORD PTR [r8+0x7fffffff],r10
   100407e5b: 4d 19 d8              sbb    r8,r11
   100407e5e: 4d 1b 03              sbb    r8,QWORD PTR [r11]
   100407e61: 4d 19 18              sbb    QWORD PTR [r8],r11
   100407e64: 4d 1b 83 ff ff ff 7f  sbb    r8,QWORD PTR [r11+0x7fffffff]
   100407e6b: 4d 19 98 ff ff ff 7f  sbb    QWORD PTR [r8+0x7fffffff],r11
   100407e72: 4d 19 e0              sbb    r8,r12
   100407e75: 4d 1b 04 24           sbb    r8,QWORD PTR [r12]
   100407e79: 4d 19 20              sbb    QWORD PTR [r8],r12
   100407e7c: 4d 1b 84 24 ff ff ff 7f   sbb    r8,QWORD PTR [r12+0x7fffffff]
   100407e84: 4d 19 a0 ff ff ff 7f  sbb    QWORD PTR [r8+0x7fffffff],r12
   100407e8b: 4d 19 e8              sbb    r8,r13
   100407e8e: 4d 1b 45 00           sbb    r8,QWORD PTR [r13+0x0]
   100407e92: 4d 19 28              sbb    QWORD PTR [r8],r13
   100407e95: 4d 1b 85 ff ff ff 7f  sbb    r8,QWORD PTR [r13+0x7fffffff]
   100407e9c: 4d 19 a8 ff ff ff 7f  sbb    QWORD PTR [r8+0x7fffffff],r13
   100407ea3: 4d 19 f0              sbb    r8,r14
   100407ea6: 4d 1b 06              sbb    r8,QWORD PTR [r14]
   100407ea9: 4d 19 30              sbb    QWORD PTR [r8],r14
   100407eac: 4d 1b 86 ff ff ff 7f  sbb    r8,QWORD PTR [r14+0x7fffffff]
   100407eb3: 4d 19 b0 ff ff ff 7f  sbb    QWORD PTR [r8+0x7fffffff],r14
   100407eba: 4d 19 f8              sbb    r8,r15
   100407ebd: 4d 1b 07              sbb    r8,QWORD PTR [r15]
   100407ec0: 4d 19 38              sbb    QWORD PTR [r8],r15
   100407ec3: 4d 1b 87 ff ff ff 7f  sbb    r8,QWORD PTR [r15+0x7fffffff]
   100407eca: 4d 19 b8 ff ff ff 7f  sbb    QWORD PTR [r8+0x7fffffff],r15
   100407ed1: 49 81 d9 ff ff ff 7f  sbb    r9,0x7fffffff
   100407ed8: 49 19 c1              sbb    r9,rax
   100407edb: 4c 1b 08              sbb    r9,QWORD PTR [rax]
   100407ede: 49 19 01              sbb    QWORD PTR [r9],rax
   100407ee1: 4c 1b 88 ff ff ff 7f  sbb    r9,QWORD PTR [rax+0x7fffffff]
   100407ee8: 49 19 81 ff ff ff 7f  sbb    QWORD PTR [r9+0x7fffffff],rax
   100407eef: 49 19 c9              sbb    r9,rcx
   100407ef2: 4c 1b 09              sbb    r9,QWORD PTR [rcx]
   100407ef5: 49 19 09              sbb    QWORD PTR [r9],rcx
   100407ef8: 4c 1b 89 ff ff ff 7f  sbb    r9,QWORD PTR [rcx+0x7fffffff]
   100407eff: 49 19 89 ff ff ff 7f  sbb    QWORD PTR [r9+0x7fffffff],rcx
   100407f06: 49 19 d1              sbb    r9,rdx
   100407f09: 4c 1b 0a              sbb    r9,QWORD PTR [rdx]
   100407f0c: 49 19 11              sbb    QWORD PTR [r9],rdx
   100407f0f: 4c 1b 8a ff ff ff 7f  sbb    r9,QWORD PTR [rdx+0x7fffffff]
   100407f16: 49 19 91 ff ff ff 7f  sbb    QWORD PTR [r9+0x7fffffff],rdx
   100407f1d: 49 19 d9              sbb    r9,rbx
   100407f20: 4c 1b 0b              sbb    r9,QWORD PTR [rbx]
   100407f23: 49 19 19              sbb    QWORD PTR [r9],rbx
   100407f26: 4c 1b 8b ff ff ff 7f  sbb    r9,QWORD PTR [rbx+0x7fffffff]
   100407f2d: 49 19 99 ff ff ff 7f  sbb    QWORD PTR [r9+0x7fffffff],rbx
   100407f34: 49 19 e1              sbb    r9,rsp
   100407f37: 4c 1b 0c 24           sbb    r9,QWORD PTR [rsp]
   100407f3b: 49 19 21              sbb    QWORD PTR [r9],rsp
   100407f3e: 4c 1b 8c 24 ff ff ff 7f   sbb    r9,QWORD PTR [rsp+0x7fffffff]
   100407f46: 49 19 a1 ff ff ff 7f  sbb    QWORD PTR [r9+0x7fffffff],rsp
   100407f4d: 49 19 e9              sbb    r9,rbp
   100407f50: 4c 1b 4d 00           sbb    r9,QWORD PTR [rbp+0x0]
   100407f54: 49 19 29              sbb    QWORD PTR [r9],rbp
   100407f57: 4c 1b 8d ff ff ff 7f  sbb    r9,QWORD PTR [rbp+0x7fffffff]
   100407f5e: 49 19 a9 ff ff ff 7f  sbb    QWORD PTR [r9+0x7fffffff],rbp
   100407f65: 49 19 f1              sbb    r9,rsi
   100407f68: 4c 1b 0e              sbb    r9,QWORD PTR [rsi]
   100407f6b: 49 19 31              sbb    QWORD PTR [r9],rsi
   100407f6e: 4c 1b 8e ff ff ff 7f  sbb    r9,QWORD PTR [rsi+0x7fffffff]
   100407f75: 49 19 b1 ff ff ff 7f  sbb    QWORD PTR [r9+0x7fffffff],rsi
   100407f7c: 49 19 f9              sbb    r9,rdi
   100407f7f: 4c 1b 0f              sbb    r9,QWORD PTR [rdi]
   100407f82: 49 19 39              sbb    QWORD PTR [r9],rdi
   100407f85: 4c 1b 8f ff ff ff 7f  sbb    r9,QWORD PTR [rdi+0x7fffffff]
   100407f8c: 49 19 b9 ff ff ff 7f  sbb    QWORD PTR [r9+0x7fffffff],rdi
   100407f93: 4d 19 c1              sbb    r9,r8
   100407f96: 4d 1b 08              sbb    r9,QWORD PTR [r8]
   100407f99: 4d 19 01              sbb    QWORD PTR [r9],r8
   100407f9c: 4d 1b 88 ff ff ff 7f  sbb    r9,QWORD PTR [r8+0x7fffffff]
   100407fa3: 4d 19 81 ff ff ff 7f  sbb    QWORD PTR [r9+0x7fffffff],r8
   100407faa: 4d 19 c9              sbb    r9,r9
   100407fad: 4d 1b 09              sbb    r9,QWORD PTR [r9]
   100407fb0: 4d 19 09              sbb    QWORD PTR [r9],r9
   100407fb3: 4d 1b 89 ff ff ff 7f  sbb    r9,QWORD PTR [r9+0x7fffffff]
   100407fba: 4d 19 89 ff ff ff 7f  sbb    QWORD PTR [r9+0x7fffffff],r9
   100407fc1: 4d 19 d1              sbb    r9,r10
   100407fc4: 4d 1b 0a              sbb    r9,QWORD PTR [r10]
   100407fc7: 4d 19 11              sbb    QWORD PTR [r9],r10
   100407fca: 4d 1b 8a ff ff ff 7f  sbb    r9,QWORD PTR [r10+0x7fffffff]
   100407fd1: 4d 19 91 ff ff ff 7f  sbb    QWORD PTR [r9+0x7fffffff],r10
   100407fd8: 4d 19 d9              sbb    r9,r11
   100407fdb: 4d 1b 0b              sbb    r9,QWORD PTR [r11]
   100407fde: 4d 19 19              sbb    QWORD PTR [r9],r11
   100407fe1: 4d 1b 8b ff ff ff 7f  sbb    r9,QWORD PTR [r11+0x7fffffff]
   100407fe8: 4d 19 99 ff ff ff 7f  sbb    QWORD PTR [r9+0x7fffffff],r11
   100407fef: 4d 19 e1              sbb    r9,r12
   100407ff2: 4d 1b 0c 24           sbb    r9,QWORD PTR [r12]
   100407ff6: 4d 19 21              sbb    QWORD PTR [r9],r12
   100407ff9: 4d 1b 8c 24 ff ff ff 7f   sbb    r9,QWORD PTR [r12+0x7fffffff]
   100408001: 4d 19 a1 ff ff ff 7f  sbb    QWORD PTR [r9+0x7fffffff],r12
   100408008: 4d 19 e9              sbb    r9,r13
   10040800b: 4d 1b 4d 00           sbb    r9,QWORD PTR [r13+0x0]
   10040800f: 4d 19 29              sbb    QWORD PTR [r9],r13
   100408012: 4d 1b 8d ff ff ff 7f  sbb    r9,QWORD PTR [r13+0x7fffffff]
   100408019: 4d 19 a9 ff ff ff 7f  sbb    QWORD PTR [r9+0x7fffffff],r13
   100408020: 4d 19 f1              sbb    r9,r14
   100408023: 4d 1b 0e              sbb    r9,QWORD PTR [r14]
   100408026: 4d 19 31              sbb    QWORD PTR [r9],r14
   100408029: 4d 1b 8e ff ff ff 7f  sbb    r9,QWORD PTR [r14+0x7fffffff]
   100408030: 4d 19 b1 ff ff ff 7f  sbb    QWORD PTR [r9+0x7fffffff],r14
   100408037: 4d 19 f9              sbb    r9,r15
   10040803a: 4d 1b 0f              sbb    r9,QWORD PTR [r15]
   10040803d: 4d 19 39              sbb    QWORD PTR [r9],r15
   100408040: 4d 1b 8f ff ff ff 7f  sbb    r9,QWORD PTR [r15+0x7fffffff]
   100408047: 4d 19 b9 ff ff ff 7f  sbb    QWORD PTR [r9+0x7fffffff],r15
   10040804e: 49 81 da ff ff ff 7f  sbb    r10,0x7fffffff
   100408055: 49 19 c2              sbb    r10,rax
   100408058: 4c 1b 10              sbb    r10,QWORD PTR [rax]
   10040805b: 49 19 02              sbb    QWORD PTR [r10],rax
   10040805e: 4c 1b 90 ff ff ff 7f  sbb    r10,QWORD PTR [rax+0x7fffffff]
   100408065: 49 19 82 ff ff ff 7f  sbb    QWORD PTR [r10+0x7fffffff],rax
   10040806c: 49 19 ca              sbb    r10,rcx
   10040806f: 4c 1b 11              sbb    r10,QWORD PTR [rcx]
   100408072: 49 19 0a              sbb    QWORD PTR [r10],rcx
   100408075: 4c 1b 91 ff ff ff 7f  sbb    r10,QWORD PTR [rcx+0x7fffffff]
   10040807c: 49 19 8a ff ff ff 7f  sbb    QWORD PTR [r10+0x7fffffff],rcx
   100408083: 49 19 d2              sbb    r10,rdx
   100408086: 4c 1b 12              sbb    r10,QWORD PTR [rdx]
   100408089: 49 19 12              sbb    QWORD PTR [r10],rdx
   10040808c: 4c 1b 92 ff ff ff 7f  sbb    r10,QWORD PTR [rdx+0x7fffffff]
   100408093: 49 19 92 ff ff ff 7f  sbb    QWORD PTR [r10+0x7fffffff],rdx
   10040809a: 49 19 da              sbb    r10,rbx
   10040809d: 4c 1b 13              sbb    r10,QWORD PTR [rbx]
   1004080a0: 49 19 1a              sbb    QWORD PTR [r10],rbx
   1004080a3: 4c 1b 93 ff ff ff 7f  sbb    r10,QWORD PTR [rbx+0x7fffffff]
   1004080aa: 49 19 9a ff ff ff 7f  sbb    QWORD PTR [r10+0x7fffffff],rbx
   1004080b1: 49 19 e2              sbb    r10,rsp
   1004080b4: 4c 1b 14 24           sbb    r10,QWORD PTR [rsp]
   1004080b8: 49 19 22              sbb    QWORD PTR [r10],rsp
   1004080bb: 4c 1b 94 24 ff ff ff 7f   sbb    r10,QWORD PTR [rsp+0x7fffffff]
   1004080c3: 49 19 a2 ff ff ff 7f  sbb    QWORD PTR [r10+0x7fffffff],rsp
   1004080ca: 49 19 ea              sbb    r10,rbp
   1004080cd: 4c 1b 55 00           sbb    r10,QWORD PTR [rbp+0x0]
   1004080d1: 49 19 2a              sbb    QWORD PTR [r10],rbp
   1004080d4: 4c 1b 95 ff ff ff 7f  sbb    r10,QWORD PTR [rbp+0x7fffffff]
   1004080db: 49 19 aa ff ff ff 7f  sbb    QWORD PTR [r10+0x7fffffff],rbp
   1004080e2: 49 19 f2              sbb    r10,rsi
   1004080e5: 4c 1b 16              sbb    r10,QWORD PTR [rsi]
   1004080e8: 49 19 32              sbb    QWORD PTR [r10],rsi
   1004080eb: 4c 1b 96 ff ff ff 7f  sbb    r10,QWORD PTR [rsi+0x7fffffff]
   1004080f2: 49 19 b2 ff ff ff 7f  sbb    QWORD PTR [r10+0x7fffffff],rsi
   1004080f9: 49 19 fa              sbb    r10,rdi
   1004080fc: 4c 1b 17              sbb    r10,QWORD PTR [rdi]
   1004080ff: 49 19 3a              sbb    QWORD PTR [r10],rdi
   100408102: 4c 1b 97 ff ff ff 7f  sbb    r10,QWORD PTR [rdi+0x7fffffff]
   100408109: 49 19 ba ff ff ff 7f  sbb    QWORD PTR [r10+0x7fffffff],rdi
   100408110: 4d 19 c2              sbb    r10,r8
   100408113: 4d 1b 10              sbb    r10,QWORD PTR [r8]
   100408116: 4d 19 02              sbb    QWORD PTR [r10],r8
   100408119: 4d 1b 90 ff ff ff 7f  sbb    r10,QWORD PTR [r8+0x7fffffff]
   100408120: 4d 19 82 ff ff ff 7f  sbb    QWORD PTR [r10+0x7fffffff],r8
   100408127: 4d 19 ca              sbb    r10,r9
   10040812a: 4d 1b 11              sbb    r10,QWORD PTR [r9]
   10040812d: 4d 19 0a              sbb    QWORD PTR [r10],r9
   100408130: 4d 1b 91 ff ff ff 7f  sbb    r10,QWORD PTR [r9+0x7fffffff]
   100408137: 4d 19 8a ff ff ff 7f  sbb    QWORD PTR [r10+0x7fffffff],r9
   10040813e: 4d 19 d2              sbb    r10,r10
   100408141: 4d 1b 12              sbb    r10,QWORD PTR [r10]
   100408144: 4d 19 12              sbb    QWORD PTR [r10],r10
   100408147: 4d 1b 92 ff ff ff 7f  sbb    r10,QWORD PTR [r10+0x7fffffff]
   10040814e: 4d 19 92 ff ff ff 7f  sbb    QWORD PTR [r10+0x7fffffff],r10
   100408155: 4d 19 da              sbb    r10,r11
   100408158: 4d 1b 13              sbb    r10,QWORD PTR [r11]
   10040815b: 4d 19 1a              sbb    QWORD PTR [r10],r11
   10040815e: 4d 1b 93 ff ff ff 7f  sbb    r10,QWORD PTR [r11+0x7fffffff]
   100408165: 4d 19 9a ff ff ff 7f  sbb    QWORD PTR [r10+0x7fffffff],r11
   10040816c: 4d 19 e2              sbb    r10,r12
   10040816f: 4d 1b 14 24           sbb    r10,QWORD PTR [r12]
   100408173: 4d 19 22              sbb    QWORD PTR [r10],r12
   100408176: 4d 1b 94 24 ff ff ff 7f   sbb    r10,QWORD PTR [r12+0x7fffffff]
   10040817e: 4d 19 a2 ff ff ff 7f  sbb    QWORD PTR [r10+0x7fffffff],r12
   100408185: 4d 19 ea              sbb    r10,r13
   100408188: 4d 1b 55 00           sbb    r10,QWORD PTR [r13+0x0]
   10040818c: 4d 19 2a              sbb    QWORD PTR [r10],r13
   10040818f: 4d 1b 95 ff ff ff 7f  sbb    r10,QWORD PTR [r13+0x7fffffff]
   100408196: 4d 19 aa ff ff ff 7f  sbb    QWORD PTR [r10+0x7fffffff],r13
   10040819d: 4d 19 f2              sbb    r10,r14
   1004081a0: 4d 1b 16              sbb    r10,QWORD PTR [r14]
   1004081a3: 4d 19 32              sbb    QWORD PTR [r10],r14
   1004081a6: 4d 1b 96 ff ff ff 7f  sbb    r10,QWORD PTR [r14+0x7fffffff]
   1004081ad: 4d 19 b2 ff ff ff 7f  sbb    QWORD PTR [r10+0x7fffffff],r14
   1004081b4: 4d 19 fa              sbb    r10,r15
   1004081b7: 4d 1b 17              sbb    r10,QWORD PTR [r15]
   1004081ba: 4d 19 3a              sbb    QWORD PTR [r10],r15
   1004081bd: 4d 1b 97 ff ff ff 7f  sbb    r10,QWORD PTR [r15+0x7fffffff]
   1004081c4: 4d 19 ba ff ff ff 7f  sbb    QWORD PTR [r10+0x7fffffff],r15
   1004081cb: 49 81 db ff ff ff 7f  sbb    r11,0x7fffffff
   1004081d2: 49 19 c3              sbb    r11,rax
   1004081d5: 4c 1b 18              sbb    r11,QWORD PTR [rax]
   1004081d8: 49 19 03              sbb    QWORD PTR [r11],rax
   1004081db: 4c 1b 98 ff ff ff 7f  sbb    r11,QWORD PTR [rax+0x7fffffff]
   1004081e2: 49 19 83 ff ff ff 7f  sbb    QWORD PTR [r11+0x7fffffff],rax
   1004081e9: 49 19 cb              sbb    r11,rcx
   1004081ec: 4c 1b 19              sbb    r11,QWORD PTR [rcx]
   1004081ef: 49 19 0b              sbb    QWORD PTR [r11],rcx
   1004081f2: 4c 1b 99 ff ff ff 7f  sbb    r11,QWORD PTR [rcx+0x7fffffff]
   1004081f9: 49 19 8b ff ff ff 7f  sbb    QWORD PTR [r11+0x7fffffff],rcx
   100408200: 49 19 d3              sbb    r11,rdx
   100408203: 4c 1b 1a              sbb    r11,QWORD PTR [rdx]
   100408206: 49 19 13              sbb    QWORD PTR [r11],rdx
   100408209: 4c 1b 9a ff ff ff 7f  sbb    r11,QWORD PTR [rdx+0x7fffffff]
   100408210: 49 19 93 ff ff ff 7f  sbb    QWORD PTR [r11+0x7fffffff],rdx
   100408217: 49 19 db              sbb    r11,rbx
   10040821a: 4c 1b 1b              sbb    r11,QWORD PTR [rbx]
   10040821d: 49 19 1b              sbb    QWORD PTR [r11],rbx
   100408220: 4c 1b 9b ff ff ff 7f  sbb    r11,QWORD PTR [rbx+0x7fffffff]
   100408227: 49 19 9b ff ff ff 7f  sbb    QWORD PTR [r11+0x7fffffff],rbx
   10040822e: 49 19 e3              sbb    r11,rsp
   100408231: 4c 1b 1c 24           sbb    r11,QWORD PTR [rsp]
   100408235: 49 19 23              sbb    QWORD PTR [r11],rsp
   100408238: 4c 1b 9c 24 ff ff ff 7f   sbb    r11,QWORD PTR [rsp+0x7fffffff]
   100408240: 49 19 a3 ff ff ff 7f  sbb    QWORD PTR [r11+0x7fffffff],rsp
   100408247: 49 19 eb              sbb    r11,rbp
   10040824a: 4c 1b 5d 00           sbb    r11,QWORD PTR [rbp+0x0]
   10040824e: 49 19 2b              sbb    QWORD PTR [r11],rbp
   100408251: 4c 1b 9d ff ff ff 7f  sbb    r11,QWORD PTR [rbp+0x7fffffff]
   100408258: 49 19 ab ff ff ff 7f  sbb    QWORD PTR [r11+0x7fffffff],rbp
   10040825f: 49 19 f3              sbb    r11,rsi
   100408262: 4c 1b 1e              sbb    r11,QWORD PTR [rsi]
   100408265: 49 19 33              sbb    QWORD PTR [r11],rsi
   100408268: 4c 1b 9e ff ff ff 7f  sbb    r11,QWORD PTR [rsi+0x7fffffff]
   10040826f: 49 19 b3 ff ff ff 7f  sbb    QWORD PTR [r11+0x7fffffff],rsi
   100408276: 49 19 fb              sbb    r11,rdi
   100408279: 4c 1b 1f              sbb    r11,QWORD PTR [rdi]
   10040827c: 49 19 3b              sbb    QWORD PTR [r11],rdi
   10040827f: 4c 1b 9f ff ff ff 7f  sbb    r11,QWORD PTR [rdi+0x7fffffff]
   100408286: 49 19 bb ff ff ff 7f  sbb    QWORD PTR [r11+0x7fffffff],rdi
   10040828d: 4d 19 c3              sbb    r11,r8
   100408290: 4d 1b 18              sbb    r11,QWORD PTR [r8]
   100408293: 4d 19 03              sbb    QWORD PTR [r11],r8
   100408296: 4d 1b 98 ff ff ff 7f  sbb    r11,QWORD PTR [r8+0x7fffffff]
   10040829d: 4d 19 83 ff ff ff 7f  sbb    QWORD PTR [r11+0x7fffffff],r8
   1004082a4: 4d 19 cb              sbb    r11,r9
   1004082a7: 4d 1b 19              sbb    r11,QWORD PTR [r9]
   1004082aa: 4d 19 0b              sbb    QWORD PTR [r11],r9
   1004082ad: 4d 1b 99 ff ff ff 7f  sbb    r11,QWORD PTR [r9+0x7fffffff]
   1004082b4: 4d 19 8b ff ff ff 7f  sbb    QWORD PTR [r11+0x7fffffff],r9
   1004082bb: 4d 19 d3              sbb    r11,r10
   1004082be: 4d 1b 1a              sbb    r11,QWORD PTR [r10]
   1004082c1: 4d 19 13              sbb    QWORD PTR [r11],r10
   1004082c4: 4d 1b 9a ff ff ff 7f  sbb    r11,QWORD PTR [r10+0x7fffffff]
   1004082cb: 4d 19 93 ff ff ff 7f  sbb    QWORD PTR [r11+0x7fffffff],r10
   1004082d2: 4d 19 db              sbb    r11,r11
   1004082d5: 4d 1b 1b              sbb    r11,QWORD PTR [r11]
   1004082d8: 4d 19 1b              sbb    QWORD PTR [r11],r11
   1004082db: 4d 1b 9b ff ff ff 7f  sbb    r11,QWORD PTR [r11+0x7fffffff]
   1004082e2: 4d 19 9b ff ff ff 7f  sbb    QWORD PTR [r11+0x7fffffff],r11
   1004082e9: 4d 19 e3              sbb    r11,r12
   1004082ec: 4d 1b 1c 24           sbb    r11,QWORD PTR [r12]
   1004082f0: 4d 19 23              sbb    QWORD PTR [r11],r12
   1004082f3: 4d 1b 9c 24 ff ff ff 7f   sbb    r11,QWORD PTR [r12+0x7fffffff]
   1004082fb: 4d 19 a3 ff ff ff 7f  sbb    QWORD PTR [r11+0x7fffffff],r12
   100408302: 4d 19 eb              sbb    r11,r13
   100408305: 4d 1b 5d 00           sbb    r11,QWORD PTR [r13+0x0]
   100408309: 4d 19 2b              sbb    QWORD PTR [r11],r13
   10040830c: 4d 1b 9d ff ff ff 7f  sbb    r11,QWORD PTR [r13+0x7fffffff]
   100408313: 4d 19 ab ff ff ff 7f  sbb    QWORD PTR [r11+0x7fffffff],r13
   10040831a: 4d 19 f3              sbb    r11,r14
   10040831d: 4d 1b 1e              sbb    r11,QWORD PTR [r14]
   100408320: 4d 19 33              sbb    QWORD PTR [r11],r14
   100408323: 4d 1b 9e ff ff ff 7f  sbb    r11,QWORD PTR [r14+0x7fffffff]
   10040832a: 4d 19 b3 ff ff ff 7f  sbb    QWORD PTR [r11+0x7fffffff],r14
   100408331: 4d 19 fb              sbb    r11,r15
   100408334: 4d 1b 1f              sbb    r11,QWORD PTR [r15]
   100408337: 4d 19 3b              sbb    QWORD PTR [r11],r15
   10040833a: 4d 1b 9f ff ff ff 7f  sbb    r11,QWORD PTR [r15+0x7fffffff]
   100408341: 4d 19 bb ff ff ff 7f  sbb    QWORD PTR [r11+0x7fffffff],r15
   100408348: 49 81 dc ff ff ff 7f  sbb    r12,0x7fffffff
   10040834f: 49 19 c4              sbb    r12,rax
   100408352: 4c 1b 20              sbb    r12,QWORD PTR [rax]
   100408355: 49 19 04 24           sbb    QWORD PTR [r12],rax
   100408359: 4c 1b a0 ff ff ff 7f  sbb    r12,QWORD PTR [rax+0x7fffffff]
   100408360: 49 19 84 24 ff ff ff 7f   sbb    QWORD PTR [r12+0x7fffffff],rax
   100408368: 49 19 cc              sbb    r12,rcx
   10040836b: 4c 1b 21              sbb    r12,QWORD PTR [rcx]
   10040836e: 49 19 0c 24           sbb    QWORD PTR [r12],rcx
   100408372: 4c 1b a1 ff ff ff 7f  sbb    r12,QWORD PTR [rcx+0x7fffffff]
   100408379: 49 19 8c 24 ff ff ff 7f   sbb    QWORD PTR [r12+0x7fffffff],rcx
   100408381: 49 19 d4              sbb    r12,rdx
   100408384: 4c 1b 22              sbb    r12,QWORD PTR [rdx]
   100408387: 49 19 14 24           sbb    QWORD PTR [r12],rdx
   10040838b: 4c 1b a2 ff ff ff 7f  sbb    r12,QWORD PTR [rdx+0x7fffffff]
   100408392: 49 19 94 24 ff ff ff 7f   sbb    QWORD PTR [r12+0x7fffffff],rdx
   10040839a: 49 19 dc              sbb    r12,rbx
   10040839d: 4c 1b 23              sbb    r12,QWORD PTR [rbx]
   1004083a0: 49 19 1c 24           sbb    QWORD PTR [r12],rbx
   1004083a4: 4c 1b a3 ff ff ff 7f  sbb    r12,QWORD PTR [rbx+0x7fffffff]
   1004083ab: 49 19 9c 24 ff ff ff 7f   sbb    QWORD PTR [r12+0x7fffffff],rbx
   1004083b3: 49 19 e4              sbb    r12,rsp
   1004083b6: 4c 1b 24 24           sbb    r12,QWORD PTR [rsp]
   1004083ba: 49 19 24 24           sbb    QWORD PTR [r12],rsp
   1004083be: 4c 1b a4 24 ff ff ff 7f   sbb    r12,QWORD PTR [rsp+0x7fffffff]
   1004083c6: 49 19 a4 24 ff ff ff 7f   sbb    QWORD PTR [r12+0x7fffffff],rsp
   1004083ce: 49 19 ec              sbb    r12,rbp
   1004083d1: 4c 1b 65 00           sbb    r12,QWORD PTR [rbp+0x0]
   1004083d5: 49 19 2c 24           sbb    QWORD PTR [r12],rbp
   1004083d9: 4c 1b a5 ff ff ff 7f  sbb    r12,QWORD PTR [rbp+0x7fffffff]
   1004083e0: 49 19 ac 24 ff ff ff 7f   sbb    QWORD PTR [r12+0x7fffffff],rbp
   1004083e8: 49 19 f4              sbb    r12,rsi
   1004083eb: 4c 1b 26              sbb    r12,QWORD PTR [rsi]
   1004083ee: 49 19 34 24           sbb    QWORD PTR [r12],rsi
   1004083f2: 4c 1b a6 ff ff ff 7f  sbb    r12,QWORD PTR [rsi+0x7fffffff]
   1004083f9: 49 19 b4 24 ff ff ff 7f   sbb    QWORD PTR [r12+0x7fffffff],rsi
   100408401: 49 19 fc              sbb    r12,rdi
   100408404: 4c 1b 27              sbb    r12,QWORD PTR [rdi]
   100408407: 49 19 3c 24           sbb    QWORD PTR [r12],rdi
   10040840b: 4c 1b a7 ff ff ff 7f  sbb    r12,QWORD PTR [rdi+0x7fffffff]
   100408412: 49 19 bc 24 ff ff ff 7f   sbb    QWORD PTR [r12+0x7fffffff],rdi
   10040841a: 4d 19 c4              sbb    r12,r8
   10040841d: 4d 1b 20              sbb    r12,QWORD PTR [r8]
   100408420: 4d 19 04 24           sbb    QWORD PTR [r12],r8
   100408424: 4d 1b a0 ff ff ff 7f  sbb    r12,QWORD PTR [r8+0x7fffffff]
   10040842b: 4d 19 84 24 ff ff ff 7f   sbb    QWORD PTR [r12+0x7fffffff],r8
   100408433: 4d 19 cc              sbb    r12,r9
   100408436: 4d 1b 21              sbb    r12,QWORD PTR [r9]
   100408439: 4d 19 0c 24           sbb    QWORD PTR [r12],r9
   10040843d: 4d 1b a1 ff ff ff 7f  sbb    r12,QWORD PTR [r9+0x7fffffff]
   100408444: 4d 19 8c 24 ff ff ff 7f   sbb    QWORD PTR [r12+0x7fffffff],r9
   10040844c: 4d 19 d4              sbb    r12,r10
   10040844f: 4d 1b 22              sbb    r12,QWORD PTR [r10]
   100408452: 4d 19 14 24           sbb    QWORD PTR [r12],r10
   100408456: 4d 1b a2 ff ff ff 7f  sbb    r12,QWORD PTR [r10+0x7fffffff]
   10040845d: 4d 19 94 24 ff ff ff 7f   sbb    QWORD PTR [r12+0x7fffffff],r10
   100408465: 4d 19 dc              sbb    r12,r11
   100408468: 4d 1b 23              sbb    r12,QWORD PTR [r11]
   10040846b: 4d 19 1c 24           sbb    QWORD PTR [r12],r11
   10040846f: 4d 1b a3 ff ff ff 7f  sbb    r12,QWORD PTR [r11+0x7fffffff]
   100408476: 4d 19 9c 24 ff ff ff 7f   sbb    QWORD PTR [r12+0x7fffffff],r11
   10040847e: 4d 19 e4              sbb    r12,r12
   100408481: 4d 1b 24 24           sbb    r12,QWORD PTR [r12]
   100408485: 4d 19 24 24           sbb    QWORD PTR [r12],r12
   100408489: 4d 1b a4 24 ff ff ff 7f   sbb    r12,QWORD PTR [r12+0x7fffffff]
   100408491: 4d 19 a4 24 ff ff ff 7f   sbb    QWORD PTR [r12+0x7fffffff],r12
   100408499: 4d 19 ec              sbb    r12,r13
   10040849c: 4d 1b 65 00           sbb    r12,QWORD PTR [r13+0x0]
   1004084a0: 4d 19 2c 24           sbb    QWORD PTR [r12],r13
   1004084a4: 4d 1b a5 ff ff ff 7f  sbb    r12,QWORD PTR [r13+0x7fffffff]
   1004084ab: 4d 19 ac 24 ff ff ff 7f   sbb    QWORD PTR [r12+0x7fffffff],r13
   1004084b3: 4d 19 f4              sbb    r12,r14
   1004084b6: 4d 1b 26              sbb    r12,QWORD PTR [r14]
   1004084b9: 4d 19 34 24           sbb    QWORD PTR [r12],r14
   1004084bd: 4d 1b a6 ff ff ff 7f  sbb    r12,QWORD PTR [r14+0x7fffffff]
   1004084c4: 4d 19 b4 24 ff ff ff 7f   sbb    QWORD PTR [r12+0x7fffffff],r14
   1004084cc: 4d 19 fc              sbb    r12,r15
   1004084cf: 4d 1b 27              sbb    r12,QWORD PTR [r15]
   1004084d2: 4d 19 3c 24           sbb    QWORD PTR [r12],r15
   1004084d6: 4d 1b a7 ff ff ff 7f  sbb    r12,QWORD PTR [r15+0x7fffffff]
   1004084dd: 4d 19 bc 24 ff ff ff 7f   sbb    QWORD PTR [r12+0x7fffffff],r15
   1004084e5: 49 81 dd ff ff ff 7f  sbb    r13,0x7fffffff
   1004084ec: 49 19 c5              sbb    r13,rax
   1004084ef: 4c 1b 28              sbb    r13,QWORD PTR [rax]
   1004084f2: 49 19 45 00           sbb    QWORD PTR [r13+0x0],rax
   1004084f6: 4c 1b a8 ff ff ff 7f  sbb    r13,QWORD PTR [rax+0x7fffffff]
   1004084fd: 49 19 85 ff ff ff 7f  sbb    QWORD PTR [r13+0x7fffffff],rax
   100408504: 49 19 cd              sbb    r13,rcx
   100408507: 4c 1b 29              sbb    r13,QWORD PTR [rcx]
   10040850a: 49 19 4d 00           sbb    QWORD PTR [r13+0x0],rcx
   10040850e: 4c 1b a9 ff ff ff 7f  sbb    r13,QWORD PTR [rcx+0x7fffffff]
   100408515: 49 19 8d ff ff ff 7f  sbb    QWORD PTR [r13+0x7fffffff],rcx
   10040851c: 49 19 d5              sbb    r13,rdx
   10040851f: 4c 1b 2a              sbb    r13,QWORD PTR [rdx]
   100408522: 49 19 55 00           sbb    QWORD PTR [r13+0x0],rdx
   100408526: 4c 1b aa ff ff ff 7f  sbb    r13,QWORD PTR [rdx+0x7fffffff]
   10040852d: 49 19 95 ff ff ff 7f  sbb    QWORD PTR [r13+0x7fffffff],rdx
   100408534: 49 19 dd              sbb    r13,rbx
   100408537: 4c 1b 2b              sbb    r13,QWORD PTR [rbx]
   10040853a: 49 19 5d 00           sbb    QWORD PTR [r13+0x0],rbx
   10040853e: 4c 1b ab ff ff ff 7f  sbb    r13,QWORD PTR [rbx+0x7fffffff]
   100408545: 49 19 9d ff ff ff 7f  sbb    QWORD PTR [r13+0x7fffffff],rbx
   10040854c: 49 19 e5              sbb    r13,rsp
   10040854f: 4c 1b 2c 24           sbb    r13,QWORD PTR [rsp]
   100408553: 49 19 65 00           sbb    QWORD PTR [r13+0x0],rsp
   100408557: 4c 1b ac 24 ff ff ff 7f   sbb    r13,QWORD PTR [rsp+0x7fffffff]
   10040855f: 49 19 a5 ff ff ff 7f  sbb    QWORD PTR [r13+0x7fffffff],rsp
   100408566: 49 19 ed              sbb    r13,rbp
   100408569: 4c 1b 6d 00           sbb    r13,QWORD PTR [rbp+0x0]
   10040856d: 49 19 6d 00           sbb    QWORD PTR [r13+0x0],rbp
   100408571: 4c 1b ad ff ff ff 7f  sbb    r13,QWORD PTR [rbp+0x7fffffff]
   100408578: 49 19 ad ff ff ff 7f  sbb    QWORD PTR [r13+0x7fffffff],rbp
   10040857f: 49 19 f5              sbb    r13,rsi
   100408582: 4c 1b 2e              sbb    r13,QWORD PTR [rsi]
   100408585: 49 19 75 00           sbb    QWORD PTR [r13+0x0],rsi
   100408589: 4c 1b ae ff ff ff 7f  sbb    r13,QWORD PTR [rsi+0x7fffffff]
   100408590: 49 19 b5 ff ff ff 7f  sbb    QWORD PTR [r13+0x7fffffff],rsi
   100408597: 49 19 fd              sbb    r13,rdi
   10040859a: 4c 1b 2f              sbb    r13,QWORD PTR [rdi]
   10040859d: 49 19 7d 00           sbb    QWORD PTR [r13+0x0],rdi
   1004085a1: 4c 1b af ff ff ff 7f  sbb    r13,QWORD PTR [rdi+0x7fffffff]
   1004085a8: 49 19 bd ff ff ff 7f  sbb    QWORD PTR [r13+0x7fffffff],rdi
   1004085af: 4d 19 c5              sbb    r13,r8
   1004085b2: 4d 1b 28              sbb    r13,QWORD PTR [r8]
   1004085b5: 4d 19 45 00           sbb    QWORD PTR [r13+0x0],r8
   1004085b9: 4d 1b a8 ff ff ff 7f  sbb    r13,QWORD PTR [r8+0x7fffffff]
   1004085c0: 4d 19 85 ff ff ff 7f  sbb    QWORD PTR [r13+0x7fffffff],r8
   1004085c7: 4d 19 cd              sbb    r13,r9
   1004085ca: 4d 1b 29              sbb    r13,QWORD PTR [r9]
   1004085cd: 4d 19 4d 00           sbb    QWORD PTR [r13+0x0],r9
   1004085d1: 4d 1b a9 ff ff ff 7f  sbb    r13,QWORD PTR [r9+0x7fffffff]
   1004085d8: 4d 19 8d ff ff ff 7f  sbb    QWORD PTR [r13+0x7fffffff],r9
   1004085df: 4d 19 d5              sbb    r13,r10
   1004085e2: 4d 1b 2a              sbb    r13,QWORD PTR [r10]
   1004085e5: 4d 19 55 00           sbb    QWORD PTR [r13+0x0],r10
   1004085e9: 4d 1b aa ff ff ff 7f  sbb    r13,QWORD PTR [r10+0x7fffffff]
   1004085f0: 4d 19 95 ff ff ff 7f  sbb    QWORD PTR [r13+0x7fffffff],r10
   1004085f7: 4d 19 dd              sbb    r13,r11
   1004085fa: 4d 1b 2b              sbb    r13,QWORD PTR [r11]
   1004085fd: 4d 19 5d 00           sbb    QWORD PTR [r13+0x0],r11
   100408601: 4d 1b ab ff ff ff 7f  sbb    r13,QWORD PTR [r11+0x7fffffff]
   100408608: 4d 19 9d ff ff ff 7f  sbb    QWORD PTR [r13+0x7fffffff],r11
   10040860f: 4d 19 e5              sbb    r13,r12
   100408612: 4d 1b 2c 24           sbb    r13,QWORD PTR [r12]
   100408616: 4d 19 65 00           sbb    QWORD PTR [r13+0x0],r12
   10040861a: 4d 1b ac 24 ff ff ff 7f   sbb    r13,QWORD PTR [r12+0x7fffffff]
   100408622: 4d 19 a5 ff ff ff 7f  sbb    QWORD PTR [r13+0x7fffffff],r12
   100408629: 4d 19 ed              sbb    r13,r13
   10040862c: 4d 1b 6d 00           sbb    r13,QWORD PTR [r13+0x0]
   100408630: 4d 19 6d 00           sbb    QWORD PTR [r13+0x0],r13
   100408634: 4d 1b ad ff ff ff 7f  sbb    r13,QWORD PTR [r13+0x7fffffff]
   10040863b: 4d 19 ad ff ff ff 7f  sbb    QWORD PTR [r13+0x7fffffff],r13
   100408642: 4d 19 f5              sbb    r13,r14
   100408645: 4d 1b 2e              sbb    r13,QWORD PTR [r14]
   100408648: 4d 19 75 00           sbb    QWORD PTR [r13+0x0],r14
   10040864c: 4d 1b ae ff ff ff 7f  sbb    r13,QWORD PTR [r14+0x7fffffff]
   100408653: 4d 19 b5 ff ff ff 7f  sbb    QWORD PTR [r13+0x7fffffff],r14
   10040865a: 4d 19 fd              sbb    r13,r15
   10040865d: 4d 1b 2f              sbb    r13,QWORD PTR [r15]
   100408660: 4d 19 7d 00           sbb    QWORD PTR [r13+0x0],r15
   100408664: 4d 1b af ff ff ff 7f  sbb    r13,QWORD PTR [r15+0x7fffffff]
   10040866b: 4d 19 bd ff ff ff 7f  sbb    QWORD PTR [r13+0x7fffffff],r15
   100408672: 49 81 de ff ff ff 7f  sbb    r14,0x7fffffff
   100408679: 49 19 c6              sbb    r14,rax
   10040867c: 4c 1b 30              sbb    r14,QWORD PTR [rax]
   10040867f: 49 19 06              sbb    QWORD PTR [r14],rax
   100408682: 4c 1b b0 ff ff ff 7f  sbb    r14,QWORD PTR [rax+0x7fffffff]
   100408689: 49 19 86 ff ff ff 7f  sbb    QWORD PTR [r14+0x7fffffff],rax
   100408690: 49 19 ce              sbb    r14,rcx
   100408693: 4c 1b 31              sbb    r14,QWORD PTR [rcx]
   100408696: 49 19 0e              sbb    QWORD PTR [r14],rcx
   100408699: 4c 1b b1 ff ff ff 7f  sbb    r14,QWORD PTR [rcx+0x7fffffff]
   1004086a0: 49 19 8e ff ff ff 7f  sbb    QWORD PTR [r14+0x7fffffff],rcx
   1004086a7: 49 19 d6              sbb    r14,rdx
   1004086aa: 4c 1b 32              sbb    r14,QWORD PTR [rdx]
   1004086ad: 49 19 16              sbb    QWORD PTR [r14],rdx
   1004086b0: 4c 1b b2 ff ff ff 7f  sbb    r14,QWORD PTR [rdx+0x7fffffff]
   1004086b7: 49 19 96 ff ff ff 7f  sbb    QWORD PTR [r14+0x7fffffff],rdx
   1004086be: 49 19 de              sbb    r14,rbx
   1004086c1: 4c 1b 33              sbb    r14,QWORD PTR [rbx]
   1004086c4: 49 19 1e              sbb    QWORD PTR [r14],rbx
   1004086c7: 4c 1b b3 ff ff ff 7f  sbb    r14,QWORD PTR [rbx+0x7fffffff]
   1004086ce: 49 19 9e ff ff ff 7f  sbb    QWORD PTR [r14+0x7fffffff],rbx
   1004086d5: 49 19 e6              sbb    r14,rsp
   1004086d8: 4c 1b 34 24           sbb    r14,QWORD PTR [rsp]
   1004086dc: 49 19 26              sbb    QWORD PTR [r14],rsp
   1004086df: 4c 1b b4 24 ff ff ff 7f   sbb    r14,QWORD PTR [rsp+0x7fffffff]
   1004086e7: 49 19 a6 ff ff ff 7f  sbb    QWORD PTR [r14+0x7fffffff],rsp
   1004086ee: 49 19 ee              sbb    r14,rbp
   1004086f1: 4c 1b 75 00           sbb    r14,QWORD PTR [rbp+0x0]
   1004086f5: 49 19 2e              sbb    QWORD PTR [r14],rbp
   1004086f8: 4c 1b b5 ff ff ff 7f  sbb    r14,QWORD PTR [rbp+0x7fffffff]
   1004086ff: 49 19 ae ff ff ff 7f  sbb    QWORD PTR [r14+0x7fffffff],rbp
   100408706: 49 19 f6              sbb    r14,rsi
   100408709: 4c 1b 36              sbb    r14,QWORD PTR [rsi]
   10040870c: 49 19 36              sbb    QWORD PTR [r14],rsi
   10040870f: 4c 1b b6 ff ff ff 7f  sbb    r14,QWORD PTR [rsi+0x7fffffff]
   100408716: 49 19 b6 ff ff ff 7f  sbb    QWORD PTR [r14+0x7fffffff],rsi
   10040871d: 49 19 fe              sbb    r14,rdi
   100408720: 4c 1b 37              sbb    r14,QWORD PTR [rdi]
   100408723: 49 19 3e              sbb    QWORD PTR [r14],rdi
   100408726: 4c 1b b7 ff ff ff 7f  sbb    r14,QWORD PTR [rdi+0x7fffffff]
   10040872d: 49 19 be ff ff ff 7f  sbb    QWORD PTR [r14+0x7fffffff],rdi
   100408734: 4d 19 c6              sbb    r14,r8
   100408737: 4d 1b 30              sbb    r14,QWORD PTR [r8]
   10040873a: 4d 19 06              sbb    QWORD PTR [r14],r8
   10040873d: 4d 1b b0 ff ff ff 7f  sbb    r14,QWORD PTR [r8+0x7fffffff]
   100408744: 4d 19 86 ff ff ff 7f  sbb    QWORD PTR [r14+0x7fffffff],r8
   10040874b: 4d 19 ce              sbb    r14,r9
   10040874e: 4d 1b 31              sbb    r14,QWORD PTR [r9]
   100408751: 4d 19 0e              sbb    QWORD PTR [r14],r9
   100408754: 4d 1b b1 ff ff ff 7f  sbb    r14,QWORD PTR [r9+0x7fffffff]
   10040875b: 4d 19 8e ff ff ff 7f  sbb    QWORD PTR [r14+0x7fffffff],r9
   100408762: 4d 19 d6              sbb    r14,r10
   100408765: 4d 1b 32              sbb    r14,QWORD PTR [r10]
   100408768: 4d 19 16              sbb    QWORD PTR [r14],r10
   10040876b: 4d 1b b2 ff ff ff 7f  sbb    r14,QWORD PTR [r10+0x7fffffff]
   100408772: 4d 19 96 ff ff ff 7f  sbb    QWORD PTR [r14+0x7fffffff],r10
   100408779: 4d 19 de              sbb    r14,r11
   10040877c: 4d 1b 33              sbb    r14,QWORD PTR [r11]
   10040877f: 4d 19 1e              sbb    QWORD PTR [r14],r11
   100408782: 4d 1b b3 ff ff ff 7f  sbb    r14,QWORD PTR [r11+0x7fffffff]
   100408789: 4d 19 9e ff ff ff 7f  sbb    QWORD PTR [r14+0x7fffffff],r11
   100408790: 4d 19 e6              sbb    r14,r12
   100408793: 4d 1b 34 24           sbb    r14,QWORD PTR [r12]
   100408797: 4d 19 26              sbb    QWORD PTR [r14],r12
   10040879a: 4d 1b b4 24 ff ff ff 7f   sbb    r14,QWORD PTR [r12+0x7fffffff]
   1004087a2: 4d 19 a6 ff ff ff 7f  sbb    QWORD PTR [r14+0x7fffffff],r12
   1004087a9: 4d 19 ee              sbb    r14,r13
   1004087ac: 4d 1b 75 00           sbb    r14,QWORD PTR [r13+0x0]
   1004087b0: 4d 19 2e              sbb    QWORD PTR [r14],r13
   1004087b3: 4d 1b b5 ff ff ff 7f  sbb    r14,QWORD PTR [r13+0x7fffffff]
   1004087ba: 4d 19 ae ff ff ff 7f  sbb    QWORD PTR [r14+0x7fffffff],r13
   1004087c1: 4d 19 f6              sbb    r14,r14
   1004087c4: 4d 1b 36              sbb    r14,QWORD PTR [r14]
   1004087c7: 4d 19 36              sbb    QWORD PTR [r14],r14
   1004087ca: 4d 1b b6 ff ff ff 7f  sbb    r14,QWORD PTR [r14+0x7fffffff]
   1004087d1: 4d 19 b6 ff ff ff 7f  sbb    QWORD PTR [r14+0x7fffffff],r14
   1004087d8: 4d 19 fe              sbb    r14,r15
   1004087db: 4d 1b 37              sbb    r14,QWORD PTR [r15]
   1004087de: 4d 19 3e              sbb    QWORD PTR [r14],r15
   1004087e1: 4d 1b b7 ff ff ff 7f  sbb    r14,QWORD PTR [r15+0x7fffffff]
   1004087e8: 4d 19 be ff ff ff 7f  sbb    QWORD PTR [r14+0x7fffffff],r15
   1004087ef: 49 81 df ff ff ff 7f  sbb    r15,0x7fffffff
   1004087f6: 49 19 c7              sbb    r15,rax
   1004087f9: 4c 1b 38              sbb    r15,QWORD PTR [rax]
   1004087fc: 49 19 07              sbb    QWORD PTR [r15],rax
   1004087ff: 4c 1b b8 ff ff ff 7f  sbb    r15,QWORD PTR [rax+0x7fffffff]
   100408806: 49 19 87 ff ff ff 7f  sbb    QWORD PTR [r15+0x7fffffff],rax
   10040880d: 49 19 cf              sbb    r15,rcx
   100408810: 4c 1b 39              sbb    r15,QWORD PTR [rcx]
   100408813: 49 19 0f              sbb    QWORD PTR [r15],rcx
   100408816: 4c 1b b9 ff ff ff 7f  sbb    r15,QWORD PTR [rcx+0x7fffffff]
   10040881d: 49 19 8f ff ff ff 7f  sbb    QWORD PTR [r15+0x7fffffff],rcx
   100408824: 49 19 d7              sbb    r15,rdx
   100408827: 4c 1b 3a              sbb    r15,QWORD PTR [rdx]
   10040882a: 49 19 17              sbb    QWORD PTR [r15],rdx
   10040882d: 4c 1b ba ff ff ff 7f  sbb    r15,QWORD PTR [rdx+0x7fffffff]
   100408834: 49 19 97 ff ff ff 7f  sbb    QWORD PTR [r15+0x7fffffff],rdx
   10040883b: 49 19 df              sbb    r15,rbx
   10040883e: 4c 1b 3b              sbb    r15,QWORD PTR [rbx]
   100408841: 49 19 1f              sbb    QWORD PTR [r15],rbx
   100408844: 4c 1b bb ff ff ff 7f  sbb    r15,QWORD PTR [rbx+0x7fffffff]
   10040884b: 49 19 9f ff ff ff 7f  sbb    QWORD PTR [r15+0x7fffffff],rbx
   100408852: 49 19 e7              sbb    r15,rsp
   100408855: 4c 1b 3c 24           sbb    r15,QWORD PTR [rsp]
   100408859: 49 19 27              sbb    QWORD PTR [r15],rsp
   10040885c: 4c 1b bc 24 ff ff ff 7f   sbb    r15,QWORD PTR [rsp+0x7fffffff]
   100408864: 49 19 a7 ff ff ff 7f  sbb    QWORD PTR [r15+0x7fffffff],rsp
   10040886b: 49 19 ef              sbb    r15,rbp
   10040886e: 4c 1b 7d 00           sbb    r15,QWORD PTR [rbp+0x0]
   100408872: 49 19 2f              sbb    QWORD PTR [r15],rbp
   100408875: 4c 1b bd ff ff ff 7f  sbb    r15,QWORD PTR [rbp+0x7fffffff]
   10040887c: 49 19 af ff ff ff 7f  sbb    QWORD PTR [r15+0x7fffffff],rbp
   100408883: 49 19 f7              sbb    r15,rsi
   100408886: 4c 1b 3e              sbb    r15,QWORD PTR [rsi]
   100408889: 49 19 37              sbb    QWORD PTR [r15],rsi
   10040888c: 4c 1b be ff ff ff 7f  sbb    r15,QWORD PTR [rsi+0x7fffffff]
   100408893: 49 19 b7 ff ff ff 7f  sbb    QWORD PTR [r15+0x7fffffff],rsi
   10040889a: 49 19 ff              sbb    r15,rdi
   10040889d: 4c 1b 3f              sbb    r15,QWORD PTR [rdi]
   1004088a0: 49 19 3f              sbb    QWORD PTR [r15],rdi
   1004088a3: 4c 1b bf ff ff ff 7f  sbb    r15,QWORD PTR [rdi+0x7fffffff]
   1004088aa: 49 19 bf ff ff ff 7f  sbb    QWORD PTR [r15+0x7fffffff],rdi
   1004088b1: 4d 19 c7              sbb    r15,r8
   1004088b4: 4d 1b 38              sbb    r15,QWORD PTR [r8]
   1004088b7: 4d 19 07              sbb    QWORD PTR [r15],r8
   1004088ba: 4d 1b b8 ff ff ff 7f  sbb    r15,QWORD PTR [r8+0x7fffffff]
   1004088c1: 4d 19 87 ff ff ff 7f  sbb    QWORD PTR [r15+0x7fffffff],r8
   1004088c8: 4d 19 cf              sbb    r15,r9
   1004088cb: 4d 1b 39              sbb    r15,QWORD PTR [r9]
   1004088ce: 4d 19 0f              sbb    QWORD PTR [r15],r9
   1004088d1: 4d 1b b9 ff ff ff 7f  sbb    r15,QWORD PTR [r9+0x7fffffff]
   1004088d8: 4d 19 8f ff ff ff 7f  sbb    QWORD PTR [r15+0x7fffffff],r9
   1004088df: 4d 19 d7              sbb    r15,r10
   1004088e2: 4d 1b 3a              sbb    r15,QWORD PTR [r10]
   1004088e5: 4d 19 17              sbb    QWORD PTR [r15],r10
   1004088e8: 4d 1b ba ff ff ff 7f  sbb    r15,QWORD PTR [r10+0x7fffffff]
   1004088ef: 4d 19 97 ff ff ff 7f  sbb    QWORD PTR [r15+0x7fffffff],r10
   1004088f6: 4d 19 df              sbb    r15,r11
   1004088f9: 4d 1b 3b              sbb    r15,QWORD PTR [r11]
   1004088fc: 4d 19 1f              sbb    QWORD PTR [r15],r11
   1004088ff: 4d 1b bb ff ff ff 7f  sbb    r15,QWORD PTR [r11+0x7fffffff]
   100408906: 4d 19 9f ff ff ff 7f  sbb    QWORD PTR [r15+0x7fffffff],r11
   10040890d: 4d 19 e7              sbb    r15,r12
   100408910: 4d 1b 3c 24           sbb    r15,QWORD PTR [r12]
   100408914: 4d 19 27              sbb    QWORD PTR [r15],r12
   100408917: 4d 1b bc 24 ff ff ff 7f   sbb    r15,QWORD PTR [r12+0x7fffffff]
   10040891f: 4d 19 a7 ff ff ff 7f  sbb    QWORD PTR [r15+0x7fffffff],r12
   100408926: 4d 19 ef              sbb    r15,r13
   100408929: 4d 1b 7d 00           sbb    r15,QWORD PTR [r13+0x0]
   10040892d: 4d 19 2f              sbb    QWORD PTR [r15],r13
   100408930: 4d 1b bd ff ff ff 7f  sbb    r15,QWORD PTR [r13+0x7fffffff]
   100408937: 4d 19 af ff ff ff 7f  sbb    QWORD PTR [r15+0x7fffffff],r13
   10040893e: 4d 19 f7              sbb    r15,r14
   100408941: 4d 1b 3e              sbb    r15,QWORD PTR [r14]
   100408944: 4d 19 37              sbb    QWORD PTR [r15],r14
   100408947: 4d 1b be ff ff ff 7f  sbb    r15,QWORD PTR [r14+0x7fffffff]
   10040894e: 4d 19 b7 ff ff ff 7f  sbb    QWORD PTR [r15+0x7fffffff],r14
   100408955: 4d 19 ff              sbb    r15,r15
   100408958: 4d 1b 3f              sbb    r15,QWORD PTR [r15]
   10040895b: 4d 19 3f              sbb    QWORD PTR [r15],r15
   10040895e: 4d 1b bf ff ff ff 7f  sbb    r15,QWORD PTR [r15+0x7fffffff]
   100408965: 4d 19 bf ff ff ff 7f  sbb    QWORD PTR [r15+0x7fffffff],r15
   10040896c: 48 25 ff ff ff 7f     and    rax,0x7fffffff
   100408972: 48 21 c0              and    rax,rax
   100408975: 48 23 00              and    rax,QWORD PTR [rax]
   100408978: 48 21 00              and    QWORD PTR [rax],rax
   10040897b: 48 23 80 ff ff ff 7f  and    rax,QWORD PTR [rax+0x7fffffff]
   100408982: 48 21 80 ff ff ff 7f  and    QWORD PTR [rax+0x7fffffff],rax
   100408989: 48 21 c8              and    rax,rcx
   10040898c: 48 23 01              and    rax,QWORD PTR [rcx]
   10040898f: 48 21 08              and    QWORD PTR [rax],rcx
   100408992: 48 23 81 ff ff ff 7f  and    rax,QWORD PTR [rcx+0x7fffffff]
   100408999: 48 21 88 ff ff ff 7f  and    QWORD PTR [rax+0x7fffffff],rcx
   1004089a0: 48 21 d0              and    rax,rdx
   1004089a3: 48 23 02              and    rax,QWORD PTR [rdx]
   1004089a6: 48 21 10              and    QWORD PTR [rax],rdx
   1004089a9: 48 23 82 ff ff ff 7f  and    rax,QWORD PTR [rdx+0x7fffffff]
   1004089b0: 48 21 90 ff ff ff 7f  and    QWORD PTR [rax+0x7fffffff],rdx
   1004089b7: 48 21 d8              and    rax,rbx
   1004089ba: 48 23 03              and    rax,QWORD PTR [rbx]
   1004089bd: 48 21 18              and    QWORD PTR [rax],rbx
   1004089c0: 48 23 83 ff ff ff 7f  and    rax,QWORD PTR [rbx+0x7fffffff]
   1004089c7: 48 21 98 ff ff ff 7f  and    QWORD PTR [rax+0x7fffffff],rbx
   1004089ce: 48 21 e0              and    rax,rsp
   1004089d1: 48 23 04 24           and    rax,QWORD PTR [rsp]
   1004089d5: 48 21 20              and    QWORD PTR [rax],rsp
   1004089d8: 48 23 84 24 ff ff ff 7f   and    rax,QWORD PTR [rsp+0x7fffffff]
   1004089e0: 48 21 a0 ff ff ff 7f  and    QWORD PTR [rax+0x7fffffff],rsp
   1004089e7: 48 21 e8              and    rax,rbp
   1004089ea: 48 23 45 00           and    rax,QWORD PTR [rbp+0x0]
   1004089ee: 48 21 28              and    QWORD PTR [rax],rbp
   1004089f1: 48 23 85 ff ff ff 7f  and    rax,QWORD PTR [rbp+0x7fffffff]
   1004089f8: 48 21 a8 ff ff ff 7f  and    QWORD PTR [rax+0x7fffffff],rbp
   1004089ff: 48 21 f0              and    rax,rsi
   100408a02: 48 23 06              and    rax,QWORD PTR [rsi]
   100408a05: 48 21 30              and    QWORD PTR [rax],rsi
   100408a08: 48 23 86 ff ff ff 7f  and    rax,QWORD PTR [rsi+0x7fffffff]
   100408a0f: 48 21 b0 ff ff ff 7f  and    QWORD PTR [rax+0x7fffffff],rsi
   100408a16: 48 21 f8              and    rax,rdi
   100408a19: 48 23 07              and    rax,QWORD PTR [rdi]
   100408a1c: 48 21 38              and    QWORD PTR [rax],rdi
   100408a1f: 48 23 87 ff ff ff 7f  and    rax,QWORD PTR [rdi+0x7fffffff]
   100408a26: 48 21 b8 ff ff ff 7f  and    QWORD PTR [rax+0x7fffffff],rdi
   100408a2d: 4c 21 c0              and    rax,r8
   100408a30: 49 23 00              and    rax,QWORD PTR [r8]
   100408a33: 4c 21 00              and    QWORD PTR [rax],r8
   100408a36: 49 23 80 ff ff ff 7f  and    rax,QWORD PTR [r8+0x7fffffff]
   100408a3d: 4c 21 80 ff ff ff 7f  and    QWORD PTR [rax+0x7fffffff],r8
   100408a44: 4c 21 c8              and    rax,r9
   100408a47: 49 23 01              and    rax,QWORD PTR [r9]
   100408a4a: 4c 21 08              and    QWORD PTR [rax],r9
   100408a4d: 49 23 81 ff ff ff 7f  and    rax,QWORD PTR [r9+0x7fffffff]
   100408a54: 4c 21 88 ff ff ff 7f  and    QWORD PTR [rax+0x7fffffff],r9
   100408a5b: 4c 21 d0              and    rax,r10
   100408a5e: 49 23 02              and    rax,QWORD PTR [r10]
   100408a61: 4c 21 10              and    QWORD PTR [rax],r10
   100408a64: 49 23 82 ff ff ff 7f  and    rax,QWORD PTR [r10+0x7fffffff]
   100408a6b: 4c 21 90 ff ff ff 7f  and    QWORD PTR [rax+0x7fffffff],r10
   100408a72: 4c 21 d8              and    rax,r11
   100408a75: 49 23 03              and    rax,QWORD PTR [r11]
   100408a78: 4c 21 18              and    QWORD PTR [rax],r11
   100408a7b: 49 23 83 ff ff ff 7f  and    rax,QWORD PTR [r11+0x7fffffff]
   100408a82: 4c 21 98 ff ff ff 7f  and    QWORD PTR [rax+0x7fffffff],r11
   100408a89: 4c 21 e0              and    rax,r12
   100408a8c: 49 23 04 24           and    rax,QWORD PTR [r12]
   100408a90: 4c 21 20              and    QWORD PTR [rax],r12
   100408a93: 49 23 84 24 ff ff ff 7f   and    rax,QWORD PTR [r12+0x7fffffff]
   100408a9b: 4c 21 a0 ff ff ff 7f  and    QWORD PTR [rax+0x7fffffff],r12
   100408aa2: 4c 21 e8              and    rax,r13
   100408aa5: 49 23 45 00           and    rax,QWORD PTR [r13+0x0]
   100408aa9: 4c 21 28              and    QWORD PTR [rax],r13
   100408aac: 49 23 85 ff ff ff 7f  and    rax,QWORD PTR [r13+0x7fffffff]
   100408ab3: 4c 21 a8 ff ff ff 7f  and    QWORD PTR [rax+0x7fffffff],r13
   100408aba: 4c 21 f0              and    rax,r14
   100408abd: 49 23 06              and    rax,QWORD PTR [r14]
   100408ac0: 4c 21 30              and    QWORD PTR [rax],r14
   100408ac3: 49 23 86 ff ff ff 7f  and    rax,QWORD PTR [r14+0x7fffffff]
   100408aca: 4c 21 b0 ff ff ff 7f  and    QWORD PTR [rax+0x7fffffff],r14
   100408ad1: 4c 21 f8              and    rax,r15
   100408ad4: 49 23 07              and    rax,QWORD PTR [r15]
   100408ad7: 4c 21 38              and    QWORD PTR [rax],r15
   100408ada: 49 23 87 ff ff ff 7f  and    rax,QWORD PTR [r15+0x7fffffff]
   100408ae1: 4c 21 b8 ff ff ff 7f  and    QWORD PTR [rax+0x7fffffff],r15
   100408ae8: 48 81 e1 ff ff ff 7f  and    rcx,0x7fffffff
   100408aef: 48 21 c1              and    rcx,rax
   100408af2: 48 23 08              and    rcx,QWORD PTR [rax]
   100408af5: 48 21 01              and    QWORD PTR [rcx],rax
   100408af8: 48 23 88 ff ff ff 7f  and    rcx,QWORD PTR [rax+0x7fffffff]
   100408aff: 48 21 81 ff ff ff 7f  and    QWORD PTR [rcx+0x7fffffff],rax
   100408b06: 48 21 c9              and    rcx,rcx
   100408b09: 48 23 09              and    rcx,QWORD PTR [rcx]
   100408b0c: 48 21 09              and    QWORD PTR [rcx],rcx
   100408b0f: 48 23 89 ff ff ff 7f  and    rcx,QWORD PTR [rcx+0x7fffffff]
   100408b16: 48 21 89 ff ff ff 7f  and    QWORD PTR [rcx+0x7fffffff],rcx
   100408b1d: 48 21 d1              and    rcx,rdx
   100408b20: 48 23 0a              and    rcx,QWORD PTR [rdx]
   100408b23: 48 21 11              and    QWORD PTR [rcx],rdx
   100408b26: 48 23 8a ff ff ff 7f  and    rcx,QWORD PTR [rdx+0x7fffffff]
   100408b2d: 48 21 91 ff ff ff 7f  and    QWORD PTR [rcx+0x7fffffff],rdx
   100408b34: 48 21 d9              and    rcx,rbx
   100408b37: 48 23 0b              and    rcx,QWORD PTR [rbx]
   100408b3a: 48 21 19              and    QWORD PTR [rcx],rbx
   100408b3d: 48 23 8b ff ff ff 7f  and    rcx,QWORD PTR [rbx+0x7fffffff]
   100408b44: 48 21 99 ff ff ff 7f  and    QWORD PTR [rcx+0x7fffffff],rbx
   100408b4b: 48 21 e1              and    rcx,rsp
   100408b4e: 48 23 0c 24           and    rcx,QWORD PTR [rsp]
   100408b52: 48 21 21              and    QWORD PTR [rcx],rsp
   100408b55: 48 23 8c 24 ff ff ff 7f   and    rcx,QWORD PTR [rsp+0x7fffffff]
   100408b5d: 48 21 a1 ff ff ff 7f  and    QWORD PTR [rcx+0x7fffffff],rsp
   100408b64: 48 21 e9              and    rcx,rbp
   100408b67: 48 23 4d 00           and    rcx,QWORD PTR [rbp+0x0]
   100408b6b: 48 21 29              and    QWORD PTR [rcx],rbp
   100408b6e: 48 23 8d ff ff ff 7f  and    rcx,QWORD PTR [rbp+0x7fffffff]
   100408b75: 48 21 a9 ff ff ff 7f  and    QWORD PTR [rcx+0x7fffffff],rbp
   100408b7c: 48 21 f1              and    rcx,rsi
   100408b7f: 48 23 0e              and    rcx,QWORD PTR [rsi]
   100408b82: 48 21 31              and    QWORD PTR [rcx],rsi
   100408b85: 48 23 8e ff ff ff 7f  and    rcx,QWORD PTR [rsi+0x7fffffff]
   100408b8c: 48 21 b1 ff ff ff 7f  and    QWORD PTR [rcx+0x7fffffff],rsi
   100408b93: 48 21 f9              and    rcx,rdi
   100408b96: 48 23 0f              and    rcx,QWORD PTR [rdi]
   100408b99: 48 21 39              and    QWORD PTR [rcx],rdi
   100408b9c: 48 23 8f ff ff ff 7f  and    rcx,QWORD PTR [rdi+0x7fffffff]
   100408ba3: 48 21 b9 ff ff ff 7f  and    QWORD PTR [rcx+0x7fffffff],rdi
   100408baa: 4c 21 c1              and    rcx,r8
   100408bad: 49 23 08              and    rcx,QWORD PTR [r8]
   100408bb0: 4c 21 01              and    QWORD PTR [rcx],r8
   100408bb3: 49 23 88 ff ff ff 7f  and    rcx,QWORD PTR [r8+0x7fffffff]
   100408bba: 4c 21 81 ff ff ff 7f  and    QWORD PTR [rcx+0x7fffffff],r8
   100408bc1: 4c 21 c9              and    rcx,r9
   100408bc4: 49 23 09              and    rcx,QWORD PTR [r9]
   100408bc7: 4c 21 09              and    QWORD PTR [rcx],r9
   100408bca: 49 23 89 ff ff ff 7f  and    rcx,QWORD PTR [r9+0x7fffffff]
   100408bd1: 4c 21 89 ff ff ff 7f  and    QWORD PTR [rcx+0x7fffffff],r9
   100408bd8: 4c 21 d1              and    rcx,r10
   100408bdb: 49 23 0a              and    rcx,QWORD PTR [r10]
   100408bde: 4c 21 11              and    QWORD PTR [rcx],r10
   100408be1: 49 23 8a ff ff ff 7f  and    rcx,QWORD PTR [r10+0x7fffffff]
   100408be8: 4c 21 91 ff ff ff 7f  and    QWORD PTR [rcx+0x7fffffff],r10
   100408bef: 4c 21 d9              and    rcx,r11
   100408bf2: 49 23 0b              and    rcx,QWORD PTR [r11]
   100408bf5: 4c 21 19              and    QWORD PTR [rcx],r11
   100408bf8: 49 23 8b ff ff ff 7f  and    rcx,QWORD PTR [r11+0x7fffffff]
   100408bff: 4c 21 99 ff ff ff 7f  and    QWORD PTR [rcx+0x7fffffff],r11
   100408c06: 4c 21 e1              and    rcx,r12
   100408c09: 49 23 0c 24           and    rcx,QWORD PTR [r12]
   100408c0d: 4c 21 21              and    QWORD PTR [rcx],r12
   100408c10: 49 23 8c 24 ff ff ff 7f   and    rcx,QWORD PTR [r12+0x7fffffff]
   100408c18: 4c 21 a1 ff ff ff 7f  and    QWORD PTR [rcx+0x7fffffff],r12
   100408c1f: 4c 21 e9              and    rcx,r13
   100408c22: 49 23 4d 00           and    rcx,QWORD PTR [r13+0x0]
   100408c26: 4c 21 29              and    QWORD PTR [rcx],r13
   100408c29: 49 23 8d ff ff ff 7f  and    rcx,QWORD PTR [r13+0x7fffffff]
   100408c30: 4c 21 a9 ff ff ff 7f  and    QWORD PTR [rcx+0x7fffffff],r13
   100408c37: 4c 21 f1              and    rcx,r14
   100408c3a: 49 23 0e              and    rcx,QWORD PTR [r14]
   100408c3d: 4c 21 31              and    QWORD PTR [rcx],r14
   100408c40: 49 23 8e ff ff ff 7f  and    rcx,QWORD PTR [r14+0x7fffffff]
   100408c47: 4c 21 b1 ff ff ff 7f  and    QWORD PTR [rcx+0x7fffffff],r14
   100408c4e: 4c 21 f9              and    rcx,r15
   100408c51: 49 23 0f              and    rcx,QWORD PTR [r15]
   100408c54: 4c 21 39              and    QWORD PTR [rcx],r15
   100408c57: 49 23 8f ff ff ff 7f  and    rcx,QWORD PTR [r15+0x7fffffff]
   100408c5e: 4c 21 b9 ff ff ff 7f  and    QWORD PTR [rcx+0x7fffffff],r15
   100408c65: 48 81 e2 ff ff ff 7f  and    rdx,0x7fffffff
   100408c6c: 48 21 c2              and    rdx,rax
   100408c6f: 48 23 10              and    rdx,QWORD PTR [rax]
   100408c72: 48 21 02              and    QWORD PTR [rdx],rax
   100408c75: 48 23 90 ff ff ff 7f  and    rdx,QWORD PTR [rax+0x7fffffff]
   100408c7c: 48 21 82 ff ff ff 7f  and    QWORD PTR [rdx+0x7fffffff],rax
   100408c83: 48 21 ca              and    rdx,rcx
   100408c86: 48 23 11              and    rdx,QWORD PTR [rcx]
   100408c89: 48 21 0a              and    QWORD PTR [rdx],rcx
   100408c8c: 48 23 91 ff ff ff 7f  and    rdx,QWORD PTR [rcx+0x7fffffff]
   100408c93: 48 21 8a ff ff ff 7f  and    QWORD PTR [rdx+0x7fffffff],rcx
   100408c9a: 48 21 d2              and    rdx,rdx
   100408c9d: 48 23 12              and    rdx,QWORD PTR [rdx]
   100408ca0: 48 21 12              and    QWORD PTR [rdx],rdx
   100408ca3: 48 23 92 ff ff ff 7f  and    rdx,QWORD PTR [rdx+0x7fffffff]
   100408caa: 48 21 92 ff ff ff 7f  and    QWORD PTR [rdx+0x7fffffff],rdx
   100408cb1: 48 21 da              and    rdx,rbx
   100408cb4: 48 23 13              and    rdx,QWORD PTR [rbx]
   100408cb7: 48 21 1a              and    QWORD PTR [rdx],rbx
   100408cba: 48 23 93 ff ff ff 7f  and    rdx,QWORD PTR [rbx+0x7fffffff]
   100408cc1: 48 21 9a ff ff ff 7f  and    QWORD PTR [rdx+0x7fffffff],rbx
   100408cc8: 48 21 e2              and    rdx,rsp
   100408ccb: 48 23 14 24           and    rdx,QWORD PTR [rsp]
   100408ccf: 48 21 22              and    QWORD PTR [rdx],rsp
   100408cd2: 48 23 94 24 ff ff ff 7f   and    rdx,QWORD PTR [rsp+0x7fffffff]
   100408cda: 48 21 a2 ff ff ff 7f  and    QWORD PTR [rdx+0x7fffffff],rsp
   100408ce1: 48 21 ea              and    rdx,rbp
   100408ce4: 48 23 55 00           and    rdx,QWORD PTR [rbp+0x0]
   100408ce8: 48 21 2a              and    QWORD PTR [rdx],rbp
   100408ceb: 48 23 95 ff ff ff 7f  and    rdx,QWORD PTR [rbp+0x7fffffff]
   100408cf2: 48 21 aa ff ff ff 7f  and    QWORD PTR [rdx+0x7fffffff],rbp
   100408cf9: 48 21 f2              and    rdx,rsi
   100408cfc: 48 23 16              and    rdx,QWORD PTR [rsi]
   100408cff: 48 21 32              and    QWORD PTR [rdx],rsi
   100408d02: 48 23 96 ff ff ff 7f  and    rdx,QWORD PTR [rsi+0x7fffffff]
   100408d09: 48 21 b2 ff ff ff 7f  and    QWORD PTR [rdx+0x7fffffff],rsi
   100408d10: 48 21 fa              and    rdx,rdi
   100408d13: 48 23 17              and    rdx,QWORD PTR [rdi]
   100408d16: 48 21 3a              and    QWORD PTR [rdx],rdi
   100408d19: 48 23 97 ff ff ff 7f  and    rdx,QWORD PTR [rdi+0x7fffffff]
   100408d20: 48 21 ba ff ff ff 7f  and    QWORD PTR [rdx+0x7fffffff],rdi
   100408d27: 4c 21 c2              and    rdx,r8
   100408d2a: 49 23 10              and    rdx,QWORD PTR [r8]
   100408d2d: 4c 21 02              and    QWORD PTR [rdx],r8
   100408d30: 49 23 90 ff ff ff 7f  and    rdx,QWORD PTR [r8+0x7fffffff]
   100408d37: 4c 21 82 ff ff ff 7f  and    QWORD PTR [rdx+0x7fffffff],r8
   100408d3e: 4c 21 ca              and    rdx,r9
   100408d41: 49 23 11              and    rdx,QWORD PTR [r9]
   100408d44: 4c 21 0a              and    QWORD PTR [rdx],r9
   100408d47: 49 23 91 ff ff ff 7f  and    rdx,QWORD PTR [r9+0x7fffffff]
   100408d4e: 4c 21 8a ff ff ff 7f  and    QWORD PTR [rdx+0x7fffffff],r9
   100408d55: 4c 21 d2              and    rdx,r10
   100408d58: 49 23 12              and    rdx,QWORD PTR [r10]
   100408d5b: 4c 21 12              and    QWORD PTR [rdx],r10
   100408d5e: 49 23 92 ff ff ff 7f  and    rdx,QWORD PTR [r10+0x7fffffff]
   100408d65: 4c 21 92 ff ff ff 7f  and    QWORD PTR [rdx+0x7fffffff],r10
   100408d6c: 4c 21 da              and    rdx,r11
   100408d6f: 49 23 13              and    rdx,QWORD PTR [r11]
   100408d72: 4c 21 1a              and    QWORD PTR [rdx],r11
   100408d75: 49 23 93 ff ff ff 7f  and    rdx,QWORD PTR [r11+0x7fffffff]
   100408d7c: 4c 21 9a ff ff ff 7f  and    QWORD PTR [rdx+0x7fffffff],r11
   100408d83: 4c 21 e2              and    rdx,r12
   100408d86: 49 23 14 24           and    rdx,QWORD PTR [r12]
   100408d8a: 4c 21 22              and    QWORD PTR [rdx],r12
   100408d8d: 49 23 94 24 ff ff ff 7f   and    rdx,QWORD PTR [r12+0x7fffffff]
   100408d95: 4c 21 a2 ff ff ff 7f  and    QWORD PTR [rdx+0x7fffffff],r12
   100408d9c: 4c 21 ea              and    rdx,r13
   100408d9f: 49 23 55 00           and    rdx,QWORD PTR [r13+0x0]
   100408da3: 4c 21 2a              and    QWORD PTR [rdx],r13
   100408da6: 49 23 95 ff ff ff 7f  and    rdx,QWORD PTR [r13+0x7fffffff]
   100408dad: 4c 21 aa ff ff ff 7f  and    QWORD PTR [rdx+0x7fffffff],r13
   100408db4: 4c 21 f2              and    rdx,r14
   100408db7: 49 23 16              and    rdx,QWORD PTR [r14]
   100408dba: 4c 21 32              and    QWORD PTR [rdx],r14
   100408dbd: 49 23 96 ff ff ff 7f  and    rdx,QWORD PTR [r14+0x7fffffff]
   100408dc4: 4c 21 b2 ff ff ff 7f  and    QWORD PTR [rdx+0x7fffffff],r14
   100408dcb: 4c 21 fa              and    rdx,r15
   100408dce: 49 23 17              and    rdx,QWORD PTR [r15]
   100408dd1: 4c 21 3a              and    QWORD PTR [rdx],r15
   100408dd4: 49 23 97 ff ff ff 7f  and    rdx,QWORD PTR [r15+0x7fffffff]
   100408ddb: 4c 21 ba ff ff ff 7f  and    QWORD PTR [rdx+0x7fffffff],r15
   100408de2: 48 81 e3 ff ff ff 7f  and    rbx,0x7fffffff
   100408de9: 48 21 c3              and    rbx,rax
   100408dec: 48 23 18              and    rbx,QWORD PTR [rax]
   100408def: 48 21 03              and    QWORD PTR [rbx],rax
   100408df2: 48 23 98 ff ff ff 7f  and    rbx,QWORD PTR [rax+0x7fffffff]
   100408df9: 48 21 83 ff ff ff 7f  and    QWORD PTR [rbx+0x7fffffff],rax
   100408e00: 48 21 cb              and    rbx,rcx
   100408e03: 48 23 19              and    rbx,QWORD PTR [rcx]
   100408e06: 48 21 0b              and    QWORD PTR [rbx],rcx
   100408e09: 48 23 99 ff ff ff 7f  and    rbx,QWORD PTR [rcx+0x7fffffff]
   100408e10: 48 21 8b ff ff ff 7f  and    QWORD PTR [rbx+0x7fffffff],rcx
   100408e17: 48 21 d3              and    rbx,rdx
   100408e1a: 48 23 1a              and    rbx,QWORD PTR [rdx]
   100408e1d: 48 21 13              and    QWORD PTR [rbx],rdx
   100408e20: 48 23 9a ff ff ff 7f  and    rbx,QWORD PTR [rdx+0x7fffffff]
   100408e27: 48 21 93 ff ff ff 7f  and    QWORD PTR [rbx+0x7fffffff],rdx
   100408e2e: 48 21 db              and    rbx,rbx
   100408e31: 48 23 1b              and    rbx,QWORD PTR [rbx]
   100408e34: 48 21 1b              and    QWORD PTR [rbx],rbx
   100408e37: 48 23 9b ff ff ff 7f  and    rbx,QWORD PTR [rbx+0x7fffffff]
   100408e3e: 48 21 9b ff ff ff 7f  and    QWORD PTR [rbx+0x7fffffff],rbx
   100408e45: 48 21 e3              and    rbx,rsp
   100408e48: 48 23 1c 24           and    rbx,QWORD PTR [rsp]
   100408e4c: 48 21 23              and    QWORD PTR [rbx],rsp
   100408e4f: 48 23 9c 24 ff ff ff 7f   and    rbx,QWORD PTR [rsp+0x7fffffff]
   100408e57: 48 21 a3 ff ff ff 7f  and    QWORD PTR [rbx+0x7fffffff],rsp
   100408e5e: 48 21 eb              and    rbx,rbp
   100408e61: 48 23 5d 00           and    rbx,QWORD PTR [rbp+0x0]
   100408e65: 48 21 2b              and    QWORD PTR [rbx],rbp
   100408e68: 48 23 9d ff ff ff 7f  and    rbx,QWORD PTR [rbp+0x7fffffff]
   100408e6f: 48 21 ab ff ff ff 7f  and    QWORD PTR [rbx+0x7fffffff],rbp
   100408e76: 48 21 f3              and    rbx,rsi
   100408e79: 48 23 1e              and    rbx,QWORD PTR [rsi]
   100408e7c: 48 21 33              and    QWORD PTR [rbx],rsi
   100408e7f: 48 23 9e ff ff ff 7f  and    rbx,QWORD PTR [rsi+0x7fffffff]
   100408e86: 48 21 b3 ff ff ff 7f  and    QWORD PTR [rbx+0x7fffffff],rsi
   100408e8d: 48 21 fb              and    rbx,rdi
   100408e90: 48 23 1f              and    rbx,QWORD PTR [rdi]
   100408e93: 48 21 3b              and    QWORD PTR [rbx],rdi
   100408e96: 48 23 9f ff ff ff 7f  and    rbx,QWORD PTR [rdi+0x7fffffff]
   100408e9d: 48 21 bb ff ff ff 7f  and    QWORD PTR [rbx+0x7fffffff],rdi
   100408ea4: 4c 21 c3              and    rbx,r8
   100408ea7: 49 23 18              and    rbx,QWORD PTR [r8]
   100408eaa: 4c 21 03              and    QWORD PTR [rbx],r8
   100408ead: 49 23 98 ff ff ff 7f  and    rbx,QWORD PTR [r8+0x7fffffff]
   100408eb4: 4c 21 83 ff ff ff 7f  and    QWORD PTR [rbx+0x7fffffff],r8
   100408ebb: 4c 21 cb              and    rbx,r9
   100408ebe: 49 23 19              and    rbx,QWORD PTR [r9]
   100408ec1: 4c 21 0b              and    QWORD PTR [rbx],r9
   100408ec4: 49 23 99 ff ff ff 7f  and    rbx,QWORD PTR [r9+0x7fffffff]
   100408ecb: 4c 21 8b ff ff ff 7f  and    QWORD PTR [rbx+0x7fffffff],r9
   100408ed2: 4c 21 d3              and    rbx,r10
   100408ed5: 49 23 1a              and    rbx,QWORD PTR [r10]
   100408ed8: 4c 21 13              and    QWORD PTR [rbx],r10
   100408edb: 49 23 9a ff ff ff 7f  and    rbx,QWORD PTR [r10+0x7fffffff]
   100408ee2: 4c 21 93 ff ff ff 7f  and    QWORD PTR [rbx+0x7fffffff],r10
   100408ee9: 4c 21 db              and    rbx,r11
   100408eec: 49 23 1b              and    rbx,QWORD PTR [r11]
   100408eef: 4c 21 1b              and    QWORD PTR [rbx],r11
   100408ef2: 49 23 9b ff ff ff 7f  and    rbx,QWORD PTR [r11+0x7fffffff]
   100408ef9: 4c 21 9b ff ff ff 7f  and    QWORD PTR [rbx+0x7fffffff],r11
   100408f00: 4c 21 e3              and    rbx,r12
   100408f03: 49 23 1c 24           and    rbx,QWORD PTR [r12]
   100408f07: 4c 21 23              and    QWORD PTR [rbx],r12
   100408f0a: 49 23 9c 24 ff ff ff 7f   and    rbx,QWORD PTR [r12+0x7fffffff]
   100408f12: 4c 21 a3 ff ff ff 7f  and    QWORD PTR [rbx+0x7fffffff],r12
   100408f19: 4c 21 eb              and    rbx,r13
   100408f1c: 49 23 5d 00           and    rbx,QWORD PTR [r13+0x0]
   100408f20: 4c 21 2b              and    QWORD PTR [rbx],r13
   100408f23: 49 23 9d ff ff ff 7f  and    rbx,QWORD PTR [r13+0x7fffffff]
   100408f2a: 4c 21 ab ff ff ff 7f  and    QWORD PTR [rbx+0x7fffffff],r13
   100408f31: 4c 21 f3              and    rbx,r14
   100408f34: 49 23 1e              and    rbx,QWORD PTR [r14]
   100408f37: 4c 21 33              and    QWORD PTR [rbx],r14
   100408f3a: 49 23 9e ff ff ff 7f  and    rbx,QWORD PTR [r14+0x7fffffff]
   100408f41: 4c 21 b3 ff ff ff 7f  and    QWORD PTR [rbx+0x7fffffff],r14
   100408f48: 4c 21 fb              and    rbx,r15
   100408f4b: 49 23 1f              and    rbx,QWORD PTR [r15]
   100408f4e: 4c 21 3b              and    QWORD PTR [rbx],r15
   100408f51: 49 23 9f ff ff ff 7f  and    rbx,QWORD PTR [r15+0x7fffffff]
   100408f58: 4c 21 bb ff ff ff 7f  and    QWORD PTR [rbx+0x7fffffff],r15
   100408f5f: 48 81 e4 ff ff ff 7f  and    rsp,0x7fffffff
   100408f66: 48 21 c4              and    rsp,rax
   100408f69: 48 23 20              and    rsp,QWORD PTR [rax]
   100408f6c: 48 21 04 24           and    QWORD PTR [rsp],rax
   100408f70: 48 23 a0 ff ff ff 7f  and    rsp,QWORD PTR [rax+0x7fffffff]
   100408f77: 48 21 84 24 ff ff ff 7f   and    QWORD PTR [rsp+0x7fffffff],rax
   100408f7f: 48 21 cc              and    rsp,rcx
   100408f82: 48 23 21              and    rsp,QWORD PTR [rcx]
   100408f85: 48 21 0c 24           and    QWORD PTR [rsp],rcx
   100408f89: 48 23 a1 ff ff ff 7f  and    rsp,QWORD PTR [rcx+0x7fffffff]
   100408f90: 48 21 8c 24 ff ff ff 7f   and    QWORD PTR [rsp+0x7fffffff],rcx
   100408f98: 48 21 d4              and    rsp,rdx
   100408f9b: 48 23 22              and    rsp,QWORD PTR [rdx]
   100408f9e: 48 21 14 24           and    QWORD PTR [rsp],rdx
   100408fa2: 48 23 a2 ff ff ff 7f  and    rsp,QWORD PTR [rdx+0x7fffffff]
   100408fa9: 48 21 94 24 ff ff ff 7f   and    QWORD PTR [rsp+0x7fffffff],rdx
   100408fb1: 48 21 dc              and    rsp,rbx
   100408fb4: 48 23 23              and    rsp,QWORD PTR [rbx]
   100408fb7: 48 21 1c 24           and    QWORD PTR [rsp],rbx
   100408fbb: 48 23 a3 ff ff ff 7f  and    rsp,QWORD PTR [rbx+0x7fffffff]
   100408fc2: 48 21 9c 24 ff ff ff 7f   and    QWORD PTR [rsp+0x7fffffff],rbx
   100408fca: 48 21 e4              and    rsp,rsp
   100408fcd: 48 23 24 24           and    rsp,QWORD PTR [rsp]
   100408fd1: 48 21 24 24           and    QWORD PTR [rsp],rsp
   100408fd5: 48 23 a4 24 ff ff ff 7f   and    rsp,QWORD PTR [rsp+0x7fffffff]
   100408fdd: 48 21 a4 24 ff ff ff 7f   and    QWORD PTR [rsp+0x7fffffff],rsp
   100408fe5: 48 21 ec              and    rsp,rbp
   100408fe8: 48 23 65 00           and    rsp,QWORD PTR [rbp+0x0]
   100408fec: 48 21 2c 24           and    QWORD PTR [rsp],rbp
   100408ff0: 48 23 a5 ff ff ff 7f  and    rsp,QWORD PTR [rbp+0x7fffffff]
   100408ff7: 48 21 ac 24 ff ff ff 7f   and    QWORD PTR [rsp+0x7fffffff],rbp
   100408fff: 48 21 f4              and    rsp,rsi
   100409002: 48 23 26              and    rsp,QWORD PTR [rsi]
   100409005: 48 21 34 24           and    QWORD PTR [rsp],rsi
   100409009: 48 23 a6 ff ff ff 7f  and    rsp,QWORD PTR [rsi+0x7fffffff]
   100409010: 48 21 b4 24 ff ff ff 7f   and    QWORD PTR [rsp+0x7fffffff],rsi
   100409018: 48 21 fc              and    rsp,rdi
   10040901b: 48 23 27              and    rsp,QWORD PTR [rdi]
   10040901e: 48 21 3c 24           and    QWORD PTR [rsp],rdi
   100409022: 48 23 a7 ff ff ff 7f  and    rsp,QWORD PTR [rdi+0x7fffffff]
   100409029: 48 21 bc 24 ff ff ff 7f   and    QWORD PTR [rsp+0x7fffffff],rdi
   100409031: 4c 21 c4              and    rsp,r8
   100409034: 49 23 20              and    rsp,QWORD PTR [r8]
   100409037: 4c 21 04 24           and    QWORD PTR [rsp],r8
   10040903b: 49 23 a0 ff ff ff 7f  and    rsp,QWORD PTR [r8+0x7fffffff]
   100409042: 4c 21 84 24 ff ff ff 7f   and    QWORD PTR [rsp+0x7fffffff],r8
   10040904a: 4c 21 cc              and    rsp,r9
   10040904d: 49 23 21              and    rsp,QWORD PTR [r9]
   100409050: 4c 21 0c 24           and    QWORD PTR [rsp],r9
   100409054: 49 23 a1 ff ff ff 7f  and    rsp,QWORD PTR [r9+0x7fffffff]
   10040905b: 4c 21 8c 24 ff ff ff 7f   and    QWORD PTR [rsp+0x7fffffff],r9
   100409063: 4c 21 d4              and    rsp,r10
   100409066: 49 23 22              and    rsp,QWORD PTR [r10]
   100409069: 4c 21 14 24           and    QWORD PTR [rsp],r10
   10040906d: 49 23 a2 ff ff ff 7f  and    rsp,QWORD PTR [r10+0x7fffffff]
   100409074: 4c 21 94 24 ff ff ff 7f   and    QWORD PTR [rsp+0x7fffffff],r10
   10040907c: 4c 21 dc              and    rsp,r11
   10040907f: 49 23 23              and    rsp,QWORD PTR [r11]
   100409082: 4c 21 1c 24           and    QWORD PTR [rsp],r11
   100409086: 49 23 a3 ff ff ff 7f  and    rsp,QWORD PTR [r11+0x7fffffff]
   10040908d: 4c 21 9c 24 ff ff ff 7f   and    QWORD PTR [rsp+0x7fffffff],r11
   100409095: 4c 21 e4              and    rsp,r12
   100409098: 49 23 24 24           and    rsp,QWORD PTR [r12]
   10040909c: 4c 21 24 24           and    QWORD PTR [rsp],r12
   1004090a0: 49 23 a4 24 ff ff ff 7f   and    rsp,QWORD PTR [r12+0x7fffffff]
   1004090a8: 4c 21 a4 24 ff ff ff 7f   and    QWORD PTR [rsp+0x7fffffff],r12
   1004090b0: 4c 21 ec              and    rsp,r13
   1004090b3: 49 23 65 00           and    rsp,QWORD PTR [r13+0x0]
   1004090b7: 4c 21 2c 24           and    QWORD PTR [rsp],r13
   1004090bb: 49 23 a5 ff ff ff 7f  and    rsp,QWORD PTR [r13+0x7fffffff]
   1004090c2: 4c 21 ac 24 ff ff ff 7f   and    QWORD PTR [rsp+0x7fffffff],r13
   1004090ca: 4c 21 f4              and    rsp,r14
   1004090cd: 49 23 26              and    rsp,QWORD PTR [r14]
   1004090d0: 4c 21 34 24           and    QWORD PTR [rsp],r14
   1004090d4: 49 23 a6 ff ff ff 7f  and    rsp,QWORD PTR [r14+0x7fffffff]
   1004090db: 4c 21 b4 24 ff ff ff 7f   and    QWORD PTR [rsp+0x7fffffff],r14
   1004090e3: 4c 21 fc              and    rsp,r15
   1004090e6: 49 23 27              and    rsp,QWORD PTR [r15]
   1004090e9: 4c 21 3c 24           and    QWORD PTR [rsp],r15
   1004090ed: 49 23 a7 ff ff ff 7f  and    rsp,QWORD PTR [r15+0x7fffffff]
   1004090f4: 4c 21 bc 24 ff ff ff 7f   and    QWORD PTR [rsp+0x7fffffff],r15
   1004090fc: 48 81 e5 ff ff ff 7f  and    rbp,0x7fffffff
   100409103: 48 21 c5              and    rbp,rax
   100409106: 48 23 28              and    rbp,QWORD PTR [rax]
   100409109: 48 21 45 00           and    QWORD PTR [rbp+0x0],rax
   10040910d: 48 23 a8 ff ff ff 7f  and    rbp,QWORD PTR [rax+0x7fffffff]
   100409114: 48 21 85 ff ff ff 7f  and    QWORD PTR [rbp+0x7fffffff],rax
   10040911b: 48 21 cd              and    rbp,rcx
   10040911e: 48 23 29              and    rbp,QWORD PTR [rcx]
   100409121: 48 21 4d 00           and    QWORD PTR [rbp+0x0],rcx
   100409125: 48 23 a9 ff ff ff 7f  and    rbp,QWORD PTR [rcx+0x7fffffff]
   10040912c: 48 21 8d ff ff ff 7f  and    QWORD PTR [rbp+0x7fffffff],rcx
   100409133: 48 21 d5              and    rbp,rdx
   100409136: 48 23 2a              and    rbp,QWORD PTR [rdx]
   100409139: 48 21 55 00           and    QWORD PTR [rbp+0x0],rdx
   10040913d: 48 23 aa ff ff ff 7f  and    rbp,QWORD PTR [rdx+0x7fffffff]
   100409144: 48 21 95 ff ff ff 7f  and    QWORD PTR [rbp+0x7fffffff],rdx
   10040914b: 48 21 dd              and    rbp,rbx
   10040914e: 48 23 2b              and    rbp,QWORD PTR [rbx]
   100409151: 48 21 5d 00           and    QWORD PTR [rbp+0x0],rbx
   100409155: 48 23 ab ff ff ff 7f  and    rbp,QWORD PTR [rbx+0x7fffffff]
   10040915c: 48 21 9d ff ff ff 7f  and    QWORD PTR [rbp+0x7fffffff],rbx
   100409163: 48 21 e5              and    rbp,rsp
   100409166: 48 23 2c 24           and    rbp,QWORD PTR [rsp]
   10040916a: 48 21 65 00           and    QWORD PTR [rbp+0x0],rsp
   10040916e: 48 23 ac 24 ff ff ff 7f   and    rbp,QWORD PTR [rsp+0x7fffffff]
   100409176: 48 21 a5 ff ff ff 7f  and    QWORD PTR [rbp+0x7fffffff],rsp
   10040917d: 48 21 ed              and    rbp,rbp
   100409180: 48 23 6d 00           and    rbp,QWORD PTR [rbp+0x0]
   100409184: 48 21 6d 00           and    QWORD PTR [rbp+0x0],rbp
   100409188: 48 23 ad ff ff ff 7f  and    rbp,QWORD PTR [rbp+0x7fffffff]
   10040918f: 48 21 ad ff ff ff 7f  and    QWORD PTR [rbp+0x7fffffff],rbp
   100409196: 48 21 f5              and    rbp,rsi
   100409199: 48 23 2e              and    rbp,QWORD PTR [rsi]
   10040919c: 48 21 75 00           and    QWORD PTR [rbp+0x0],rsi
   1004091a0: 48 23 ae ff ff ff 7f  and    rbp,QWORD PTR [rsi+0x7fffffff]
   1004091a7: 48 21 b5 ff ff ff 7f  and    QWORD PTR [rbp+0x7fffffff],rsi
   1004091ae: 48 21 fd              and    rbp,rdi
   1004091b1: 48 23 2f              and    rbp,QWORD PTR [rdi]
   1004091b4: 48 21 7d 00           and    QWORD PTR [rbp+0x0],rdi
   1004091b8: 48 23 af ff ff ff 7f  and    rbp,QWORD PTR [rdi+0x7fffffff]
   1004091bf: 48 21 bd ff ff ff 7f  and    QWORD PTR [rbp+0x7fffffff],rdi
   1004091c6: 4c 21 c5              and    rbp,r8
   1004091c9: 49 23 28              and    rbp,QWORD PTR [r8]
   1004091cc: 4c 21 45 00           and    QWORD PTR [rbp+0x0],r8
   1004091d0: 49 23 a8 ff ff ff 7f  and    rbp,QWORD PTR [r8+0x7fffffff]
   1004091d7: 4c 21 85 ff ff ff 7f  and    QWORD PTR [rbp+0x7fffffff],r8
   1004091de: 4c 21 cd              and    rbp,r9
   1004091e1: 49 23 29              and    rbp,QWORD PTR [r9]
   1004091e4: 4c 21 4d 00           and    QWORD PTR [rbp+0x0],r9
   1004091e8: 49 23 a9 ff ff ff 7f  and    rbp,QWORD PTR [r9+0x7fffffff]
   1004091ef: 4c 21 8d ff ff ff 7f  and    QWORD PTR [rbp+0x7fffffff],r9
   1004091f6: 4c 21 d5              and    rbp,r10
   1004091f9: 49 23 2a              and    rbp,QWORD PTR [r10]
   1004091fc: 4c 21 55 00           and    QWORD PTR [rbp+0x0],r10
   100409200: 49 23 aa ff ff ff 7f  and    rbp,QWORD PTR [r10+0x7fffffff]
   100409207: 4c 21 95 ff ff ff 7f  and    QWORD PTR [rbp+0x7fffffff],r10
   10040920e: 4c 21 dd              and    rbp,r11
   100409211: 49 23 2b              and    rbp,QWORD PTR [r11]
   100409214: 4c 21 5d 00           and    QWORD PTR [rbp+0x0],r11
   100409218: 49 23 ab ff ff ff 7f  and    rbp,QWORD PTR [r11+0x7fffffff]
   10040921f: 4c 21 9d ff ff ff 7f  and    QWORD PTR [rbp+0x7fffffff],r11
   100409226: 4c 21 e5              and    rbp,r12
   100409229: 49 23 2c 24           and    rbp,QWORD PTR [r12]
   10040922d: 4c 21 65 00           and    QWORD PTR [rbp+0x0],r12
   100409231: 49 23 ac 24 ff ff ff 7f   and    rbp,QWORD PTR [r12+0x7fffffff]
   100409239: 4c 21 a5 ff ff ff 7f  and    QWORD PTR [rbp+0x7fffffff],r12
   100409240: 4c 21 ed              and    rbp,r13
   100409243: 49 23 6d 00           and    rbp,QWORD PTR [r13+0x0]
   100409247: 4c 21 6d 00           and    QWORD PTR [rbp+0x0],r13
   10040924b: 49 23 ad ff ff ff 7f  and    rbp,QWORD PTR [r13+0x7fffffff]
   100409252: 4c 21 ad ff ff ff 7f  and    QWORD PTR [rbp+0x7fffffff],r13
   100409259: 4c 21 f5              and    rbp,r14
   10040925c: 49 23 2e              and    rbp,QWORD PTR [r14]
   10040925f: 4c 21 75 00           and    QWORD PTR [rbp+0x0],r14
   100409263: 49 23 ae ff ff ff 7f  and    rbp,QWORD PTR [r14+0x7fffffff]
   10040926a: 4c 21 b5 ff ff ff 7f  and    QWORD PTR [rbp+0x7fffffff],r14
   100409271: 4c 21 fd              and    rbp,r15
   100409274: 49 23 2f              and    rbp,QWORD PTR [r15]
   100409277: 4c 21 7d 00           and    QWORD PTR [rbp+0x0],r15
   10040927b: 49 23 af ff ff ff 7f  and    rbp,QWORD PTR [r15+0x7fffffff]
   100409282: 4c 21 bd ff ff ff 7f  and    QWORD PTR [rbp+0x7fffffff],r15
   100409289: 48 81 e6 ff ff ff 7f  and    rsi,0x7fffffff
   100409290: 48 21 c6              and    rsi,rax
   100409293: 48 23 30              and    rsi,QWORD PTR [rax]
   100409296: 48 21 06              and    QWORD PTR [rsi],rax
   100409299: 48 23 b0 ff ff ff 7f  and    rsi,QWORD PTR [rax+0x7fffffff]
   1004092a0: 48 21 86 ff ff ff 7f  and    QWORD PTR [rsi+0x7fffffff],rax
   1004092a7: 48 21 ce              and    rsi,rcx
   1004092aa: 48 23 31              and    rsi,QWORD PTR [rcx]
   1004092ad: 48 21 0e              and    QWORD PTR [rsi],rcx
   1004092b0: 48 23 b1 ff ff ff 7f  and    rsi,QWORD PTR [rcx+0x7fffffff]
   1004092b7: 48 21 8e ff ff ff 7f  and    QWORD PTR [rsi+0x7fffffff],rcx
   1004092be: 48 21 d6              and    rsi,rdx
   1004092c1: 48 23 32              and    rsi,QWORD PTR [rdx]
   1004092c4: 48 21 16              and    QWORD PTR [rsi],rdx
   1004092c7: 48 23 b2 ff ff ff 7f  and    rsi,QWORD PTR [rdx+0x7fffffff]
   1004092ce: 48 21 96 ff ff ff 7f  and    QWORD PTR [rsi+0x7fffffff],rdx
   1004092d5: 48 21 de              and    rsi,rbx
   1004092d8: 48 23 33              and    rsi,QWORD PTR [rbx]
   1004092db: 48 21 1e              and    QWORD PTR [rsi],rbx
   1004092de: 48 23 b3 ff ff ff 7f  and    rsi,QWORD PTR [rbx+0x7fffffff]
   1004092e5: 48 21 9e ff ff ff 7f  and    QWORD PTR [rsi+0x7fffffff],rbx
   1004092ec: 48 21 e6              and    rsi,rsp
   1004092ef: 48 23 34 24           and    rsi,QWORD PTR [rsp]
   1004092f3: 48 21 26              and    QWORD PTR [rsi],rsp
   1004092f6: 48 23 b4 24 ff ff ff 7f   and    rsi,QWORD PTR [rsp+0x7fffffff]
   1004092fe: 48 21 a6 ff ff ff 7f  and    QWORD PTR [rsi+0x7fffffff],rsp
   100409305: 48 21 ee              and    rsi,rbp
   100409308: 48 23 75 00           and    rsi,QWORD PTR [rbp+0x0]
   10040930c: 48 21 2e              and    QWORD PTR [rsi],rbp
   10040930f: 48 23 b5 ff ff ff 7f  and    rsi,QWORD PTR [rbp+0x7fffffff]
   100409316: 48 21 ae ff ff ff 7f  and    QWORD PTR [rsi+0x7fffffff],rbp
   10040931d: 48 21 f6              and    rsi,rsi
   100409320: 48 23 36              and    rsi,QWORD PTR [rsi]
   100409323: 48 21 36              and    QWORD PTR [rsi],rsi
   100409326: 48 23 b6 ff ff ff 7f  and    rsi,QWORD PTR [rsi+0x7fffffff]
   10040932d: 48 21 b6 ff ff ff 7f  and    QWORD PTR [rsi+0x7fffffff],rsi
   100409334: 48 21 fe              and    rsi,rdi
   100409337: 48 23 37              and    rsi,QWORD PTR [rdi]
   10040933a: 48 21 3e              and    QWORD PTR [rsi],rdi
   10040933d: 48 23 b7 ff ff ff 7f  and    rsi,QWORD PTR [rdi+0x7fffffff]
   100409344: 48 21 be ff ff ff 7f  and    QWORD PTR [rsi+0x7fffffff],rdi
   10040934b: 4c 21 c6              and    rsi,r8
   10040934e: 49 23 30              and    rsi,QWORD PTR [r8]
   100409351: 4c 21 06              and    QWORD PTR [rsi],r8
   100409354: 49 23 b0 ff ff ff 7f  and    rsi,QWORD PTR [r8+0x7fffffff]
   10040935b: 4c 21 86 ff ff ff 7f  and    QWORD PTR [rsi+0x7fffffff],r8
   100409362: 4c 21 ce              and    rsi,r9
   100409365: 49 23 31              and    rsi,QWORD PTR [r9]
   100409368: 4c 21 0e              and    QWORD PTR [rsi],r9
   10040936b: 49 23 b1 ff ff ff 7f  and    rsi,QWORD PTR [r9+0x7fffffff]
   100409372: 4c 21 8e ff ff ff 7f  and    QWORD PTR [rsi+0x7fffffff],r9
   100409379: 4c 21 d6              and    rsi,r10
   10040937c: 49 23 32              and    rsi,QWORD PTR [r10]
   10040937f: 4c 21 16              and    QWORD PTR [rsi],r10
   100409382: 49 23 b2 ff ff ff 7f  and    rsi,QWORD PTR [r10+0x7fffffff]
   100409389: 4c 21 96 ff ff ff 7f  and    QWORD PTR [rsi+0x7fffffff],r10
   100409390: 4c 21 de              and    rsi,r11
   100409393: 49 23 33              and    rsi,QWORD PTR [r11]
   100409396: 4c 21 1e              and    QWORD PTR [rsi],r11
   100409399: 49 23 b3 ff ff ff 7f  and    rsi,QWORD PTR [r11+0x7fffffff]
   1004093a0: 4c 21 9e ff ff ff 7f  and    QWORD PTR [rsi+0x7fffffff],r11
   1004093a7: 4c 21 e6              and    rsi,r12
   1004093aa: 49 23 34 24           and    rsi,QWORD PTR [r12]
   1004093ae: 4c 21 26              and    QWORD PTR [rsi],r12
   1004093b1: 49 23 b4 24 ff ff ff 7f   and    rsi,QWORD PTR [r12+0x7fffffff]
   1004093b9: 4c 21 a6 ff ff ff 7f  and    QWORD PTR [rsi+0x7fffffff],r12
   1004093c0: 4c 21 ee              and    rsi,r13
   1004093c3: 49 23 75 00           and    rsi,QWORD PTR [r13+0x0]
   1004093c7: 4c 21 2e              and    QWORD PTR [rsi],r13
   1004093ca: 49 23 b5 ff ff ff 7f  and    rsi,QWORD PTR [r13+0x7fffffff]
   1004093d1: 4c 21 ae ff ff ff 7f  and    QWORD PTR [rsi+0x7fffffff],r13
   1004093d8: 4c 21 f6              and    rsi,r14
   1004093db: 49 23 36              and    rsi,QWORD PTR [r14]
   1004093de: 4c 21 36              and    QWORD PTR [rsi],r14
   1004093e1: 49 23 b6 ff ff ff 7f  and    rsi,QWORD PTR [r14+0x7fffffff]
   1004093e8: 4c 21 b6 ff ff ff 7f  and    QWORD PTR [rsi+0x7fffffff],r14
   1004093ef: 4c 21 fe              and    rsi,r15
   1004093f2: 49 23 37              and    rsi,QWORD PTR [r15]
   1004093f5: 4c 21 3e              and    QWORD PTR [rsi],r15
   1004093f8: 49 23 b7 ff ff ff 7f  and    rsi,QWORD PTR [r15+0x7fffffff]
   1004093ff: 4c 21 be ff ff ff 7f  and    QWORD PTR [rsi+0x7fffffff],r15
   100409406: 48 81 e7 ff ff ff 7f  and    rdi,0x7fffffff
   10040940d: 48 21 c7              and    rdi,rax
   100409410: 48 23 38              and    rdi,QWORD PTR [rax]
   100409413: 48 21 07              and    QWORD PTR [rdi],rax
   100409416: 48 23 b8 ff ff ff 7f  and    rdi,QWORD PTR [rax+0x7fffffff]
   10040941d: 48 21 87 ff ff ff 7f  and    QWORD PTR [rdi+0x7fffffff],rax
   100409424: 48 21 cf              and    rdi,rcx
   100409427: 48 23 39              and    rdi,QWORD PTR [rcx]
   10040942a: 48 21 0f              and    QWORD PTR [rdi],rcx
   10040942d: 48 23 b9 ff ff ff 7f  and    rdi,QWORD PTR [rcx+0x7fffffff]
   100409434: 48 21 8f ff ff ff 7f  and    QWORD PTR [rdi+0x7fffffff],rcx
   10040943b: 48 21 d7              and    rdi,rdx
   10040943e: 48 23 3a              and    rdi,QWORD PTR [rdx]
   100409441: 48 21 17              and    QWORD PTR [rdi],rdx
   100409444: 48 23 ba ff ff ff 7f  and    rdi,QWORD PTR [rdx+0x7fffffff]
   10040944b: 48 21 97 ff ff ff 7f  and    QWORD PTR [rdi+0x7fffffff],rdx
   100409452: 48 21 df              and    rdi,rbx
   100409455: 48 23 3b              and    rdi,QWORD PTR [rbx]
   100409458: 48 21 1f              and    QWORD PTR [rdi],rbx
   10040945b: 48 23 bb ff ff ff 7f  and    rdi,QWORD PTR [rbx+0x7fffffff]
   100409462: 48 21 9f ff ff ff 7f  and    QWORD PTR [rdi+0x7fffffff],rbx
   100409469: 48 21 e7              and    rdi,rsp
   10040946c: 48 23 3c 24           and    rdi,QWORD PTR [rsp]
   100409470: 48 21 27              and    QWORD PTR [rdi],rsp
   100409473: 48 23 bc 24 ff ff ff 7f   and    rdi,QWORD PTR [rsp+0x7fffffff]
   10040947b: 48 21 a7 ff ff ff 7f  and    QWORD PTR [rdi+0x7fffffff],rsp
   100409482: 48 21 ef              and    rdi,rbp
   100409485: 48 23 7d 00           and    rdi,QWORD PTR [rbp+0x0]
   100409489: 48 21 2f              and    QWORD PTR [rdi],rbp
   10040948c: 48 23 bd ff ff ff 7f  and    rdi,QWORD PTR [rbp+0x7fffffff]
   100409493: 48 21 af ff ff ff 7f  and    QWORD PTR [rdi+0x7fffffff],rbp
   10040949a: 48 21 f7              and    rdi,rsi
   10040949d: 48 23 3e              and    rdi,QWORD PTR [rsi]
   1004094a0: 48 21 37              and    QWORD PTR [rdi],rsi
   1004094a3: 48 23 be ff ff ff 7f  and    rdi,QWORD PTR [rsi+0x7fffffff]
   1004094aa: 48 21 b7 ff ff ff 7f  and    QWORD PTR [rdi+0x7fffffff],rsi
   1004094b1: 48 21 ff              and    rdi,rdi
   1004094b4: 48 23 3f              and    rdi,QWORD PTR [rdi]
   1004094b7: 48 21 3f              and    QWORD PTR [rdi],rdi
   1004094ba: 48 23 bf ff ff ff 7f  and    rdi,QWORD PTR [rdi+0x7fffffff]
   1004094c1: 48 21 bf ff ff ff 7f  and    QWORD PTR [rdi+0x7fffffff],rdi
   1004094c8: 4c 21 c7              and    rdi,r8
   1004094cb: 49 23 38              and    rdi,QWORD PTR [r8]
   1004094ce: 4c 21 07              and    QWORD PTR [rdi],r8
   1004094d1: 49 23 b8 ff ff ff 7f  and    rdi,QWORD PTR [r8+0x7fffffff]
   1004094d8: 4c 21 87 ff ff ff 7f  and    QWORD PTR [rdi+0x7fffffff],r8
   1004094df: 4c 21 cf              and    rdi,r9
   1004094e2: 49 23 39              and    rdi,QWORD PTR [r9]
   1004094e5: 4c 21 0f              and    QWORD PTR [rdi],r9
   1004094e8: 49 23 b9 ff ff ff 7f  and    rdi,QWORD PTR [r9+0x7fffffff]
   1004094ef: 4c 21 8f ff ff ff 7f  and    QWORD PTR [rdi+0x7fffffff],r9
   1004094f6: 4c 21 d7              and    rdi,r10
   1004094f9: 49 23 3a              and    rdi,QWORD PTR [r10]
   1004094fc: 4c 21 17              and    QWORD PTR [rdi],r10
   1004094ff: 49 23 ba ff ff ff 7f  and    rdi,QWORD PTR [r10+0x7fffffff]
   100409506: 4c 21 97 ff ff ff 7f  and    QWORD PTR [rdi+0x7fffffff],r10
   10040950d: 4c 21 df              and    rdi,r11
   100409510: 49 23 3b              and    rdi,QWORD PTR [r11]
   100409513: 4c 21 1f              and    QWORD PTR [rdi],r11
   100409516: 49 23 bb ff ff ff 7f  and    rdi,QWORD PTR [r11+0x7fffffff]
   10040951d: 4c 21 9f ff ff ff 7f  and    QWORD PTR [rdi+0x7fffffff],r11
   100409524: 4c 21 e7              and    rdi,r12
   100409527: 49 23 3c 24           and    rdi,QWORD PTR [r12]
   10040952b: 4c 21 27              and    QWORD PTR [rdi],r12
   10040952e: 49 23 bc 24 ff ff ff 7f   and    rdi,QWORD PTR [r12+0x7fffffff]
   100409536: 4c 21 a7 ff ff ff 7f  and    QWORD PTR [rdi+0x7fffffff],r12
   10040953d: 4c 21 ef              and    rdi,r13
   100409540: 49 23 7d 00           and    rdi,QWORD PTR [r13+0x0]
   100409544: 4c 21 2f              and    QWORD PTR [rdi],r13
   100409547: 49 23 bd ff ff ff 7f  and    rdi,QWORD PTR [r13+0x7fffffff]
   10040954e: 4c 21 af ff ff ff 7f  and    QWORD PTR [rdi+0x7fffffff],r13
   100409555: 4c 21 f7              and    rdi,r14
   100409558: 49 23 3e              and    rdi,QWORD PTR [r14]
   10040955b: 4c 21 37              and    QWORD PTR [rdi],r14
   10040955e: 49 23 be ff ff ff 7f  and    rdi,QWORD PTR [r14+0x7fffffff]
   100409565: 4c 21 b7 ff ff ff 7f  and    QWORD PTR [rdi+0x7fffffff],r14
   10040956c: 4c 21 ff              and    rdi,r15
   10040956f: 49 23 3f              and    rdi,QWORD PTR [r15]
   100409572: 4c 21 3f              and    QWORD PTR [rdi],r15
   100409575: 49 23 bf ff ff ff 7f  and    rdi,QWORD PTR [r15+0x7fffffff]
   10040957c: 4c 21 bf ff ff ff 7f  and    QWORD PTR [rdi+0x7fffffff],r15
   100409583: 49 81 e0 ff ff ff 7f  and    r8,0x7fffffff
   10040958a: 49 21 c0              and    r8,rax
   10040958d: 4c 23 00              and    r8,QWORD PTR [rax]
   100409590: 49 21 00              and    QWORD PTR [r8],rax
   100409593: 4c 23 80 ff ff ff 7f  and    r8,QWORD PTR [rax+0x7fffffff]
   10040959a: 49 21 80 ff ff ff 7f  and    QWORD PTR [r8+0x7fffffff],rax
   1004095a1: 49 21 c8              and    r8,rcx
   1004095a4: 4c 23 01              and    r8,QWORD PTR [rcx]
   1004095a7: 49 21 08              and    QWORD PTR [r8],rcx
   1004095aa: 4c 23 81 ff ff ff 7f  and    r8,QWORD PTR [rcx+0x7fffffff]
   1004095b1: 49 21 88 ff ff ff 7f  and    QWORD PTR [r8+0x7fffffff],rcx
   1004095b8: 49 21 d0              and    r8,rdx
   1004095bb: 4c 23 02              and    r8,QWORD PTR [rdx]
   1004095be: 49 21 10              and    QWORD PTR [r8],rdx
   1004095c1: 4c 23 82 ff ff ff 7f  and    r8,QWORD PTR [rdx+0x7fffffff]
   1004095c8: 49 21 90 ff ff ff 7f  and    QWORD PTR [r8+0x7fffffff],rdx
   1004095cf: 49 21 d8              and    r8,rbx
   1004095d2: 4c 23 03              and    r8,QWORD PTR [rbx]
   1004095d5: 49 21 18              and    QWORD PTR [r8],rbx
   1004095d8: 4c 23 83 ff ff ff 7f  and    r8,QWORD PTR [rbx+0x7fffffff]
   1004095df: 49 21 98 ff ff ff 7f  and    QWORD PTR [r8+0x7fffffff],rbx
   1004095e6: 49 21 e0              and    r8,rsp
   1004095e9: 4c 23 04 24           and    r8,QWORD PTR [rsp]
   1004095ed: 49 21 20              and    QWORD PTR [r8],rsp
   1004095f0: 4c 23 84 24 ff ff ff 7f   and    r8,QWORD PTR [rsp+0x7fffffff]
   1004095f8: 49 21 a0 ff ff ff 7f  and    QWORD PTR [r8+0x7fffffff],rsp
   1004095ff: 49 21 e8              and    r8,rbp
   100409602: 4c 23 45 00           and    r8,QWORD PTR [rbp+0x0]
   100409606: 49 21 28              and    QWORD PTR [r8],rbp
   100409609: 4c 23 85 ff ff ff 7f  and    r8,QWORD PTR [rbp+0x7fffffff]
   100409610: 49 21 a8 ff ff ff 7f  and    QWORD PTR [r8+0x7fffffff],rbp
   100409617: 49 21 f0              and    r8,rsi
   10040961a: 4c 23 06              and    r8,QWORD PTR [rsi]
   10040961d: 49 21 30              and    QWORD PTR [r8],rsi
   100409620: 4c 23 86 ff ff ff 7f  and    r8,QWORD PTR [rsi+0x7fffffff]
   100409627: 49 21 b0 ff ff ff 7f  and    QWORD PTR [r8+0x7fffffff],rsi
   10040962e: 49 21 f8              and    r8,rdi
   100409631: 4c 23 07              and    r8,QWORD PTR [rdi]
   100409634: 49 21 38              and    QWORD PTR [r8],rdi
   100409637: 4c 23 87 ff ff ff 7f  and    r8,QWORD PTR [rdi+0x7fffffff]
   10040963e: 49 21 b8 ff ff ff 7f  and    QWORD PTR [r8+0x7fffffff],rdi
   100409645: 4d 21 c0              and    r8,r8
   100409648: 4d 23 00              and    r8,QWORD PTR [r8]
   10040964b: 4d 21 00              and    QWORD PTR [r8],r8
   10040964e: 4d 23 80 ff ff ff 7f  and    r8,QWORD PTR [r8+0x7fffffff]
   100409655: 4d 21 80 ff ff ff 7f  and    QWORD PTR [r8+0x7fffffff],r8
   10040965c: 4d 21 c8              and    r8,r9
   10040965f: 4d 23 01              and    r8,QWORD PTR [r9]
   100409662: 4d 21 08              and    QWORD PTR [r8],r9
   100409665: 4d 23 81 ff ff ff 7f  and    r8,QWORD PTR [r9+0x7fffffff]
   10040966c: 4d 21 88 ff ff ff 7f  and    QWORD PTR [r8+0x7fffffff],r9
   100409673: 4d 21 d0              and    r8,r10
   100409676: 4d 23 02              and    r8,QWORD PTR [r10]
   100409679: 4d 21 10              and    QWORD PTR [r8],r10
   10040967c: 4d 23 82 ff ff ff 7f  and    r8,QWORD PTR [r10+0x7fffffff]
   100409683: 4d 21 90 ff ff ff 7f  and    QWORD PTR [r8+0x7fffffff],r10
   10040968a: 4d 21 d8              and    r8,r11
   10040968d: 4d 23 03              and    r8,QWORD PTR [r11]
   100409690: 4d 21 18              and    QWORD PTR [r8],r11
   100409693: 4d 23 83 ff ff ff 7f  and    r8,QWORD PTR [r11+0x7fffffff]
   10040969a: 4d 21 98 ff ff ff 7f  and    QWORD PTR [r8+0x7fffffff],r11
   1004096a1: 4d 21 e0              and    r8,r12
   1004096a4: 4d 23 04 24           and    r8,QWORD PTR [r12]
   1004096a8: 4d 21 20              and    QWORD PTR [r8],r12
   1004096ab: 4d 23 84 24 ff ff ff 7f   and    r8,QWORD PTR [r12+0x7fffffff]
   1004096b3: 4d 21 a0 ff ff ff 7f  and    QWORD PTR [r8+0x7fffffff],r12
   1004096ba: 4d 21 e8              and    r8,r13
   1004096bd: 4d 23 45 00           and    r8,QWORD PTR [r13+0x0]
   1004096c1: 4d 21 28              and    QWORD PTR [r8],r13
   1004096c4: 4d 23 85 ff ff ff 7f  and    r8,QWORD PTR [r13+0x7fffffff]
   1004096cb: 4d 21 a8 ff ff ff 7f  and    QWORD PTR [r8+0x7fffffff],r13
   1004096d2: 4d 21 f0              and    r8,r14
   1004096d5: 4d 23 06              and    r8,QWORD PTR [r14]
   1004096d8: 4d 21 30              and    QWORD PTR [r8],r14
   1004096db: 4d 23 86 ff ff ff 7f  and    r8,QWORD PTR [r14+0x7fffffff]
   1004096e2: 4d 21 b0 ff ff ff 7f  and    QWORD PTR [r8+0x7fffffff],r14
   1004096e9: 4d 21 f8              and    r8,r15
   1004096ec: 4d 23 07              and    r8,QWORD PTR [r15]
   1004096ef: 4d 21 38              and    QWORD PTR [r8],r15
   1004096f2: 4d 23 87 ff ff ff 7f  and    r8,QWORD PTR [r15+0x7fffffff]
   1004096f9: 4d 21 b8 ff ff ff 7f  and    QWORD PTR [r8+0x7fffffff],r15
   100409700: 49 81 e1 ff ff ff 7f  and    r9,0x7fffffff
   100409707: 49 21 c1              and    r9,rax
   10040970a: 4c 23 08              and    r9,QWORD PTR [rax]
   10040970d: 49 21 01              and    QWORD PTR [r9],rax
   100409710: 4c 23 88 ff ff ff 7f  and    r9,QWORD PTR [rax+0x7fffffff]
   100409717: 49 21 81 ff ff ff 7f  and    QWORD PTR [r9+0x7fffffff],rax
   10040971e: 49 21 c9              and    r9,rcx
   100409721: 4c 23 09              and    r9,QWORD PTR [rcx]
   100409724: 49 21 09              and    QWORD PTR [r9],rcx
   100409727: 4c 23 89 ff ff ff 7f  and    r9,QWORD PTR [rcx+0x7fffffff]
   10040972e: 49 21 89 ff ff ff 7f  and    QWORD PTR [r9+0x7fffffff],rcx
   100409735: 49 21 d1              and    r9,rdx
   100409738: 4c 23 0a              and    r9,QWORD PTR [rdx]
   10040973b: 49 21 11              and    QWORD PTR [r9],rdx
   10040973e: 4c 23 8a ff ff ff 7f  and    r9,QWORD PTR [rdx+0x7fffffff]
   100409745: 49 21 91 ff ff ff 7f  and    QWORD PTR [r9+0x7fffffff],rdx
   10040974c: 49 21 d9              and    r9,rbx
   10040974f: 4c 23 0b              and    r9,QWORD PTR [rbx]
   100409752: 49 21 19              and    QWORD PTR [r9],rbx
   100409755: 4c 23 8b ff ff ff 7f  and    r9,QWORD PTR [rbx+0x7fffffff]
   10040975c: 49 21 99 ff ff ff 7f  and    QWORD PTR [r9+0x7fffffff],rbx
   100409763: 49 21 e1              and    r9,rsp
   100409766: 4c 23 0c 24           and    r9,QWORD PTR [rsp]
   10040976a: 49 21 21              and    QWORD PTR [r9],rsp
   10040976d: 4c 23 8c 24 ff ff ff 7f   and    r9,QWORD PTR [rsp+0x7fffffff]
   100409775: 49 21 a1 ff ff ff 7f  and    QWORD PTR [r9+0x7fffffff],rsp
   10040977c: 49 21 e9              and    r9,rbp
   10040977f: 4c 23 4d 00           and    r9,QWORD PTR [rbp+0x0]
   100409783: 49 21 29              and    QWORD PTR [r9],rbp
   100409786: 4c 23 8d ff ff ff 7f  and    r9,QWORD PTR [rbp+0x7fffffff]
   10040978d: 49 21 a9 ff ff ff 7f  and    QWORD PTR [r9+0x7fffffff],rbp
   100409794: 49 21 f1              and    r9,rsi
   100409797: 4c 23 0e              and    r9,QWORD PTR [rsi]
   10040979a: 49 21 31              and    QWORD PTR [r9],rsi
   10040979d: 4c 23 8e ff ff ff 7f  and    r9,QWORD PTR [rsi+0x7fffffff]
   1004097a4: 49 21 b1 ff ff ff 7f  and    QWORD PTR [r9+0x7fffffff],rsi
   1004097ab: 49 21 f9              and    r9,rdi
   1004097ae: 4c 23 0f              and    r9,QWORD PTR [rdi]
   1004097b1: 49 21 39              and    QWORD PTR [r9],rdi
   1004097b4: 4c 23 8f ff ff ff 7f  and    r9,QWORD PTR [rdi+0x7fffffff]
   1004097bb: 49 21 b9 ff ff ff 7f  and    QWORD PTR [r9+0x7fffffff],rdi
   1004097c2: 4d 21 c1              and    r9,r8
   1004097c5: 4d 23 08              and    r9,QWORD PTR [r8]
   1004097c8: 4d 21 01              and    QWORD PTR [r9],r8
   1004097cb: 4d 23 88 ff ff ff 7f  and    r9,QWORD PTR [r8+0x7fffffff]
   1004097d2: 4d 21 81 ff ff ff 7f  and    QWORD PTR [r9+0x7fffffff],r8
   1004097d9: 4d 21 c9              and    r9,r9
   1004097dc: 4d 23 09              and    r9,QWORD PTR [r9]
   1004097df: 4d 21 09              and    QWORD PTR [r9],r9
   1004097e2: 4d 23 89 ff ff ff 7f  and    r9,QWORD PTR [r9+0x7fffffff]
   1004097e9: 4d 21 89 ff ff ff 7f  and    QWORD PTR [r9+0x7fffffff],r9
   1004097f0: 4d 21 d1              and    r9,r10
   1004097f3: 4d 23 0a              and    r9,QWORD PTR [r10]
   1004097f6: 4d 21 11              and    QWORD PTR [r9],r10
   1004097f9: 4d 23 8a ff ff ff 7f  and    r9,QWORD PTR [r10+0x7fffffff]
   100409800: 4d 21 91 ff ff ff 7f  and    QWORD PTR [r9+0x7fffffff],r10
   100409807: 4d 21 d9              and    r9,r11
   10040980a: 4d 23 0b              and    r9,QWORD PTR [r11]
   10040980d: 4d 21 19              and    QWORD PTR [r9],r11
   100409810: 4d 23 8b ff ff ff 7f  and    r9,QWORD PTR [r11+0x7fffffff]
   100409817: 4d 21 99 ff ff ff 7f  and    QWORD PTR [r9+0x7fffffff],r11
   10040981e: 4d 21 e1              and    r9,r12
   100409821: 4d 23 0c 24           and    r9,QWORD PTR [r12]
   100409825: 4d 21 21              and    QWORD PTR [r9],r12
   100409828: 4d 23 8c 24 ff ff ff 7f   and    r9,QWORD PTR [r12+0x7fffffff]
   100409830: 4d 21 a1 ff ff ff 7f  and    QWORD PTR [r9+0x7fffffff],r12
   100409837: 4d 21 e9              and    r9,r13
   10040983a: 4d 23 4d 00           and    r9,QWORD PTR [r13+0x0]
   10040983e: 4d 21 29              and    QWORD PTR [r9],r13
   100409841: 4d 23 8d ff ff ff 7f  and    r9,QWORD PTR [r13+0x7fffffff]
   100409848: 4d 21 a9 ff ff ff 7f  and    QWORD PTR [r9+0x7fffffff],r13
   10040984f: 4d 21 f1              and    r9,r14
   100409852: 4d 23 0e              and    r9,QWORD PTR [r14]
   100409855: 4d 21 31              and    QWORD PTR [r9],r14
   100409858: 4d 23 8e ff ff ff 7f  and    r9,QWORD PTR [r14+0x7fffffff]
   10040985f: 4d 21 b1 ff ff ff 7f  and    QWORD PTR [r9+0x7fffffff],r14
   100409866: 4d 21 f9              and    r9,r15
   100409869: 4d 23 0f              and    r9,QWORD PTR [r15]
   10040986c: 4d 21 39              and    QWORD PTR [r9],r15
   10040986f: 4d 23 8f ff ff ff 7f  and    r9,QWORD PTR [r15+0x7fffffff]
   100409876: 4d 21 b9 ff ff ff 7f  and    QWORD PTR [r9+0x7fffffff],r15
   10040987d: 49 81 e2 ff ff ff 7f  and    r10,0x7fffffff
   100409884: 49 21 c2              and    r10,rax
   100409887: 4c 23 10              and    r10,QWORD PTR [rax]
   10040988a: 49 21 02              and    QWORD PTR [r10],rax
   10040988d: 4c 23 90 ff ff ff 7f  and    r10,QWORD PTR [rax+0x7fffffff]
   100409894: 49 21 82 ff ff ff 7f  and    QWORD PTR [r10+0x7fffffff],rax
   10040989b: 49 21 ca              and    r10,rcx
   10040989e: 4c 23 11              and    r10,QWORD PTR [rcx]
   1004098a1: 49 21 0a              and    QWORD PTR [r10],rcx
   1004098a4: 4c 23 91 ff ff ff 7f  and    r10,QWORD PTR [rcx+0x7fffffff]
   1004098ab: 49 21 8a ff ff ff 7f  and    QWORD PTR [r10+0x7fffffff],rcx
   1004098b2: 49 21 d2              and    r10,rdx
   1004098b5: 4c 23 12              and    r10,QWORD PTR [rdx]
   1004098b8: 49 21 12              and    QWORD PTR [r10],rdx
   1004098bb: 4c 23 92 ff ff ff 7f  and    r10,QWORD PTR [rdx+0x7fffffff]
   1004098c2: 49 21 92 ff ff ff 7f  and    QWORD PTR [r10+0x7fffffff],rdx
   1004098c9: 49 21 da              and    r10,rbx
   1004098cc: 4c 23 13              and    r10,QWORD PTR [rbx]
   1004098cf: 49 21 1a              and    QWORD PTR [r10],rbx
   1004098d2: 4c 23 93 ff ff ff 7f  and    r10,QWORD PTR [rbx+0x7fffffff]
   1004098d9: 49 21 9a ff ff ff 7f  and    QWORD PTR [r10+0x7fffffff],rbx
   1004098e0: 49 21 e2              and    r10,rsp
   1004098e3: 4c 23 14 24           and    r10,QWORD PTR [rsp]
   1004098e7: 49 21 22              and    QWORD PTR [r10],rsp
   1004098ea: 4c 23 94 24 ff ff ff 7f   and    r10,QWORD PTR [rsp+0x7fffffff]
   1004098f2: 49 21 a2 ff ff ff 7f  and    QWORD PTR [r10+0x7fffffff],rsp
   1004098f9: 49 21 ea              and    r10,rbp
   1004098fc: 4c 23 55 00           and    r10,QWORD PTR [rbp+0x0]
   100409900: 49 21 2a              and    QWORD PTR [r10],rbp
   100409903: 4c 23 95 ff ff ff 7f  and    r10,QWORD PTR [rbp+0x7fffffff]
   10040990a: 49 21 aa ff ff ff 7f  and    QWORD PTR [r10+0x7fffffff],rbp
   100409911: 49 21 f2              and    r10,rsi
   100409914: 4c 23 16              and    r10,QWORD PTR [rsi]
   100409917: 49 21 32              and    QWORD PTR [r10],rsi
   10040991a: 4c 23 96 ff ff ff 7f  and    r10,QWORD PTR [rsi+0x7fffffff]
   100409921: 49 21 b2 ff ff ff 7f  and    QWORD PTR [r10+0x7fffffff],rsi
   100409928: 49 21 fa              and    r10,rdi
   10040992b: 4c 23 17              and    r10,QWORD PTR [rdi]
   10040992e: 49 21 3a              and    QWORD PTR [r10],rdi
   100409931: 4c 23 97 ff ff ff 7f  and    r10,QWORD PTR [rdi+0x7fffffff]
   100409938: 49 21 ba ff ff ff 7f  and    QWORD PTR [r10+0x7fffffff],rdi
   10040993f: 4d 21 c2              and    r10,r8
   100409942: 4d 23 10              and    r10,QWORD PTR [r8]
   100409945: 4d 21 02              and    QWORD PTR [r10],r8
   100409948: 4d 23 90 ff ff ff 7f  and    r10,QWORD PTR [r8+0x7fffffff]
   10040994f: 4d 21 82 ff ff ff 7f  and    QWORD PTR [r10+0x7fffffff],r8
   100409956: 4d 21 ca              and    r10,r9
   100409959: 4d 23 11              and    r10,QWORD PTR [r9]
   10040995c: 4d 21 0a              and    QWORD PTR [r10],r9
   10040995f: 4d 23 91 ff ff ff 7f  and    r10,QWORD PTR [r9+0x7fffffff]
   100409966: 4d 21 8a ff ff ff 7f  and    QWORD PTR [r10+0x7fffffff],r9
   10040996d: 4d 21 d2              and    r10,r10
   100409970: 4d 23 12              and    r10,QWORD PTR [r10]
   100409973: 4d 21 12              and    QWORD PTR [r10],r10
   100409976: 4d 23 92 ff ff ff 7f  and    r10,QWORD PTR [r10+0x7fffffff]
   10040997d: 4d 21 92 ff ff ff 7f  and    QWORD PTR [r10+0x7fffffff],r10
   100409984: 4d 21 da              and    r10,r11
   100409987: 4d 23 13              and    r10,QWORD PTR [r11]
   10040998a: 4d 21 1a              and    QWORD PTR [r10],r11
   10040998d: 4d 23 93 ff ff ff 7f  and    r10,QWORD PTR [r11+0x7fffffff]
   100409994: 4d 21 9a ff ff ff 7f  and    QWORD PTR [r10+0x7fffffff],r11
   10040999b: 4d 21 e2              and    r10,r12
   10040999e: 4d 23 14 24           and    r10,QWORD PTR [r12]
   1004099a2: 4d 21 22              and    QWORD PTR [r10],r12
   1004099a5: 4d 23 94 24 ff ff ff 7f   and    r10,QWORD PTR [r12+0x7fffffff]
   1004099ad: 4d 21 a2 ff ff ff 7f  and    QWORD PTR [r10+0x7fffffff],r12
   1004099b4: 4d 21 ea              and    r10,r13
   1004099b7: 4d 23 55 00           and    r10,QWORD PTR [r13+0x0]
   1004099bb: 4d 21 2a              and    QWORD PTR [r10],r13
   1004099be: 4d 23 95 ff ff ff 7f  and    r10,QWORD PTR [r13+0x7fffffff]
   1004099c5: 4d 21 aa ff ff ff 7f  and    QWORD PTR [r10+0x7fffffff],r13
   1004099cc: 4d 21 f2              and    r10,r14
   1004099cf: 4d 23 16              and    r10,QWORD PTR [r14]
   1004099d2: 4d 21 32              and    QWORD PTR [r10],r14
   1004099d5: 4d 23 96 ff ff ff 7f  and    r10,QWORD PTR [r14+0x7fffffff]
   1004099dc: 4d 21 b2 ff ff ff 7f  and    QWORD PTR [r10+0x7fffffff],r14
   1004099e3: 4d 21 fa              and    r10,r15
   1004099e6: 4d 23 17              and    r10,QWORD PTR [r15]
   1004099e9: 4d 21 3a              and    QWORD PTR [r10],r15
   1004099ec: 4d 23 97 ff ff ff 7f  and    r10,QWORD PTR [r15+0x7fffffff]
   1004099f3: 4d 21 ba ff ff ff 7f  and    QWORD PTR [r10+0x7fffffff],r15
   1004099fa: 49 81 e3 ff ff ff 7f  and    r11,0x7fffffff
   100409a01: 49 21 c3              and    r11,rax
   100409a04: 4c 23 18              and    r11,QWORD PTR [rax]
   100409a07: 49 21 03              and    QWORD PTR [r11],rax
   100409a0a: 4c 23 98 ff ff ff 7f  and    r11,QWORD PTR [rax+0x7fffffff]
   100409a11: 49 21 83 ff ff ff 7f  and    QWORD PTR [r11+0x7fffffff],rax
   100409a18: 49 21 cb              and    r11,rcx
   100409a1b: 4c 23 19              and    r11,QWORD PTR [rcx]
   100409a1e: 49 21 0b              and    QWORD PTR [r11],rcx
   100409a21: 4c 23 99 ff ff ff 7f  and    r11,QWORD PTR [rcx+0x7fffffff]
   100409a28: 49 21 8b ff ff ff 7f  and    QWORD PTR [r11+0x7fffffff],rcx
   100409a2f: 49 21 d3              and    r11,rdx
   100409a32: 4c 23 1a              and    r11,QWORD PTR [rdx]
   100409a35: 49 21 13              and    QWORD PTR [r11],rdx
   100409a38: 4c 23 9a ff ff ff 7f  and    r11,QWORD PTR [rdx+0x7fffffff]
   100409a3f: 49 21 93 ff ff ff 7f  and    QWORD PTR [r11+0x7fffffff],rdx
   100409a46: 49 21 db              and    r11,rbx
   100409a49: 4c 23 1b              and    r11,QWORD PTR [rbx]
   100409a4c: 49 21 1b              and    QWORD PTR [r11],rbx
   100409a4f: 4c 23 9b ff ff ff 7f  and    r11,QWORD PTR [rbx+0x7fffffff]
   100409a56: 49 21 9b ff ff ff 7f  and    QWORD PTR [r11+0x7fffffff],rbx
   100409a5d: 49 21 e3              and    r11,rsp
   100409a60: 4c 23 1c 24           and    r11,QWORD PTR [rsp]
   100409a64: 49 21 23              and    QWORD PTR [r11],rsp
   100409a67: 4c 23 9c 24 ff ff ff 7f   and    r11,QWORD PTR [rsp+0x7fffffff]
   100409a6f: 49 21 a3 ff ff ff 7f  and    QWORD PTR [r11+0x7fffffff],rsp
   100409a76: 49 21 eb              and    r11,rbp
   100409a79: 4c 23 5d 00           and    r11,QWORD PTR [rbp+0x0]
   100409a7d: 49 21 2b              and    QWORD PTR [r11],rbp
   100409a80: 4c 23 9d ff ff ff 7f  and    r11,QWORD PTR [rbp+0x7fffffff]
   100409a87: 49 21 ab ff ff ff 7f  and    QWORD PTR [r11+0x7fffffff],rbp
   100409a8e: 49 21 f3              and    r11,rsi
   100409a91: 4c 23 1e              and    r11,QWORD PTR [rsi]
   100409a94: 49 21 33              and    QWORD PTR [r11],rsi
   100409a97: 4c 23 9e ff ff ff 7f  and    r11,QWORD PTR [rsi+0x7fffffff]
   100409a9e: 49 21 b3 ff ff ff 7f  and    QWORD PTR [r11+0x7fffffff],rsi
   100409aa5: 49 21 fb              and    r11,rdi
   100409aa8: 4c 23 1f              and    r11,QWORD PTR [rdi]
   100409aab: 49 21 3b              and    QWORD PTR [r11],rdi
   100409aae: 4c 23 9f ff ff ff 7f  and    r11,QWORD PTR [rdi+0x7fffffff]
   100409ab5: 49 21 bb ff ff ff 7f  and    QWORD PTR [r11+0x7fffffff],rdi
   100409abc: 4d 21 c3              and    r11,r8
   100409abf: 4d 23 18              and    r11,QWORD PTR [r8]
   100409ac2: 4d 21 03              and    QWORD PTR [r11],r8
   100409ac5: 4d 23 98 ff ff ff 7f  and    r11,QWORD PTR [r8+0x7fffffff]
   100409acc: 4d 21 83 ff ff ff 7f  and    QWORD PTR [r11+0x7fffffff],r8
   100409ad3: 4d 21 cb              and    r11,r9
   100409ad6: 4d 23 19              and    r11,QWORD PTR [r9]
   100409ad9: 4d 21 0b              and    QWORD PTR [r11],r9
   100409adc: 4d 23 99 ff ff ff 7f  and    r11,QWORD PTR [r9+0x7fffffff]
   100409ae3: 4d 21 8b ff ff ff 7f  and    QWORD PTR [r11+0x7fffffff],r9
   100409aea: 4d 21 d3              and    r11,r10
   100409aed: 4d 23 1a              and    r11,QWORD PTR [r10]
   100409af0: 4d 21 13              and    QWORD PTR [r11],r10
   100409af3: 4d 23 9a ff ff ff 7f  and    r11,QWORD PTR [r10+0x7fffffff]
   100409afa: 4d 21 93 ff ff ff 7f  and    QWORD PTR [r11+0x7fffffff],r10
   100409b01: 4d 21 db              and    r11,r11
   100409b04: 4d 23 1b              and    r11,QWORD PTR [r11]
   100409b07: 4d 21 1b              and    QWORD PTR [r11],r11
   100409b0a: 4d 23 9b ff ff ff 7f  and    r11,QWORD PTR [r11+0x7fffffff]
   100409b11: 4d 21 9b ff ff ff 7f  and    QWORD PTR [r11+0x7fffffff],r11
   100409b18: 4d 21 e3              and    r11,r12
   100409b1b: 4d 23 1c 24           and    r11,QWORD PTR [r12]
   100409b1f: 4d 21 23              and    QWORD PTR [r11],r12
   100409b22: 4d 23 9c 24 ff ff ff 7f   and    r11,QWORD PTR [r12+0x7fffffff]
   100409b2a: 4d 21 a3 ff ff ff 7f  and    QWORD PTR [r11+0x7fffffff],r12
   100409b31: 4d 21 eb              and    r11,r13
   100409b34: 4d 23 5d 00           and    r11,QWORD PTR [r13+0x0]
   100409b38: 4d 21 2b              and    QWORD PTR [r11],r13
   100409b3b: 4d 23 9d ff ff ff 7f  and    r11,QWORD PTR [r13+0x7fffffff]
   100409b42: 4d 21 ab ff ff ff 7f  and    QWORD PTR [r11+0x7fffffff],r13
   100409b49: 4d 21 f3              and    r11,r14
   100409b4c: 4d 23 1e              and    r11,QWORD PTR [r14]
   100409b4f: 4d 21 33              and    QWORD PTR [r11],r14
   100409b52: 4d 23 9e ff ff ff 7f  and    r11,QWORD PTR [r14+0x7fffffff]
   100409b59: 4d 21 b3 ff ff ff 7f  and    QWORD PTR [r11+0x7fffffff],r14
   100409b60: 4d 21 fb              and    r11,r15
   100409b63: 4d 23 1f              and    r11,QWORD PTR [r15]
   100409b66: 4d 21 3b              and    QWORD PTR [r11],r15
   100409b69: 4d 23 9f ff ff ff 7f  and    r11,QWORD PTR [r15+0x7fffffff]
   100409b70: 4d 21 bb ff ff ff 7f  and    QWORD PTR [r11+0x7fffffff],r15
   100409b77: 49 81 e4 ff ff ff 7f  and    r12,0x7fffffff
   100409b7e: 49 21 c4              and    r12,rax
   100409b81: 4c 23 20              and    r12,QWORD PTR [rax]
   100409b84: 49 21 04 24           and    QWORD PTR [r12],rax
   100409b88: 4c 23 a0 ff ff ff 7f  and    r12,QWORD PTR [rax+0x7fffffff]
   100409b8f: 49 21 84 24 ff ff ff 7f   and    QWORD PTR [r12+0x7fffffff],rax
   100409b97: 49 21 cc              and    r12,rcx
   100409b9a: 4c 23 21              and    r12,QWORD PTR [rcx]
   100409b9d: 49 21 0c 24           and    QWORD PTR [r12],rcx
   100409ba1: 4c 23 a1 ff ff ff 7f  and    r12,QWORD PTR [rcx+0x7fffffff]
   100409ba8: 49 21 8c 24 ff ff ff 7f   and    QWORD PTR [r12+0x7fffffff],rcx
   100409bb0: 49 21 d4              and    r12,rdx
   100409bb3: 4c 23 22              and    r12,QWORD PTR [rdx]
   100409bb6: 49 21 14 24           and    QWORD PTR [r12],rdx
   100409bba: 4c 23 a2 ff ff ff 7f  and    r12,QWORD PTR [rdx+0x7fffffff]
   100409bc1: 49 21 94 24 ff ff ff 7f   and    QWORD PTR [r12+0x7fffffff],rdx
   100409bc9: 49 21 dc              and    r12,rbx
   100409bcc: 4c 23 23              and    r12,QWORD PTR [rbx]
   100409bcf: 49 21 1c 24           and    QWORD PTR [r12],rbx
   100409bd3: 4c 23 a3 ff ff ff 7f  and    r12,QWORD PTR [rbx+0x7fffffff]
   100409bda: 49 21 9c 24 ff ff ff 7f   and    QWORD PTR [r12+0x7fffffff],rbx
   100409be2: 49 21 e4              and    r12,rsp
   100409be5: 4c 23 24 24           and    r12,QWORD PTR [rsp]
   100409be9: 49 21 24 24           and    QWORD PTR [r12],rsp
   100409bed: 4c 23 a4 24 ff ff ff 7f   and    r12,QWORD PTR [rsp+0x7fffffff]
   100409bf5: 49 21 a4 24 ff ff ff 7f   and    QWORD PTR [r12+0x7fffffff],rsp
   100409bfd: 49 21 ec              and    r12,rbp
   100409c00: 4c 23 65 00           and    r12,QWORD PTR [rbp+0x0]
   100409c04: 49 21 2c 24           and    QWORD PTR [r12],rbp
   100409c08: 4c 23 a5 ff ff ff 7f  and    r12,QWORD PTR [rbp+0x7fffffff]
   100409c0f: 49 21 ac 24 ff ff ff 7f   and    QWORD PTR [r12+0x7fffffff],rbp
   100409c17: 49 21 f4              and    r12,rsi
   100409c1a: 4c 23 26              and    r12,QWORD PTR [rsi]
   100409c1d: 49 21 34 24           and    QWORD PTR [r12],rsi
   100409c21: 4c 23 a6 ff ff ff 7f  and    r12,QWORD PTR [rsi+0x7fffffff]
   100409c28: 49 21 b4 24 ff ff ff 7f   and    QWORD PTR [r12+0x7fffffff],rsi
   100409c30: 49 21 fc              and    r12,rdi
   100409c33: 4c 23 27              and    r12,QWORD PTR [rdi]
   100409c36: 49 21 3c 24           and    QWORD PTR [r12],rdi
   100409c3a: 4c 23 a7 ff ff ff 7f  and    r12,QWORD PTR [rdi+0x7fffffff]
   100409c41: 49 21 bc 24 ff ff ff 7f   and    QWORD PTR [r12+0x7fffffff],rdi
   100409c49: 4d 21 c4              and    r12,r8
   100409c4c: 4d 23 20              and    r12,QWORD PTR [r8]
   100409c4f: 4d 21 04 24           and    QWORD PTR [r12],r8
   100409c53: 4d 23 a0 ff ff ff 7f  and    r12,QWORD PTR [r8+0x7fffffff]
   100409c5a: 4d 21 84 24 ff ff ff 7f   and    QWORD PTR [r12+0x7fffffff],r8
   100409c62: 4d 21 cc              and    r12,r9
   100409c65: 4d 23 21              and    r12,QWORD PTR [r9]
   100409c68: 4d 21 0c 24           and    QWORD PTR [r12],r9
   100409c6c: 4d 23 a1 ff ff ff 7f  and    r12,QWORD PTR [r9+0x7fffffff]
   100409c73: 4d 21 8c 24 ff ff ff 7f   and    QWORD PTR [r12+0x7fffffff],r9
   100409c7b: 4d 21 d4              and    r12,r10
   100409c7e: 4d 23 22              and    r12,QWORD PTR [r10]
   100409c81: 4d 21 14 24           and    QWORD PTR [r12],r10
   100409c85: 4d 23 a2 ff ff ff 7f  and    r12,QWORD PTR [r10+0x7fffffff]
   100409c8c: 4d 21 94 24 ff ff ff 7f   and    QWORD PTR [r12+0x7fffffff],r10
   100409c94: 4d 21 dc              and    r12,r11
   100409c97: 4d 23 23              and    r12,QWORD PTR [r11]
   100409c9a: 4d 21 1c 24           and    QWORD PTR [r12],r11
   100409c9e: 4d 23 a3 ff ff ff 7f  and    r12,QWORD PTR [r11+0x7fffffff]
   100409ca5: 4d 21 9c 24 ff ff ff 7f   and    QWORD PTR [r12+0x7fffffff],r11
   100409cad: 4d 21 e4              and    r12,r12
   100409cb0: 4d 23 24 24           and    r12,QWORD PTR [r12]
   100409cb4: 4d 21 24 24           and    QWORD PTR [r12],r12
   100409cb8: 4d 23 a4 24 ff ff ff 7f   and    r12,QWORD PTR [r12+0x7fffffff]
   100409cc0: 4d 21 a4 24 ff ff ff 7f   and    QWORD PTR [r12+0x7fffffff],r12
   100409cc8: 4d 21 ec              and    r12,r13
   100409ccb: 4d 23 65 00           and    r12,QWORD PTR [r13+0x0]
   100409ccf: 4d 21 2c 24           and    QWORD PTR [r12],r13
   100409cd3: 4d 23 a5 ff ff ff 7f  and    r12,QWORD PTR [r13+0x7fffffff]
   100409cda: 4d 21 ac 24 ff ff ff 7f   and    QWORD PTR [r12+0x7fffffff],r13
   100409ce2: 4d 21 f4              and    r12,r14
   100409ce5: 4d 23 26              and    r12,QWORD PTR [r14]
   100409ce8: 4d 21 34 24           and    QWORD PTR [r12],r14
   100409cec: 4d 23 a6 ff ff ff 7f  and    r12,QWORD PTR [r14+0x7fffffff]
   100409cf3: 4d 21 b4 24 ff ff ff 7f   and    QWORD PTR [r12+0x7fffffff],r14
   100409cfb: 4d 21 fc              and    r12,r15
   100409cfe: 4d 23 27              and    r12,QWORD PTR [r15]
   100409d01: 4d 21 3c 24           and    QWORD PTR [r12],r15
   100409d05: 4d 23 a7 ff ff ff 7f  and    r12,QWORD PTR [r15+0x7fffffff]
   100409d0c: 4d 21 bc 24 ff ff ff 7f   and    QWORD PTR [r12+0x7fffffff],r15
   100409d14: 49 81 e5 ff ff ff 7f  and    r13,0x7fffffff
   100409d1b: 49 21 c5              and    r13,rax
   100409d1e: 4c 23 28              and    r13,QWORD PTR [rax]
   100409d21: 49 21 45 00           and    QWORD PTR [r13+0x0],rax
   100409d25: 4c 23 a8 ff ff ff 7f  and    r13,QWORD PTR [rax+0x7fffffff]
   100409d2c: 49 21 85 ff ff ff 7f  and    QWORD PTR [r13+0x7fffffff],rax
   100409d33: 49 21 cd              and    r13,rcx
   100409d36: 4c 23 29              and    r13,QWORD PTR [rcx]
   100409d39: 49 21 4d 00           and    QWORD PTR [r13+0x0],rcx
   100409d3d: 4c 23 a9 ff ff ff 7f  and    r13,QWORD PTR [rcx+0x7fffffff]
   100409d44: 49 21 8d ff ff ff 7f  and    QWORD PTR [r13+0x7fffffff],rcx
   100409d4b: 49 21 d5              and    r13,rdx
   100409d4e: 4c 23 2a              and    r13,QWORD PTR [rdx]
   100409d51: 49 21 55 00           and    QWORD PTR [r13+0x0],rdx
   100409d55: 4c 23 aa ff ff ff 7f  and    r13,QWORD PTR [rdx+0x7fffffff]
   100409d5c: 49 21 95 ff ff ff 7f  and    QWORD PTR [r13+0x7fffffff],rdx
   100409d63: 49 21 dd              and    r13,rbx
   100409d66: 4c 23 2b              and    r13,QWORD PTR [rbx]
   100409d69: 49 21 5d 00           and    QWORD PTR [r13+0x0],rbx
   100409d6d: 4c 23 ab ff ff ff 7f  and    r13,QWORD PTR [rbx+0x7fffffff]
   100409d74: 49 21 9d ff ff ff 7f  and    QWORD PTR [r13+0x7fffffff],rbx
   100409d7b: 49 21 e5              and    r13,rsp
   100409d7e: 4c 23 2c 24           and    r13,QWORD PTR [rsp]
   100409d82: 49 21 65 00           and    QWORD PTR [r13+0x0],rsp
   100409d86: 4c 23 ac 24 ff ff ff 7f   and    r13,QWORD PTR [rsp+0x7fffffff]
   100409d8e: 49 21 a5 ff ff ff 7f  and    QWORD PTR [r13+0x7fffffff],rsp
   100409d95: 49 21 ed              and    r13,rbp
   100409d98: 4c 23 6d 00           and    r13,QWORD PTR [rbp+0x0]
   100409d9c: 49 21 6d 00           and    QWORD PTR [r13+0x0],rbp
   100409da0: 4c 23 ad ff ff ff 7f  and    r13,QWORD PTR [rbp+0x7fffffff]
   100409da7: 49 21 ad ff ff ff 7f  and    QWORD PTR [r13+0x7fffffff],rbp
   100409dae: 49 21 f5              and    r13,rsi
   100409db1: 4c 23 2e              and    r13,QWORD PTR [rsi]
   100409db4: 49 21 75 00           and    QWORD PTR [r13+0x0],rsi
   100409db8: 4c 23 ae ff ff ff 7f  and    r13,QWORD PTR [rsi+0x7fffffff]
   100409dbf: 49 21 b5 ff ff ff 7f  and    QWORD PTR [r13+0x7fffffff],rsi
   100409dc6: 49 21 fd              and    r13,rdi
   100409dc9: 4c 23 2f              and    r13,QWORD PTR [rdi]
   100409dcc: 49 21 7d 00           and    QWORD PTR [r13+0x0],rdi
   100409dd0: 4c 23 af ff ff ff 7f  and    r13,QWORD PTR [rdi+0x7fffffff]
   100409dd7: 49 21 bd ff ff ff 7f  and    QWORD PTR [r13+0x7fffffff],rdi
   100409dde: 4d 21 c5              and    r13,r8
   100409de1: 4d 23 28              and    r13,QWORD PTR [r8]
   100409de4: 4d 21 45 00           and    QWORD PTR [r13+0x0],r8
   100409de8: 4d 23 a8 ff ff ff 7f  and    r13,QWORD PTR [r8+0x7fffffff]
   100409def: 4d 21 85 ff ff ff 7f  and    QWORD PTR [r13+0x7fffffff],r8
   100409df6: 4d 21 cd              and    r13,r9
   100409df9: 4d 23 29              and    r13,QWORD PTR [r9]
   100409dfc: 4d 21 4d 00           and    QWORD PTR [r13+0x0],r9
   100409e00: 4d 23 a9 ff ff ff 7f  and    r13,QWORD PTR [r9+0x7fffffff]
   100409e07: 4d 21 8d ff ff ff 7f  and    QWORD PTR [r13+0x7fffffff],r9
   100409e0e: 4d 21 d5              and    r13,r10
   100409e11: 4d 23 2a              and    r13,QWORD PTR [r10]
   100409e14: 4d 21 55 00           and    QWORD PTR [r13+0x0],r10
   100409e18: 4d 23 aa ff ff ff 7f  and    r13,QWORD PTR [r10+0x7fffffff]
   100409e1f: 4d 21 95 ff ff ff 7f  and    QWORD PTR [r13+0x7fffffff],r10
   100409e26: 4d 21 dd              and    r13,r11
   100409e29: 4d 23 2b              and    r13,QWORD PTR [r11]
   100409e2c: 4d 21 5d 00           and    QWORD PTR [r13+0x0],r11
   100409e30: 4d 23 ab ff ff ff 7f  and    r13,QWORD PTR [r11+0x7fffffff]
   100409e37: 4d 21 9d ff ff ff 7f  and    QWORD PTR [r13+0x7fffffff],r11
   100409e3e: 4d 21 e5              and    r13,r12
   100409e41: 4d 23 2c 24           and    r13,QWORD PTR [r12]
   100409e45: 4d 21 65 00           and    QWORD PTR [r13+0x0],r12
   100409e49: 4d 23 ac 24 ff ff ff 7f   and    r13,QWORD PTR [r12+0x7fffffff]
   100409e51: 4d 21 a5 ff ff ff 7f  and    QWORD PTR [r13+0x7fffffff],r12
   100409e58: 4d 21 ed              and    r13,r13
   100409e5b: 4d 23 6d 00           and    r13,QWORD PTR [r13+0x0]
   100409e5f: 4d 21 6d 00           and    QWORD PTR [r13+0x0],r13
   100409e63: 4d 23 ad ff ff ff 7f  and    r13,QWORD PTR [r13+0x7fffffff]
   100409e6a: 4d 21 ad ff ff ff 7f  and    QWORD PTR [r13+0x7fffffff],r13
   100409e71: 4d 21 f5              and    r13,r14
   100409e74: 4d 23 2e              and    r13,QWORD PTR [r14]
   100409e77: 4d 21 75 00           and    QWORD PTR [r13+0x0],r14
   100409e7b: 4d 23 ae ff ff ff 7f  and    r13,QWORD PTR [r14+0x7fffffff]
   100409e82: 4d 21 b5 ff ff ff 7f  and    QWORD PTR [r13+0x7fffffff],r14
   100409e89: 4d 21 fd              and    r13,r15
   100409e8c: 4d 23 2f              and    r13,QWORD PTR [r15]
   100409e8f: 4d 21 7d 00           and    QWORD PTR [r13+0x0],r15
   100409e93: 4d 23 af ff ff ff 7f  and    r13,QWORD PTR [r15+0x7fffffff]
   100409e9a: 4d 21 bd ff ff ff 7f  and    QWORD PTR [r13+0x7fffffff],r15
   100409ea1: 49 81 e6 ff ff ff 7f  and    r14,0x7fffffff
   100409ea8: 49 21 c6              and    r14,rax
   100409eab: 4c 23 30              and    r14,QWORD PTR [rax]
   100409eae: 49 21 06              and    QWORD PTR [r14],rax
   100409eb1: 4c 23 b0 ff ff ff 7f  and    r14,QWORD PTR [rax+0x7fffffff]
   100409eb8: 49 21 86 ff ff ff 7f  and    QWORD PTR [r14+0x7fffffff],rax
   100409ebf: 49 21 ce              and    r14,rcx
   100409ec2: 4c 23 31              and    r14,QWORD PTR [rcx]
   100409ec5: 49 21 0e              and    QWORD PTR [r14],rcx
   100409ec8: 4c 23 b1 ff ff ff 7f  and    r14,QWORD PTR [rcx+0x7fffffff]
   100409ecf: 49 21 8e ff ff ff 7f  and    QWORD PTR [r14+0x7fffffff],rcx
   100409ed6: 49 21 d6              and    r14,rdx
   100409ed9: 4c 23 32              and    r14,QWORD PTR [rdx]
   100409edc: 49 21 16              and    QWORD PTR [r14],rdx
   100409edf: 4c 23 b2 ff ff ff 7f  and    r14,QWORD PTR [rdx+0x7fffffff]
   100409ee6: 49 21 96 ff ff ff 7f  and    QWORD PTR [r14+0x7fffffff],rdx
   100409eed: 49 21 de              and    r14,rbx
   100409ef0: 4c 23 33              and    r14,QWORD PTR [rbx]
   100409ef3: 49 21 1e              and    QWORD PTR [r14],rbx
   100409ef6: 4c 23 b3 ff ff ff 7f  and    r14,QWORD PTR [rbx+0x7fffffff]
   100409efd: 49 21 9e ff ff ff 7f  and    QWORD PTR [r14+0x7fffffff],rbx
   100409f04: 49 21 e6              and    r14,rsp
   100409f07: 4c 23 34 24           and    r14,QWORD PTR [rsp]
   100409f0b: 49 21 26              and    QWORD PTR [r14],rsp
   100409f0e: 4c 23 b4 24 ff ff ff 7f   and    r14,QWORD PTR [rsp+0x7fffffff]
   100409f16: 49 21 a6 ff ff ff 7f  and    QWORD PTR [r14+0x7fffffff],rsp
   100409f1d: 49 21 ee              and    r14,rbp
   100409f20: 4c 23 75 00           and    r14,QWORD PTR [rbp+0x0]
   100409f24: 49 21 2e              and    QWORD PTR [r14],rbp
   100409f27: 4c 23 b5 ff ff ff 7f  and    r14,QWORD PTR [rbp+0x7fffffff]
   100409f2e: 49 21 ae ff ff ff 7f  and    QWORD PTR [r14+0x7fffffff],rbp
   100409f35: 49 21 f6              and    r14,rsi
   100409f38: 4c 23 36              and    r14,QWORD PTR [rsi]
   100409f3b: 49 21 36              and    QWORD PTR [r14],rsi
   100409f3e: 4c 23 b6 ff ff ff 7f  and    r14,QWORD PTR [rsi+0x7fffffff]
   100409f45: 49 21 b6 ff ff ff 7f  and    QWORD PTR [r14+0x7fffffff],rsi
   100409f4c: 49 21 fe              and    r14,rdi
   100409f4f: 4c 23 37              and    r14,QWORD PTR [rdi]
   100409f52: 49 21 3e              and    QWORD PTR [r14],rdi
   100409f55: 4c 23 b7 ff ff ff 7f  and    r14,QWORD PTR [rdi+0x7fffffff]
   100409f5c: 49 21 be ff ff ff 7f  and    QWORD PTR [r14+0x7fffffff],rdi
   100409f63: 4d 21 c6              and    r14,r8
   100409f66: 4d 23 30              and    r14,QWORD PTR [r8]
   100409f69: 4d 21 06              and    QWORD PTR [r14],r8
   100409f6c: 4d 23 b0 ff ff ff 7f  and    r14,QWORD PTR [r8+0x7fffffff]
   100409f73: 4d 21 86 ff ff ff 7f  and    QWORD PTR [r14+0x7fffffff],r8
   100409f7a: 4d 21 ce              and    r14,r9
   100409f7d: 4d 23 31              and    r14,QWORD PTR [r9]
   100409f80: 4d 21 0e              and    QWORD PTR [r14],r9
   100409f83: 4d 23 b1 ff ff ff 7f  and    r14,QWORD PTR [r9+0x7fffffff]
   100409f8a: 4d 21 8e ff ff ff 7f  and    QWORD PTR [r14+0x7fffffff],r9
   100409f91: 4d 21 d6              and    r14,r10
   100409f94: 4d 23 32              and    r14,QWORD PTR [r10]
   100409f97: 4d 21 16              and    QWORD PTR [r14],r10
   100409f9a: 4d 23 b2 ff ff ff 7f  and    r14,QWORD PTR [r10+0x7fffffff]
   100409fa1: 4d 21 96 ff ff ff 7f  and    QWORD PTR [r14+0x7fffffff],r10
   100409fa8: 4d 21 de              and    r14,r11
   100409fab: 4d 23 33              and    r14,QWORD PTR [r11]
   100409fae: 4d 21 1e              and    QWORD PTR [r14],r11
   100409fb1: 4d 23 b3 ff ff ff 7f  and    r14,QWORD PTR [r11+0x7fffffff]
   100409fb8: 4d 21 9e ff ff ff 7f  and    QWORD PTR [r14+0x7fffffff],r11
   100409fbf: 4d 21 e6              and    r14,r12
   100409fc2: 4d 23 34 24           and    r14,QWORD PTR [r12]
   100409fc6: 4d 21 26              and    QWORD PTR [r14],r12
   100409fc9: 4d 23 b4 24 ff ff ff 7f   and    r14,QWORD PTR [r12+0x7fffffff]
   100409fd1: 4d 21 a6 ff ff ff 7f  and    QWORD PTR [r14+0x7fffffff],r12
   100409fd8: 4d 21 ee              and    r14,r13
   100409fdb: 4d 23 75 00           and    r14,QWORD PTR [r13+0x0]
   100409fdf: 4d 21 2e              and    QWORD PTR [r14],r13
   100409fe2: 4d 23 b5 ff ff ff 7f  and    r14,QWORD PTR [r13+0x7fffffff]
   100409fe9: 4d 21 ae ff ff ff 7f  and    QWORD PTR [r14+0x7fffffff],r13
   100409ff0: 4d 21 f6              and    r14,r14
   100409ff3: 4d 23 36              and    r14,QWORD PTR [r14]
   100409ff6: 4d 21 36              and    QWORD PTR [r14],r14
   100409ff9: 4d 23 b6 ff ff ff 7f  and    r14,QWORD PTR [r14+0x7fffffff]
   10040a000: 4d 21 b6 ff ff ff 7f  and    QWORD PTR [r14+0x7fffffff],r14
   10040a007: 4d 21 fe              and    r14,r15
   10040a00a: 4d 23 37              and    r14,QWORD PTR [r15]
   10040a00d: 4d 21 3e              and    QWORD PTR [r14],r15
   10040a010: 4d 23 b7 ff ff ff 7f  and    r14,QWORD PTR [r15+0x7fffffff]
   10040a017: 4d 21 be ff ff ff 7f  and    QWORD PTR [r14+0x7fffffff],r15
   10040a01e: 49 81 e7 ff ff ff 7f  and    r15,0x7fffffff
   10040a025: 49 21 c7              and    r15,rax
   10040a028: 4c 23 38              and    r15,QWORD PTR [rax]
   10040a02b: 49 21 07              and    QWORD PTR [r15],rax
   10040a02e: 4c 23 b8 ff ff ff 7f  and    r15,QWORD PTR [rax+0x7fffffff]
   10040a035: 49 21 87 ff ff ff 7f  and    QWORD PTR [r15+0x7fffffff],rax
   10040a03c: 49 21 cf              and    r15,rcx
   10040a03f: 4c 23 39              and    r15,QWORD PTR [rcx]
   10040a042: 49 21 0f              and    QWORD PTR [r15],rcx
   10040a045: 4c 23 b9 ff ff ff 7f  and    r15,QWORD PTR [rcx+0x7fffffff]
   10040a04c: 49 21 8f ff ff ff 7f  and    QWORD PTR [r15+0x7fffffff],rcx
   10040a053: 49 21 d7              and    r15,rdx
   10040a056: 4c 23 3a              and    r15,QWORD PTR [rdx]
   10040a059: 49 21 17              and    QWORD PTR [r15],rdx
   10040a05c: 4c 23 ba ff ff ff 7f  and    r15,QWORD PTR [rdx+0x7fffffff]
   10040a063: 49 21 97 ff ff ff 7f  and    QWORD PTR [r15+0x7fffffff],rdx
   10040a06a: 49 21 df              and    r15,rbx
   10040a06d: 4c 23 3b              and    r15,QWORD PTR [rbx]
   10040a070: 49 21 1f              and    QWORD PTR [r15],rbx
   10040a073: 4c 23 bb ff ff ff 7f  and    r15,QWORD PTR [rbx+0x7fffffff]
   10040a07a: 49 21 9f ff ff ff 7f  and    QWORD PTR [r15+0x7fffffff],rbx
   10040a081: 49 21 e7              and    r15,rsp
   10040a084: 4c 23 3c 24           and    r15,QWORD PTR [rsp]
   10040a088: 49 21 27              and    QWORD PTR [r15],rsp
   10040a08b: 4c 23 bc 24 ff ff ff 7f   and    r15,QWORD PTR [rsp+0x7fffffff]
   10040a093: 49 21 a7 ff ff ff 7f  and    QWORD PTR [r15+0x7fffffff],rsp
   10040a09a: 49 21 ef              and    r15,rbp
   10040a09d: 4c 23 7d 00           and    r15,QWORD PTR [rbp+0x0]
   10040a0a1: 49 21 2f              and    QWORD PTR [r15],rbp
   10040a0a4: 4c 23 bd ff ff ff 7f  and    r15,QWORD PTR [rbp+0x7fffffff]
   10040a0ab: 49 21 af ff ff ff 7f  and    QWORD PTR [r15+0x7fffffff],rbp
   10040a0b2: 49 21 f7              and    r15,rsi
   10040a0b5: 4c 23 3e              and    r15,QWORD PTR [rsi]
   10040a0b8: 49 21 37              and    QWORD PTR [r15],rsi
   10040a0bb: 4c 23 be ff ff ff 7f  and    r15,QWORD PTR [rsi+0x7fffffff]
   10040a0c2: 49 21 b7 ff ff ff 7f  and    QWORD PTR [r15+0x7fffffff],rsi
   10040a0c9: 49 21 ff              and    r15,rdi
   10040a0cc: 4c 23 3f              and    r15,QWORD PTR [rdi]
   10040a0cf: 49 21 3f              and    QWORD PTR [r15],rdi
   10040a0d2: 4c 23 bf ff ff ff 7f  and    r15,QWORD PTR [rdi+0x7fffffff]
   10040a0d9: 49 21 bf ff ff ff 7f  and    QWORD PTR [r15+0x7fffffff],rdi
   10040a0e0: 4d 21 c7              and    r15,r8
   10040a0e3: 4d 23 38              and    r15,QWORD PTR [r8]
   10040a0e6: 4d 21 07              and    QWORD PTR [r15],r8
   10040a0e9: 4d 23 b8 ff ff ff 7f  and    r15,QWORD PTR [r8+0x7fffffff]
   10040a0f0: 4d 21 87 ff ff ff 7f  and    QWORD PTR [r15+0x7fffffff],r8
   10040a0f7: 4d 21 cf              and    r15,r9
   10040a0fa: 4d 23 39              and    r15,QWORD PTR [r9]
   10040a0fd: 4d 21 0f              and    QWORD PTR [r15],r9
   10040a100: 4d 23 b9 ff ff ff 7f  and    r15,QWORD PTR [r9+0x7fffffff]
   10040a107: 4d 21 8f ff ff ff 7f  and    QWORD PTR [r15+0x7fffffff],r9
   10040a10e: 4d 21 d7              and    r15,r10
   10040a111: 4d 23 3a              and    r15,QWORD PTR [r10]
   10040a114: 4d 21 17              and    QWORD PTR [r15],r10
   10040a117: 4d 23 ba ff ff ff 7f  and    r15,QWORD PTR [r10+0x7fffffff]
   10040a11e: 4d 21 97 ff ff ff 7f  and    QWORD PTR [r15+0x7fffffff],r10
   10040a125: 4d 21 df              and    r15,r11
   10040a128: 4d 23 3b              and    r15,QWORD PTR [r11]
   10040a12b: 4d 21 1f              and    QWORD PTR [r15],r11
   10040a12e: 4d 23 bb ff ff ff 7f  and    r15,QWORD PTR [r11+0x7fffffff]
   10040a135: 4d 21 9f ff ff ff 7f  and    QWORD PTR [r15+0x7fffffff],r11
   10040a13c: 4d 21 e7              and    r15,r12
   10040a13f: 4d 23 3c 24           and    r15,QWORD PTR [r12]
   10040a143: 4d 21 27              and    QWORD PTR [r15],r12
   10040a146: 4d 23 bc 24 ff ff ff 7f   and    r15,QWORD PTR [r12+0x7fffffff]
   10040a14e: 4d 21 a7 ff ff ff 7f  and    QWORD PTR [r15+0x7fffffff],r12
   10040a155: 4d 21 ef              and    r15,r13
   10040a158: 4d 23 7d 00           and    r15,QWORD PTR [r13+0x0]
   10040a15c: 4d 21 2f              and    QWORD PTR [r15],r13
   10040a15f: 4d 23 bd ff ff ff 7f  and    r15,QWORD PTR [r13+0x7fffffff]
   10040a166: 4d 21 af ff ff ff 7f  and    QWORD PTR [r15+0x7fffffff],r13
   10040a16d: 4d 21 f7              and    r15,r14
   10040a170: 4d 23 3e              and    r15,QWORD PTR [r14]
   10040a173: 4d 21 37              and    QWORD PTR [r15],r14
   10040a176: 4d 23 be ff ff ff 7f  and    r15,QWORD PTR [r14+0x7fffffff]
   10040a17d: 4d 21 b7 ff ff ff 7f  and    QWORD PTR [r15+0x7fffffff],r14
   10040a184: 4d 21 ff              and    r15,r15
   10040a187: 4d 23 3f              and    r15,QWORD PTR [r15]
   10040a18a: 4d 21 3f              and    QWORD PTR [r15],r15
   10040a18d: 4d 23 bf ff ff ff 7f  and    r15,QWORD PTR [r15+0x7fffffff]
   10040a194: 4d 21 bf ff ff ff 7f  and    QWORD PTR [r15+0x7fffffff],r15
   10040a19b: 48 2d ff ff ff 7f     sub    rax,0x7fffffff
   10040a1a1: 48 29 c0              sub    rax,rax
   10040a1a4: 48 2b 00              sub    rax,QWORD PTR [rax]
   10040a1a7: 48 29 00              sub    QWORD PTR [rax],rax
   10040a1aa: 48 2b 80 ff ff ff 7f  sub    rax,QWORD PTR [rax+0x7fffffff]
   10040a1b1: 48 29 80 ff ff ff 7f  sub    QWORD PTR [rax+0x7fffffff],rax
   10040a1b8: 48 29 c8              sub    rax,rcx
   10040a1bb: 48 2b 01              sub    rax,QWORD PTR [rcx]
   10040a1be: 48 29 08              sub    QWORD PTR [rax],rcx
   10040a1c1: 48 2b 81 ff ff ff 7f  sub    rax,QWORD PTR [rcx+0x7fffffff]
   10040a1c8: 48 29 88 ff ff ff 7f  sub    QWORD PTR [rax+0x7fffffff],rcx
   10040a1cf: 48 29 d0              sub    rax,rdx
   10040a1d2: 48 2b 02              sub    rax,QWORD PTR [rdx]
   10040a1d5: 48 29 10              sub    QWORD PTR [rax],rdx
   10040a1d8: 48 2b 82 ff ff ff 7f  sub    rax,QWORD PTR [rdx+0x7fffffff]
   10040a1df: 48 29 90 ff ff ff 7f  sub    QWORD PTR [rax+0x7fffffff],rdx
   10040a1e6: 48 29 d8              sub    rax,rbx
   10040a1e9: 48 2b 03              sub    rax,QWORD PTR [rbx]
   10040a1ec: 48 29 18              sub    QWORD PTR [rax],rbx
   10040a1ef: 48 2b 83 ff ff ff 7f  sub    rax,QWORD PTR [rbx+0x7fffffff]
   10040a1f6: 48 29 98 ff ff ff 7f  sub    QWORD PTR [rax+0x7fffffff],rbx
   10040a1fd: 48 29 e0              sub    rax,rsp
   10040a200: 48 2b 04 24           sub    rax,QWORD PTR [rsp]
   10040a204: 48 29 20              sub    QWORD PTR [rax],rsp
   10040a207: 48 2b 84 24 ff ff ff 7f   sub    rax,QWORD PTR [rsp+0x7fffffff]
   10040a20f: 48 29 a0 ff ff ff 7f  sub    QWORD PTR [rax+0x7fffffff],rsp
   10040a216: 48 29 e8              sub    rax,rbp
   10040a219: 48 2b 45 00           sub    rax,QWORD PTR [rbp+0x0]
   10040a21d: 48 29 28              sub    QWORD PTR [rax],rbp
   10040a220: 48 2b 85 ff ff ff 7f  sub    rax,QWORD PTR [rbp+0x7fffffff]
   10040a227: 48 29 a8 ff ff ff 7f  sub    QWORD PTR [rax+0x7fffffff],rbp
   10040a22e: 48 29 f0              sub    rax,rsi
   10040a231: 48 2b 06              sub    rax,QWORD PTR [rsi]
   10040a234: 48 29 30              sub    QWORD PTR [rax],rsi
   10040a237: 48 2b 86 ff ff ff 7f  sub    rax,QWORD PTR [rsi+0x7fffffff]
   10040a23e: 48 29 b0 ff ff ff 7f  sub    QWORD PTR [rax+0x7fffffff],rsi
   10040a245: 48 29 f8              sub    rax,rdi
   10040a248: 48 2b 07              sub    rax,QWORD PTR [rdi]
   10040a24b: 48 29 38              sub    QWORD PTR [rax],rdi
   10040a24e: 48 2b 87 ff ff ff 7f  sub    rax,QWORD PTR [rdi+0x7fffffff]
   10040a255: 48 29 b8 ff ff ff 7f  sub    QWORD PTR [rax+0x7fffffff],rdi
   10040a25c: 4c 29 c0              sub    rax,r8
   10040a25f: 49 2b 00              sub    rax,QWORD PTR [r8]
   10040a262: 4c 29 00              sub    QWORD PTR [rax],r8
   10040a265: 49 2b 80 ff ff ff 7f  sub    rax,QWORD PTR [r8+0x7fffffff]
   10040a26c: 4c 29 80 ff ff ff 7f  sub    QWORD PTR [rax+0x7fffffff],r8
   10040a273: 4c 29 c8              sub    rax,r9
   10040a276: 49 2b 01              sub    rax,QWORD PTR [r9]
   10040a279: 4c 29 08              sub    QWORD PTR [rax],r9
   10040a27c: 49 2b 81 ff ff ff 7f  sub    rax,QWORD PTR [r9+0x7fffffff]
   10040a283: 4c 29 88 ff ff ff 7f  sub    QWORD PTR [rax+0x7fffffff],r9
   10040a28a: 4c 29 d0              sub    rax,r10
   10040a28d: 49 2b 02              sub    rax,QWORD PTR [r10]
   10040a290: 4c 29 10              sub    QWORD PTR [rax],r10
   10040a293: 49 2b 82 ff ff ff 7f  sub    rax,QWORD PTR [r10+0x7fffffff]
   10040a29a: 4c 29 90 ff ff ff 7f  sub    QWORD PTR [rax+0x7fffffff],r10
   10040a2a1: 4c 29 d8              sub    rax,r11
   10040a2a4: 49 2b 03              sub    rax,QWORD PTR [r11]
   10040a2a7: 4c 29 18              sub    QWORD PTR [rax],r11
   10040a2aa: 49 2b 83 ff ff ff 7f  sub    rax,QWORD PTR [r11+0x7fffffff]
   10040a2b1: 4c 29 98 ff ff ff 7f  sub    QWORD PTR [rax+0x7fffffff],r11
   10040a2b8: 4c 29 e0              sub    rax,r12
   10040a2bb: 49 2b 04 24           sub    rax,QWORD PTR [r12]
   10040a2bf: 4c 29 20              sub    QWORD PTR [rax],r12
   10040a2c2: 49 2b 84 24 ff ff ff 7f   sub    rax,QWORD PTR [r12+0x7fffffff]
   10040a2ca: 4c 29 a0 ff ff ff 7f  sub    QWORD PTR [rax+0x7fffffff],r12
   10040a2d1: 4c 29 e8              sub    rax,r13
   10040a2d4: 49 2b 45 00           sub    rax,QWORD PTR [r13+0x0]
   10040a2d8: 4c 29 28              sub    QWORD PTR [rax],r13
   10040a2db: 49 2b 85 ff ff ff 7f  sub    rax,QWORD PTR [r13+0x7fffffff]
   10040a2e2: 4c 29 a8 ff ff ff 7f  sub    QWORD PTR [rax+0x7fffffff],r13
   10040a2e9: 4c 29 f0              sub    rax,r14
   10040a2ec: 49 2b 06              sub    rax,QWORD PTR [r14]
   10040a2ef: 4c 29 30              sub    QWORD PTR [rax],r14
   10040a2f2: 49 2b 86 ff ff ff 7f  sub    rax,QWORD PTR [r14+0x7fffffff]
   10040a2f9: 4c 29 b0 ff ff ff 7f  sub    QWORD PTR [rax+0x7fffffff],r14
   10040a300: 4c 29 f8              sub    rax,r15
   10040a303: 49 2b 07              sub    rax,QWORD PTR [r15]
   10040a306: 4c 29 38              sub    QWORD PTR [rax],r15
   10040a309: 49 2b 87 ff ff ff 7f  sub    rax,QWORD PTR [r15+0x7fffffff]
   10040a310: 4c 29 b8 ff ff ff 7f  sub    QWORD PTR [rax+0x7fffffff],r15
   10040a317: 48 81 e9 ff ff ff 7f  sub    rcx,0x7fffffff
   10040a31e: 48 29 c1              sub    rcx,rax
   10040a321: 48 2b 08              sub    rcx,QWORD PTR [rax]
   10040a324: 48 29 01              sub    QWORD PTR [rcx],rax
   10040a327: 48 2b 88 ff ff ff 7f  sub    rcx,QWORD PTR [rax+0x7fffffff]
   10040a32e: 48 29 81 ff ff ff 7f  sub    QWORD PTR [rcx+0x7fffffff],rax
   10040a335: 48 29 c9              sub    rcx,rcx
   10040a338: 48 2b 09              sub    rcx,QWORD PTR [rcx]
   10040a33b: 48 29 09              sub    QWORD PTR [rcx],rcx
   10040a33e: 48 2b 89 ff ff ff 7f  sub    rcx,QWORD PTR [rcx+0x7fffffff]
   10040a345: 48 29 89 ff ff ff 7f  sub    QWORD PTR [rcx+0x7fffffff],rcx
   10040a34c: 48 29 d1              sub    rcx,rdx
   10040a34f: 48 2b 0a              sub    rcx,QWORD PTR [rdx]
   10040a352: 48 29 11              sub    QWORD PTR [rcx],rdx
   10040a355: 48 2b 8a ff ff ff 7f  sub    rcx,QWORD PTR [rdx+0x7fffffff]
   10040a35c: 48 29 91 ff ff ff 7f  sub    QWORD PTR [rcx+0x7fffffff],rdx
   10040a363: 48 29 d9              sub    rcx,rbx
   10040a366: 48 2b 0b              sub    rcx,QWORD PTR [rbx]
   10040a369: 48 29 19              sub    QWORD PTR [rcx],rbx
   10040a36c: 48 2b 8b ff ff ff 7f  sub    rcx,QWORD PTR [rbx+0x7fffffff]
   10040a373: 48 29 99 ff ff ff 7f  sub    QWORD PTR [rcx+0x7fffffff],rbx
   10040a37a: 48 29 e1              sub    rcx,rsp
   10040a37d: 48 2b 0c 24           sub    rcx,QWORD PTR [rsp]
   10040a381: 48 29 21              sub    QWORD PTR [rcx],rsp
   10040a384: 48 2b 8c 24 ff ff ff 7f   sub    rcx,QWORD PTR [rsp+0x7fffffff]
   10040a38c: 48 29 a1 ff ff ff 7f  sub    QWORD PTR [rcx+0x7fffffff],rsp
   10040a393: 48 29 e9              sub    rcx,rbp
   10040a396: 48 2b 4d 00           sub    rcx,QWORD PTR [rbp+0x0]
   10040a39a: 48 29 29              sub    QWORD PTR [rcx],rbp
   10040a39d: 48 2b 8d ff ff ff 7f  sub    rcx,QWORD PTR [rbp+0x7fffffff]
   10040a3a4: 48 29 a9 ff ff ff 7f  sub    QWORD PTR [rcx+0x7fffffff],rbp
   10040a3ab: 48 29 f1              sub    rcx,rsi
   10040a3ae: 48 2b 0e              sub    rcx,QWORD PTR [rsi]
   10040a3b1: 48 29 31              sub    QWORD PTR [rcx],rsi
   10040a3b4: 48 2b 8e ff ff ff 7f  sub    rcx,QWORD PTR [rsi+0x7fffffff]
   10040a3bb: 48 29 b1 ff ff ff 7f  sub    QWORD PTR [rcx+0x7fffffff],rsi
   10040a3c2: 48 29 f9              sub    rcx,rdi
   10040a3c5: 48 2b 0f              sub    rcx,QWORD PTR [rdi]
   10040a3c8: 48 29 39              sub    QWORD PTR [rcx],rdi
   10040a3cb: 48 2b 8f ff ff ff 7f  sub    rcx,QWORD PTR [rdi+0x7fffffff]
   10040a3d2: 48 29 b9 ff ff ff 7f  sub    QWORD PTR [rcx+0x7fffffff],rdi
   10040a3d9: 4c 29 c1              sub    rcx,r8
   10040a3dc: 49 2b 08              sub    rcx,QWORD PTR [r8]
   10040a3df: 4c 29 01              sub    QWORD PTR [rcx],r8
   10040a3e2: 49 2b 88 ff ff ff 7f  sub    rcx,QWORD PTR [r8+0x7fffffff]
   10040a3e9: 4c 29 81 ff ff ff 7f  sub    QWORD PTR [rcx+0x7fffffff],r8
   10040a3f0: 4c 29 c9              sub    rcx,r9
   10040a3f3: 49 2b 09              sub    rcx,QWORD PTR [r9]
   10040a3f6: 4c 29 09              sub    QWORD PTR [rcx],r9
   10040a3f9: 49 2b 89 ff ff ff 7f  sub    rcx,QWORD PTR [r9+0x7fffffff]
   10040a400: 4c 29 89 ff ff ff 7f  sub    QWORD PTR [rcx+0x7fffffff],r9
   10040a407: 4c 29 d1              sub    rcx,r10
   10040a40a: 49 2b 0a              sub    rcx,QWORD PTR [r10]
   10040a40d: 4c 29 11              sub    QWORD PTR [rcx],r10
   10040a410: 49 2b 8a ff ff ff 7f  sub    rcx,QWORD PTR [r10+0x7fffffff]
   10040a417: 4c 29 91 ff ff ff 7f  sub    QWORD PTR [rcx+0x7fffffff],r10
   10040a41e: 4c 29 d9              sub    rcx,r11
   10040a421: 49 2b 0b              sub    rcx,QWORD PTR [r11]
   10040a424: 4c 29 19              sub    QWORD PTR [rcx],r11
   10040a427: 49 2b 8b ff ff ff 7f  sub    rcx,QWORD PTR [r11+0x7fffffff]
   10040a42e: 4c 29 99 ff ff ff 7f  sub    QWORD PTR [rcx+0x7fffffff],r11
   10040a435: 4c 29 e1              sub    rcx,r12
   10040a438: 49 2b 0c 24           sub    rcx,QWORD PTR [r12]
   10040a43c: 4c 29 21              sub    QWORD PTR [rcx],r12
   10040a43f: 49 2b 8c 24 ff ff ff 7f   sub    rcx,QWORD PTR [r12+0x7fffffff]
   10040a447: 4c 29 a1 ff ff ff 7f  sub    QWORD PTR [rcx+0x7fffffff],r12
   10040a44e: 4c 29 e9              sub    rcx,r13
   10040a451: 49 2b 4d 00           sub    rcx,QWORD PTR [r13+0x0]
   10040a455: 4c 29 29              sub    QWORD PTR [rcx],r13
   10040a458: 49 2b 8d ff ff ff 7f  sub    rcx,QWORD PTR [r13+0x7fffffff]
   10040a45f: 4c 29 a9 ff ff ff 7f  sub    QWORD PTR [rcx+0x7fffffff],r13
   10040a466: 4c 29 f1              sub    rcx,r14
   10040a469: 49 2b 0e              sub    rcx,QWORD PTR [r14]
   10040a46c: 4c 29 31              sub    QWORD PTR [rcx],r14
   10040a46f: 49 2b 8e ff ff ff 7f  sub    rcx,QWORD PTR [r14+0x7fffffff]
   10040a476: 4c 29 b1 ff ff ff 7f  sub    QWORD PTR [rcx+0x7fffffff],r14
   10040a47d: 4c 29 f9              sub    rcx,r15
   10040a480: 49 2b 0f              sub    rcx,QWORD PTR [r15]
   10040a483: 4c 29 39              sub    QWORD PTR [rcx],r15
   10040a486: 49 2b 8f ff ff ff 7f  sub    rcx,QWORD PTR [r15+0x7fffffff]
   10040a48d: 4c 29 b9 ff ff ff 7f  sub    QWORD PTR [rcx+0x7fffffff],r15
   10040a494: 48 81 ea ff ff ff 7f  sub    rdx,0x7fffffff
   10040a49b: 48 29 c2              sub    rdx,rax
   10040a49e: 48 2b 10              sub    rdx,QWORD PTR [rax]
   10040a4a1: 48 29 02              sub    QWORD PTR [rdx],rax
   10040a4a4: 48 2b 90 ff ff ff 7f  sub    rdx,QWORD PTR [rax+0x7fffffff]
   10040a4ab: 48 29 82 ff ff ff 7f  sub    QWORD PTR [rdx+0x7fffffff],rax
   10040a4b2: 48 29 ca              sub    rdx,rcx
   10040a4b5: 48 2b 11              sub    rdx,QWORD PTR [rcx]
   10040a4b8: 48 29 0a              sub    QWORD PTR [rdx],rcx
   10040a4bb: 48 2b 91 ff ff ff 7f  sub    rdx,QWORD PTR [rcx+0x7fffffff]
   10040a4c2: 48 29 8a ff ff ff 7f  sub    QWORD PTR [rdx+0x7fffffff],rcx
   10040a4c9: 48 29 d2              sub    rdx,rdx
   10040a4cc: 48 2b 12              sub    rdx,QWORD PTR [rdx]
   10040a4cf: 48 29 12              sub    QWORD PTR [rdx],rdx
   10040a4d2: 48 2b 92 ff ff ff 7f  sub    rdx,QWORD PTR [rdx+0x7fffffff]
   10040a4d9: 48 29 92 ff ff ff 7f  sub    QWORD PTR [rdx+0x7fffffff],rdx
   10040a4e0: 48 29 da              sub    rdx,rbx
   10040a4e3: 48 2b 13              sub    rdx,QWORD PTR [rbx]
   10040a4e6: 48 29 1a              sub    QWORD PTR [rdx],rbx
   10040a4e9: 48 2b 93 ff ff ff 7f  sub    rdx,QWORD PTR [rbx+0x7fffffff]
   10040a4f0: 48 29 9a ff ff ff 7f  sub    QWORD PTR [rdx+0x7fffffff],rbx
   10040a4f7: 48 29 e2              sub    rdx,rsp
   10040a4fa: 48 2b 14 24           sub    rdx,QWORD PTR [rsp]
   10040a4fe: 48 29 22              sub    QWORD PTR [rdx],rsp
   10040a501: 48 2b 94 24 ff ff ff 7f   sub    rdx,QWORD PTR [rsp+0x7fffffff]
   10040a509: 48 29 a2 ff ff ff 7f  sub    QWORD PTR [rdx+0x7fffffff],rsp
   10040a510: 48 29 ea              sub    rdx,rbp
   10040a513: 48 2b 55 00           sub    rdx,QWORD PTR [rbp+0x0]
   10040a517: 48 29 2a              sub    QWORD PTR [rdx],rbp
   10040a51a: 48 2b 95 ff ff ff 7f  sub    rdx,QWORD PTR [rbp+0x7fffffff]
   10040a521: 48 29 aa ff ff ff 7f  sub    QWORD PTR [rdx+0x7fffffff],rbp
   10040a528: 48 29 f2              sub    rdx,rsi
   10040a52b: 48 2b 16              sub    rdx,QWORD PTR [rsi]
   10040a52e: 48 29 32              sub    QWORD PTR [rdx],rsi
   10040a531: 48 2b 96 ff ff ff 7f  sub    rdx,QWORD PTR [rsi+0x7fffffff]
   10040a538: 48 29 b2 ff ff ff 7f  sub    QWORD PTR [rdx+0x7fffffff],rsi
   10040a53f: 48 29 fa              sub    rdx,rdi
   10040a542: 48 2b 17              sub    rdx,QWORD PTR [rdi]
   10040a545: 48 29 3a              sub    QWORD PTR [rdx],rdi
   10040a548: 48 2b 97 ff ff ff 7f  sub    rdx,QWORD PTR [rdi+0x7fffffff]
   10040a54f: 48 29 ba ff ff ff 7f  sub    QWORD PTR [rdx+0x7fffffff],rdi
   10040a556: 4c 29 c2              sub    rdx,r8
   10040a559: 49 2b 10              sub    rdx,QWORD PTR [r8]
   10040a55c: 4c 29 02              sub    QWORD PTR [rdx],r8
   10040a55f: 49 2b 90 ff ff ff 7f  sub    rdx,QWORD PTR [r8+0x7fffffff]
   10040a566: 4c 29 82 ff ff ff 7f  sub    QWORD PTR [rdx+0x7fffffff],r8
   10040a56d: 4c 29 ca              sub    rdx,r9
   10040a570: 49 2b 11              sub    rdx,QWORD PTR [r9]
   10040a573: 4c 29 0a              sub    QWORD PTR [rdx],r9
   10040a576: 49 2b 91 ff ff ff 7f  sub    rdx,QWORD PTR [r9+0x7fffffff]
   10040a57d: 4c 29 8a ff ff ff 7f  sub    QWORD PTR [rdx+0x7fffffff],r9
   10040a584: 4c 29 d2              sub    rdx,r10
   10040a587: 49 2b 12              sub    rdx,QWORD PTR [r10]
   10040a58a: 4c 29 12              sub    QWORD PTR [rdx],r10
   10040a58d: 49 2b 92 ff ff ff 7f  sub    rdx,QWORD PTR [r10+0x7fffffff]
   10040a594: 4c 29 92 ff ff ff 7f  sub    QWORD PTR [rdx+0x7fffffff],r10
   10040a59b: 4c 29 da              sub    rdx,r11
   10040a59e: 49 2b 13              sub    rdx,QWORD PTR [r11]
   10040a5a1: 4c 29 1a              sub    QWORD PTR [rdx],r11
   10040a5a4: 49 2b 93 ff ff ff 7f  sub    rdx,QWORD PTR [r11+0x7fffffff]
   10040a5ab: 4c 29 9a ff ff ff 7f  sub    QWORD PTR [rdx+0x7fffffff],r11
   10040a5b2: 4c 29 e2              sub    rdx,r12
   10040a5b5: 49 2b 14 24           sub    rdx,QWORD PTR [r12]
   10040a5b9: 4c 29 22              sub    QWORD PTR [rdx],r12
   10040a5bc: 49 2b 94 24 ff ff ff 7f   sub    rdx,QWORD PTR [r12+0x7fffffff]
   10040a5c4: 4c 29 a2 ff ff ff 7f  sub    QWORD PTR [rdx+0x7fffffff],r12
   10040a5cb: 4c 29 ea              sub    rdx,r13
   10040a5ce: 49 2b 55 00           sub    rdx,QWORD PTR [r13+0x0]
   10040a5d2: 4c 29 2a              sub    QWORD PTR [rdx],r13
   10040a5d5: 49 2b 95 ff ff ff 7f  sub    rdx,QWORD PTR [r13+0x7fffffff]
   10040a5dc: 4c 29 aa ff ff ff 7f  sub    QWORD PTR [rdx+0x7fffffff],r13
   10040a5e3: 4c 29 f2              sub    rdx,r14
   10040a5e6: 49 2b 16              sub    rdx,QWORD PTR [r14]
   10040a5e9: 4c 29 32              sub    QWORD PTR [rdx],r14
   10040a5ec: 49 2b 96 ff ff ff 7f  sub    rdx,QWORD PTR [r14+0x7fffffff]
   10040a5f3: 4c 29 b2 ff ff ff 7f  sub    QWORD PTR [rdx+0x7fffffff],r14
   10040a5fa: 4c 29 fa              sub    rdx,r15
   10040a5fd: 49 2b 17              sub    rdx,QWORD PTR [r15]
   10040a600: 4c 29 3a              sub    QWORD PTR [rdx],r15
   10040a603: 49 2b 97 ff ff ff 7f  sub    rdx,QWORD PTR [r15+0x7fffffff]
   10040a60a: 4c 29 ba ff ff ff 7f  sub    QWORD PTR [rdx+0x7fffffff],r15
   10040a611: 48 81 eb ff ff ff 7f  sub    rbx,0x7fffffff
   10040a618: 48 29 c3              sub    rbx,rax
   10040a61b: 48 2b 18              sub    rbx,QWORD PTR [rax]
   10040a61e: 48 29 03              sub    QWORD PTR [rbx],rax
   10040a621: 48 2b 98 ff ff ff 7f  sub    rbx,QWORD PTR [rax+0x7fffffff]
   10040a628: 48 29 83 ff ff ff 7f  sub    QWORD PTR [rbx+0x7fffffff],rax
   10040a62f: 48 29 cb              sub    rbx,rcx
   10040a632: 48 2b 19              sub    rbx,QWORD PTR [rcx]
   10040a635: 48 29 0b              sub    QWORD PTR [rbx],rcx
   10040a638: 48 2b 99 ff ff ff 7f  sub    rbx,QWORD PTR [rcx+0x7fffffff]
   10040a63f: 48 29 8b ff ff ff 7f  sub    QWORD PTR [rbx+0x7fffffff],rcx
   10040a646: 48 29 d3              sub    rbx,rdx
   10040a649: 48 2b 1a              sub    rbx,QWORD PTR [rdx]
   10040a64c: 48 29 13              sub    QWORD PTR [rbx],rdx
   10040a64f: 48 2b 9a ff ff ff 7f  sub    rbx,QWORD PTR [rdx+0x7fffffff]
   10040a656: 48 29 93 ff ff ff 7f  sub    QWORD PTR [rbx+0x7fffffff],rdx
   10040a65d: 48 29 db              sub    rbx,rbx
   10040a660: 48 2b 1b              sub    rbx,QWORD PTR [rbx]
   10040a663: 48 29 1b              sub    QWORD PTR [rbx],rbx
   10040a666: 48 2b 9b ff ff ff 7f  sub    rbx,QWORD PTR [rbx+0x7fffffff]
   10040a66d: 48 29 9b ff ff ff 7f  sub    QWORD PTR [rbx+0x7fffffff],rbx
   10040a674: 48 29 e3              sub    rbx,rsp
   10040a677: 48 2b 1c 24           sub    rbx,QWORD PTR [rsp]
   10040a67b: 48 29 23              sub    QWORD PTR [rbx],rsp
   10040a67e: 48 2b 9c 24 ff ff ff 7f   sub    rbx,QWORD PTR [rsp+0x7fffffff]
   10040a686: 48 29 a3 ff ff ff 7f  sub    QWORD PTR [rbx+0x7fffffff],rsp
   10040a68d: 48 29 eb              sub    rbx,rbp
   10040a690: 48 2b 5d 00           sub    rbx,QWORD PTR [rbp+0x0]
   10040a694: 48 29 2b              sub    QWORD PTR [rbx],rbp
   10040a697: 48 2b 9d ff ff ff 7f  sub    rbx,QWORD PTR [rbp+0x7fffffff]
   10040a69e: 48 29 ab ff ff ff 7f  sub    QWORD PTR [rbx+0x7fffffff],rbp
   10040a6a5: 48 29 f3              sub    rbx,rsi
   10040a6a8: 48 2b 1e              sub    rbx,QWORD PTR [rsi]
   10040a6ab: 48 29 33              sub    QWORD PTR [rbx],rsi
   10040a6ae: 48 2b 9e ff ff ff 7f  sub    rbx,QWORD PTR [rsi+0x7fffffff]
   10040a6b5: 48 29 b3 ff ff ff 7f  sub    QWORD PTR [rbx+0x7fffffff],rsi
   10040a6bc: 48 29 fb              sub    rbx,rdi
   10040a6bf: 48 2b 1f              sub    rbx,QWORD PTR [rdi]
   10040a6c2: 48 29 3b              sub    QWORD PTR [rbx],rdi
   10040a6c5: 48 2b 9f ff ff ff 7f  sub    rbx,QWORD PTR [rdi+0x7fffffff]
   10040a6cc: 48 29 bb ff ff ff 7f  sub    QWORD PTR [rbx+0x7fffffff],rdi
   10040a6d3: 4c 29 c3              sub    rbx,r8
   10040a6d6: 49 2b 18              sub    rbx,QWORD PTR [r8]
   10040a6d9: 4c 29 03              sub    QWORD PTR [rbx],r8
   10040a6dc: 49 2b 98 ff ff ff 7f  sub    rbx,QWORD PTR [r8+0x7fffffff]
   10040a6e3: 4c 29 83 ff ff ff 7f  sub    QWORD PTR [rbx+0x7fffffff],r8
   10040a6ea: 4c 29 cb              sub    rbx,r9
   10040a6ed: 49 2b 19              sub    rbx,QWORD PTR [r9]
   10040a6f0: 4c 29 0b              sub    QWORD PTR [rbx],r9
   10040a6f3: 49 2b 99 ff ff ff 7f  sub    rbx,QWORD PTR [r9+0x7fffffff]
   10040a6fa: 4c 29 8b ff ff ff 7f  sub    QWORD PTR [rbx+0x7fffffff],r9
   10040a701: 4c 29 d3              sub    rbx,r10
   10040a704: 49 2b 1a              sub    rbx,QWORD PTR [r10]
   10040a707: 4c 29 13              sub    QWORD PTR [rbx],r10
   10040a70a: 49 2b 9a ff ff ff 7f  sub    rbx,QWORD PTR [r10+0x7fffffff]
   10040a711: 4c 29 93 ff ff ff 7f  sub    QWORD PTR [rbx+0x7fffffff],r10
   10040a718: 4c 29 db              sub    rbx,r11
   10040a71b: 49 2b 1b              sub    rbx,QWORD PTR [r11]
   10040a71e: 4c 29 1b              sub    QWORD PTR [rbx],r11
   10040a721: 49 2b 9b ff ff ff 7f  sub    rbx,QWORD PTR [r11+0x7fffffff]
   10040a728: 4c 29 9b ff ff ff 7f  sub    QWORD PTR [rbx+0x7fffffff],r11
   10040a72f: 4c 29 e3              sub    rbx,r12
   10040a732: 49 2b 1c 24           sub    rbx,QWORD PTR [r12]
   10040a736: 4c 29 23              sub    QWORD PTR [rbx],r12
   10040a739: 49 2b 9c 24 ff ff ff 7f   sub    rbx,QWORD PTR [r12+0x7fffffff]
   10040a741: 4c 29 a3 ff ff ff 7f  sub    QWORD PTR [rbx+0x7fffffff],r12
   10040a748: 4c 29 eb              sub    rbx,r13
   10040a74b: 49 2b 5d 00           sub    rbx,QWORD PTR [r13+0x0]
   10040a74f: 4c 29 2b              sub    QWORD PTR [rbx],r13
   10040a752: 49 2b 9d ff ff ff 7f  sub    rbx,QWORD PTR [r13+0x7fffffff]
   10040a759: 4c 29 ab ff ff ff 7f  sub    QWORD PTR [rbx+0x7fffffff],r13
   10040a760: 4c 29 f3              sub    rbx,r14
   10040a763: 49 2b 1e              sub    rbx,QWORD PTR [r14]
   10040a766: 4c 29 33              sub    QWORD PTR [rbx],r14
   10040a769: 49 2b 9e ff ff ff 7f  sub    rbx,QWORD PTR [r14+0x7fffffff]
   10040a770: 4c 29 b3 ff ff ff 7f  sub    QWORD PTR [rbx+0x7fffffff],r14
   10040a777: 4c 29 fb              sub    rbx,r15
   10040a77a: 49 2b 1f              sub    rbx,QWORD PTR [r15]
   10040a77d: 4c 29 3b              sub    QWORD PTR [rbx],r15
   10040a780: 49 2b 9f ff ff ff 7f  sub    rbx,QWORD PTR [r15+0x7fffffff]
   10040a787: 4c 29 bb ff ff ff 7f  sub    QWORD PTR [rbx+0x7fffffff],r15
   10040a78e: 48 81 ec ff ff ff 7f  sub    rsp,0x7fffffff
   10040a795: 48 29 c4              sub    rsp,rax
   10040a798: 48 2b 20              sub    rsp,QWORD PTR [rax]
   10040a79b: 48 29 04 24           sub    QWORD PTR [rsp],rax
   10040a79f: 48 2b a0 ff ff ff 7f  sub    rsp,QWORD PTR [rax+0x7fffffff]
   10040a7a6: 48 29 84 24 ff ff ff 7f   sub    QWORD PTR [rsp+0x7fffffff],rax
   10040a7ae: 48 29 cc              sub    rsp,rcx
   10040a7b1: 48 2b 21              sub    rsp,QWORD PTR [rcx]
   10040a7b4: 48 29 0c 24           sub    QWORD PTR [rsp],rcx
   10040a7b8: 48 2b a1 ff ff ff 7f  sub    rsp,QWORD PTR [rcx+0x7fffffff]
   10040a7bf: 48 29 8c 24 ff ff ff 7f   sub    QWORD PTR [rsp+0x7fffffff],rcx
   10040a7c7: 48 29 d4              sub    rsp,rdx
   10040a7ca: 48 2b 22              sub    rsp,QWORD PTR [rdx]
   10040a7cd: 48 29 14 24           sub    QWORD PTR [rsp],rdx
   10040a7d1: 48 2b a2 ff ff ff 7f  sub    rsp,QWORD PTR [rdx+0x7fffffff]
   10040a7d8: 48 29 94 24 ff ff ff 7f   sub    QWORD PTR [rsp+0x7fffffff],rdx
   10040a7e0: 48 29 dc              sub    rsp,rbx
   10040a7e3: 48 2b 23              sub    rsp,QWORD PTR [rbx]
   10040a7e6: 48 29 1c 24           sub    QWORD PTR [rsp],rbx
   10040a7ea: 48 2b a3 ff ff ff 7f  sub    rsp,QWORD PTR [rbx+0x7fffffff]
   10040a7f1: 48 29 9c 24 ff ff ff 7f   sub    QWORD PTR [rsp+0x7fffffff],rbx
   10040a7f9: 48 29 e4              sub    rsp,rsp
   10040a7fc: 48 2b 24 24           sub    rsp,QWORD PTR [rsp]
   10040a800: 48 29 24 24           sub    QWORD PTR [rsp],rsp
   10040a804: 48 2b a4 24 ff ff ff 7f   sub    rsp,QWORD PTR [rsp+0x7fffffff]
   10040a80c: 48 29 a4 24 ff ff ff 7f   sub    QWORD PTR [rsp+0x7fffffff],rsp
   10040a814: 48 29 ec              sub    rsp,rbp
   10040a817: 48 2b 65 00           sub    rsp,QWORD PTR [rbp+0x0]
   10040a81b: 48 29 2c 24           sub    QWORD PTR [rsp],rbp
   10040a81f: 48 2b a5 ff ff ff 7f  sub    rsp,QWORD PTR [rbp+0x7fffffff]
   10040a826: 48 29 ac 24 ff ff ff 7f   sub    QWORD PTR [rsp+0x7fffffff],rbp
   10040a82e: 48 29 f4              sub    rsp,rsi
   10040a831: 48 2b 26              sub    rsp,QWORD PTR [rsi]
   10040a834: 48 29 34 24           sub    QWORD PTR [rsp],rsi
   10040a838: 48 2b a6 ff ff ff 7f  sub    rsp,QWORD PTR [rsi+0x7fffffff]
   10040a83f: 48 29 b4 24 ff ff ff 7f   sub    QWORD PTR [rsp+0x7fffffff],rsi
   10040a847: 48 29 fc              sub    rsp,rdi
   10040a84a: 48 2b 27              sub    rsp,QWORD PTR [rdi]
   10040a84d: 48 29 3c 24           sub    QWORD PTR [rsp],rdi
   10040a851: 48 2b a7 ff ff ff 7f  sub    rsp,QWORD PTR [rdi+0x7fffffff]
   10040a858: 48 29 bc 24 ff ff ff 7f   sub    QWORD PTR [rsp+0x7fffffff],rdi
   10040a860: 4c 29 c4              sub    rsp,r8
   10040a863: 49 2b 20              sub    rsp,QWORD PTR [r8]
   10040a866: 4c 29 04 24           sub    QWORD PTR [rsp],r8
   10040a86a: 49 2b a0 ff ff ff 7f  sub    rsp,QWORD PTR [r8+0x7fffffff]
   10040a871: 4c 29 84 24 ff ff ff 7f   sub    QWORD PTR [rsp+0x7fffffff],r8
   10040a879: 4c 29 cc              sub    rsp,r9
   10040a87c: 49 2b 21              sub    rsp,QWORD PTR [r9]
   10040a87f: 4c 29 0c 24           sub    QWORD PTR [rsp],r9
   10040a883: 49 2b a1 ff ff ff 7f  sub    rsp,QWORD PTR [r9+0x7fffffff]
   10040a88a: 4c 29 8c 24 ff ff ff 7f   sub    QWORD PTR [rsp+0x7fffffff],r9
   10040a892: 4c 29 d4              sub    rsp,r10
   10040a895: 49 2b 22              sub    rsp,QWORD PTR [r10]
   10040a898: 4c 29 14 24           sub    QWORD PTR [rsp],r10
   10040a89c: 49 2b a2 ff ff ff 7f  sub    rsp,QWORD PTR [r10+0x7fffffff]
   10040a8a3: 4c 29 94 24 ff ff ff 7f   sub    QWORD PTR [rsp+0x7fffffff],r10
   10040a8ab: 4c 29 dc              sub    rsp,r11
   10040a8ae: 49 2b 23              sub    rsp,QWORD PTR [r11]
   10040a8b1: 4c 29 1c 24           sub    QWORD PTR [rsp],r11
   10040a8b5: 49 2b a3 ff ff ff 7f  sub    rsp,QWORD PTR [r11+0x7fffffff]
   10040a8bc: 4c 29 9c 24 ff ff ff 7f   sub    QWORD PTR [rsp+0x7fffffff],r11
   10040a8c4: 4c 29 e4              sub    rsp,r12
   10040a8c7: 49 2b 24 24           sub    rsp,QWORD PTR [r12]
   10040a8cb: 4c 29 24 24           sub    QWORD PTR [rsp],r12
   10040a8cf: 49 2b a4 24 ff ff ff 7f   sub    rsp,QWORD PTR [r12+0x7fffffff]
   10040a8d7: 4c 29 a4 24 ff ff ff 7f   sub    QWORD PTR [rsp+0x7fffffff],r12
   10040a8df: 4c 29 ec              sub    rsp,r13
   10040a8e2: 49 2b 65 00           sub    rsp,QWORD PTR [r13+0x0]
   10040a8e6: 4c 29 2c 24           sub    QWORD PTR [rsp],r13
   10040a8ea: 49 2b a5 ff ff ff 7f  sub    rsp,QWORD PTR [r13+0x7fffffff]
   10040a8f1: 4c 29 ac 24 ff ff ff 7f   sub    QWORD PTR [rsp+0x7fffffff],r13
   10040a8f9: 4c 29 f4              sub    rsp,r14
   10040a8fc: 49 2b 26              sub    rsp,QWORD PTR [r14]
   10040a8ff: 4c 29 34 24           sub    QWORD PTR [rsp],r14
   10040a903: 49 2b a6 ff ff ff 7f  sub    rsp,QWORD PTR [r14+0x7fffffff]
   10040a90a: 4c 29 b4 24 ff ff ff 7f   sub    QWORD PTR [rsp+0x7fffffff],r14
   10040a912: 4c 29 fc              sub    rsp,r15
   10040a915: 49 2b 27              sub    rsp,QWORD PTR [r15]
   10040a918: 4c 29 3c 24           sub    QWORD PTR [rsp],r15
   10040a91c: 49 2b a7 ff ff ff 7f  sub    rsp,QWORD PTR [r15+0x7fffffff]
   10040a923: 4c 29 bc 24 ff ff ff 7f   sub    QWORD PTR [rsp+0x7fffffff],r15
   10040a92b: 48 81 ed ff ff ff 7f  sub    rbp,0x7fffffff
   10040a932: 48 29 c5              sub    rbp,rax
   10040a935: 48 2b 28              sub    rbp,QWORD PTR [rax]
   10040a938: 48 29 45 00           sub    QWORD PTR [rbp+0x0],rax
   10040a93c: 48 2b a8 ff ff ff 7f  sub    rbp,QWORD PTR [rax+0x7fffffff]
   10040a943: 48 29 85 ff ff ff 7f  sub    QWORD PTR [rbp+0x7fffffff],rax
   10040a94a: 48 29 cd              sub    rbp,rcx
   10040a94d: 48 2b 29              sub    rbp,QWORD PTR [rcx]
   10040a950: 48 29 4d 00           sub    QWORD PTR [rbp+0x0],rcx
   10040a954: 48 2b a9 ff ff ff 7f  sub    rbp,QWORD PTR [rcx+0x7fffffff]
   10040a95b: 48 29 8d ff ff ff 7f  sub    QWORD PTR [rbp+0x7fffffff],rcx
   10040a962: 48 29 d5              sub    rbp,rdx
   10040a965: 48 2b 2a              sub    rbp,QWORD PTR [rdx]
   10040a968: 48 29 55 00           sub    QWORD PTR [rbp+0x0],rdx
   10040a96c: 48 2b aa ff ff ff 7f  sub    rbp,QWORD PTR [rdx+0x7fffffff]
   10040a973: 48 29 95 ff ff ff 7f  sub    QWORD PTR [rbp+0x7fffffff],rdx
   10040a97a: 48 29 dd              sub    rbp,rbx
   10040a97d: 48 2b 2b              sub    rbp,QWORD PTR [rbx]
   10040a980: 48 29 5d 00           sub    QWORD PTR [rbp+0x0],rbx
   10040a984: 48 2b ab ff ff ff 7f  sub    rbp,QWORD PTR [rbx+0x7fffffff]
   10040a98b: 48 29 9d ff ff ff 7f  sub    QWORD PTR [rbp+0x7fffffff],rbx
   10040a992: 48 29 e5              sub    rbp,rsp
   10040a995: 48 2b 2c 24           sub    rbp,QWORD PTR [rsp]
   10040a999: 48 29 65 00           sub    QWORD PTR [rbp+0x0],rsp
   10040a99d: 48 2b ac 24 ff ff ff 7f   sub    rbp,QWORD PTR [rsp+0x7fffffff]
   10040a9a5: 48 29 a5 ff ff ff 7f  sub    QWORD PTR [rbp+0x7fffffff],rsp
   10040a9ac: 48 29 ed              sub    rbp,rbp
   10040a9af: 48 2b 6d 00           sub    rbp,QWORD PTR [rbp+0x0]
   10040a9b3: 48 29 6d 00           sub    QWORD PTR [rbp+0x0],rbp
   10040a9b7: 48 2b ad ff ff ff 7f  sub    rbp,QWORD PTR [rbp+0x7fffffff]
   10040a9be: 48 29 ad ff ff ff 7f  sub    QWORD PTR [rbp+0x7fffffff],rbp
   10040a9c5: 48 29 f5              sub    rbp,rsi
   10040a9c8: 48 2b 2e              sub    rbp,QWORD PTR [rsi]
   10040a9cb: 48 29 75 00           sub    QWORD PTR [rbp+0x0],rsi
   10040a9cf: 48 2b ae ff ff ff 7f  sub    rbp,QWORD PTR [rsi+0x7fffffff]
   10040a9d6: 48 29 b5 ff ff ff 7f  sub    QWORD PTR [rbp+0x7fffffff],rsi
   10040a9dd: 48 29 fd              sub    rbp,rdi
   10040a9e0: 48 2b 2f              sub    rbp,QWORD PTR [rdi]
   10040a9e3: 48 29 7d 00           sub    QWORD PTR [rbp+0x0],rdi
   10040a9e7: 48 2b af ff ff ff 7f  sub    rbp,QWORD PTR [rdi+0x7fffffff]
   10040a9ee: 48 29 bd ff ff ff 7f  sub    QWORD PTR [rbp+0x7fffffff],rdi
   10040a9f5: 4c 29 c5              sub    rbp,r8
   10040a9f8: 49 2b 28              sub    rbp,QWORD PTR [r8]
   10040a9fb: 4c 29 45 00           sub    QWORD PTR [rbp+0x0],r8
   10040a9ff: 49 2b a8 ff ff ff 7f  sub    rbp,QWORD PTR [r8+0x7fffffff]
   10040aa06: 4c 29 85 ff ff ff 7f  sub    QWORD PTR [rbp+0x7fffffff],r8
   10040aa0d: 4c 29 cd              sub    rbp,r9
   10040aa10: 49 2b 29              sub    rbp,QWORD PTR [r9]
   10040aa13: 4c 29 4d 00           sub    QWORD PTR [rbp+0x0],r9
   10040aa17: 49 2b a9 ff ff ff 7f  sub    rbp,QWORD PTR [r9+0x7fffffff]
   10040aa1e: 4c 29 8d ff ff ff 7f  sub    QWORD PTR [rbp+0x7fffffff],r9
   10040aa25: 4c 29 d5              sub    rbp,r10
   10040aa28: 49 2b 2a              sub    rbp,QWORD PTR [r10]
   10040aa2b: 4c 29 55 00           sub    QWORD PTR [rbp+0x0],r10
   10040aa2f: 49 2b aa ff ff ff 7f  sub    rbp,QWORD PTR [r10+0x7fffffff]
   10040aa36: 4c 29 95 ff ff ff 7f  sub    QWORD PTR [rbp+0x7fffffff],r10
   10040aa3d: 4c 29 dd              sub    rbp,r11
   10040aa40: 49 2b 2b              sub    rbp,QWORD PTR [r11]
   10040aa43: 4c 29 5d 00           sub    QWORD PTR [rbp+0x0],r11
   10040aa47: 49 2b ab ff ff ff 7f  sub    rbp,QWORD PTR [r11+0x7fffffff]
   10040aa4e: 4c 29 9d ff ff ff 7f  sub    QWORD PTR [rbp+0x7fffffff],r11
   10040aa55: 4c 29 e5              sub    rbp,r12
   10040aa58: 49 2b 2c 24           sub    rbp,QWORD PTR [r12]
   10040aa5c: 4c 29 65 00           sub    QWORD PTR [rbp+0x0],r12
   10040aa60: 49 2b ac 24 ff ff ff 7f   sub    rbp,QWORD PTR [r12+0x7fffffff]
   10040aa68: 4c 29 a5 ff ff ff 7f  sub    QWORD PTR [rbp+0x7fffffff],r12
   10040aa6f: 4c 29 ed              sub    rbp,r13
   10040aa72: 49 2b 6d 00           sub    rbp,QWORD PTR [r13+0x0]
   10040aa76: 4c 29 6d 00           sub    QWORD PTR [rbp+0x0],r13
   10040aa7a: 49 2b ad ff ff ff 7f  sub    rbp,QWORD PTR [r13+0x7fffffff]
   10040aa81: 4c 29 ad ff ff ff 7f  sub    QWORD PTR [rbp+0x7fffffff],r13
   10040aa88: 4c 29 f5              sub    rbp,r14
   10040aa8b: 49 2b 2e              sub    rbp,QWORD PTR [r14]
   10040aa8e: 4c 29 75 00           sub    QWORD PTR [rbp+0x0],r14
   10040aa92: 49 2b ae ff ff ff 7f  sub    rbp,QWORD PTR [r14+0x7fffffff]
   10040aa99: 4c 29 b5 ff ff ff 7f  sub    QWORD PTR [rbp+0x7fffffff],r14
   10040aaa0: 4c 29 fd              sub    rbp,r15
   10040aaa3: 49 2b 2f              sub    rbp,QWORD PTR [r15]
   10040aaa6: 4c 29 7d 00           sub    QWORD PTR [rbp+0x0],r15
   10040aaaa: 49 2b af ff ff ff 7f  sub    rbp,QWORD PTR [r15+0x7fffffff]
   10040aab1: 4c 29 bd ff ff ff 7f  sub    QWORD PTR [rbp+0x7fffffff],r15
   10040aab8: 48 81 ee ff ff ff 7f  sub    rsi,0x7fffffff
   10040aabf: 48 29 c6              sub    rsi,rax
   10040aac2: 48 2b 30              sub    rsi,QWORD PTR [rax]
   10040aac5: 48 29 06              sub    QWORD PTR [rsi],rax
   10040aac8: 48 2b b0 ff ff ff 7f  sub    rsi,QWORD PTR [rax+0x7fffffff]
   10040aacf: 48 29 86 ff ff ff 7f  sub    QWORD PTR [rsi+0x7fffffff],rax
   10040aad6: 48 29 ce              sub    rsi,rcx
   10040aad9: 48 2b 31              sub    rsi,QWORD PTR [rcx]
   10040aadc: 48 29 0e              sub    QWORD PTR [rsi],rcx
   10040aadf: 48 2b b1 ff ff ff 7f  sub    rsi,QWORD PTR [rcx+0x7fffffff]
   10040aae6: 48 29 8e ff ff ff 7f  sub    QWORD PTR [rsi+0x7fffffff],rcx
   10040aaed: 48 29 d6              sub    rsi,rdx
   10040aaf0: 48 2b 32              sub    rsi,QWORD PTR [rdx]
   10040aaf3: 48 29 16              sub    QWORD PTR [rsi],rdx
   10040aaf6: 48 2b b2 ff ff ff 7f  sub    rsi,QWORD PTR [rdx+0x7fffffff]
   10040aafd: 48 29 96 ff ff ff 7f  sub    QWORD PTR [rsi+0x7fffffff],rdx
   10040ab04: 48 29 de              sub    rsi,rbx
   10040ab07: 48 2b 33              sub    rsi,QWORD PTR [rbx]
   10040ab0a: 48 29 1e              sub    QWORD PTR [rsi],rbx
   10040ab0d: 48 2b b3 ff ff ff 7f  sub    rsi,QWORD PTR [rbx+0x7fffffff]
   10040ab14: 48 29 9e ff ff ff 7f  sub    QWORD PTR [rsi+0x7fffffff],rbx
   10040ab1b: 48 29 e6              sub    rsi,rsp
   10040ab1e: 48 2b 34 24           sub    rsi,QWORD PTR [rsp]
   10040ab22: 48 29 26              sub    QWORD PTR [rsi],rsp
   10040ab25: 48 2b b4 24 ff ff ff 7f   sub    rsi,QWORD PTR [rsp+0x7fffffff]
   10040ab2d: 48 29 a6 ff ff ff 7f  sub    QWORD PTR [rsi+0x7fffffff],rsp
   10040ab34: 48 29 ee              sub    rsi,rbp
   10040ab37: 48 2b 75 00           sub    rsi,QWORD PTR [rbp+0x0]
   10040ab3b: 48 29 2e              sub    QWORD PTR [rsi],rbp
   10040ab3e: 48 2b b5 ff ff ff 7f  sub    rsi,QWORD PTR [rbp+0x7fffffff]
   10040ab45: 48 29 ae ff ff ff 7f  sub    QWORD PTR [rsi+0x7fffffff],rbp
   10040ab4c: 48 29 f6              sub    rsi,rsi
   10040ab4f: 48 2b 36              sub    rsi,QWORD PTR [rsi]
   10040ab52: 48 29 36              sub    QWORD PTR [rsi],rsi
   10040ab55: 48 2b b6 ff ff ff 7f  sub    rsi,QWORD PTR [rsi+0x7fffffff]
   10040ab5c: 48 29 b6 ff ff ff 7f  sub    QWORD PTR [rsi+0x7fffffff],rsi
   10040ab63: 48 29 fe              sub    rsi,rdi
   10040ab66: 48 2b 37              sub    rsi,QWORD PTR [rdi]
   10040ab69: 48 29 3e              sub    QWORD PTR [rsi],rdi
   10040ab6c: 48 2b b7 ff ff ff 7f  sub    rsi,QWORD PTR [rdi+0x7fffffff]
   10040ab73: 48 29 be ff ff ff 7f  sub    QWORD PTR [rsi+0x7fffffff],rdi
   10040ab7a: 4c 29 c6              sub    rsi,r8
   10040ab7d: 49 2b 30              sub    rsi,QWORD PTR [r8]
   10040ab80: 4c 29 06              sub    QWORD PTR [rsi],r8
   10040ab83: 49 2b b0 ff ff ff 7f  sub    rsi,QWORD PTR [r8+0x7fffffff]
   10040ab8a: 4c 29 86 ff ff ff 7f  sub    QWORD PTR [rsi+0x7fffffff],r8
   10040ab91: 4c 29 ce              sub    rsi,r9
   10040ab94: 49 2b 31              sub    rsi,QWORD PTR [r9]
   10040ab97: 4c 29 0e              sub    QWORD PTR [rsi],r9
   10040ab9a: 49 2b b1 ff ff ff 7f  sub    rsi,QWORD PTR [r9+0x7fffffff]
   10040aba1: 4c 29 8e ff ff ff 7f  sub    QWORD PTR [rsi+0x7fffffff],r9
   10040aba8: 4c 29 d6              sub    rsi,r10
   10040abab: 49 2b 32              sub    rsi,QWORD PTR [r10]
   10040abae: 4c 29 16              sub    QWORD PTR [rsi],r10
   10040abb1: 49 2b b2 ff ff ff 7f  sub    rsi,QWORD PTR [r10+0x7fffffff]
   10040abb8: 4c 29 96 ff ff ff 7f  sub    QWORD PTR [rsi+0x7fffffff],r10
   10040abbf: 4c 29 de              sub    rsi,r11
   10040abc2: 49 2b 33              sub    rsi,QWORD PTR [r11]
   10040abc5: 4c 29 1e              sub    QWORD PTR [rsi],r11
   10040abc8: 49 2b b3 ff ff ff 7f  sub    rsi,QWORD PTR [r11+0x7fffffff]
   10040abcf: 4c 29 9e ff ff ff 7f  sub    QWORD PTR [rsi+0x7fffffff],r11
   10040abd6: 4c 29 e6              sub    rsi,r12
   10040abd9: 49 2b 34 24           sub    rsi,QWORD PTR [r12]
   10040abdd: 4c 29 26              sub    QWORD PTR [rsi],r12
   10040abe0: 49 2b b4 24 ff ff ff 7f   sub    rsi,QWORD PTR [r12+0x7fffffff]
   10040abe8: 4c 29 a6 ff ff ff 7f  sub    QWORD PTR [rsi+0x7fffffff],r12
   10040abef: 4c 29 ee              sub    rsi,r13
   10040abf2: 49 2b 75 00           sub    rsi,QWORD PTR [r13+0x0]
   10040abf6: 4c 29 2e              sub    QWORD PTR [rsi],r13
   10040abf9: 49 2b b5 ff ff ff 7f  sub    rsi,QWORD PTR [r13+0x7fffffff]
   10040ac00: 4c 29 ae ff ff ff 7f  sub    QWORD PTR [rsi+0x7fffffff],r13
   10040ac07: 4c 29 f6              sub    rsi,r14
   10040ac0a: 49 2b 36              sub    rsi,QWORD PTR [r14]
   10040ac0d: 4c 29 36              sub    QWORD PTR [rsi],r14
   10040ac10: 49 2b b6 ff ff ff 7f  sub    rsi,QWORD PTR [r14+0x7fffffff]
   10040ac17: 4c 29 b6 ff ff ff 7f  sub    QWORD PTR [rsi+0x7fffffff],r14
   10040ac1e: 4c 29 fe              sub    rsi,r15
   10040ac21: 49 2b 37              sub    rsi,QWORD PTR [r15]
   10040ac24: 4c 29 3e              sub    QWORD PTR [rsi],r15
   10040ac27: 49 2b b7 ff ff ff 7f  sub    rsi,QWORD PTR [r15+0x7fffffff]
   10040ac2e: 4c 29 be ff ff ff 7f  sub    QWORD PTR [rsi+0x7fffffff],r15
   10040ac35: 48 81 ef ff ff ff 7f  sub    rdi,0x7fffffff
   10040ac3c: 48 29 c7              sub    rdi,rax
   10040ac3f: 48 2b 38              sub    rdi,QWORD PTR [rax]
   10040ac42: 48 29 07              sub    QWORD PTR [rdi],rax
   10040ac45: 48 2b b8 ff ff ff 7f  sub    rdi,QWORD PTR [rax+0x7fffffff]
   10040ac4c: 48 29 87 ff ff ff 7f  sub    QWORD PTR [rdi+0x7fffffff],rax
   10040ac53: 48 29 cf              sub    rdi,rcx
   10040ac56: 48 2b 39              sub    rdi,QWORD PTR [rcx]
   10040ac59: 48 29 0f              sub    QWORD PTR [rdi],rcx
   10040ac5c: 48 2b b9 ff ff ff 7f  sub    rdi,QWORD PTR [rcx+0x7fffffff]
   10040ac63: 48 29 8f ff ff ff 7f  sub    QWORD PTR [rdi+0x7fffffff],rcx
   10040ac6a: 48 29 d7              sub    rdi,rdx
   10040ac6d: 48 2b 3a              sub    rdi,QWORD PTR [rdx]
   10040ac70: 48 29 17              sub    QWORD PTR [rdi],rdx
   10040ac73: 48 2b ba ff ff ff 7f  sub    rdi,QWORD PTR [rdx+0x7fffffff]
   10040ac7a: 48 29 97 ff ff ff 7f  sub    QWORD PTR [rdi+0x7fffffff],rdx
   10040ac81: 48 29 df              sub    rdi,rbx
   10040ac84: 48 2b 3b              sub    rdi,QWORD PTR [rbx]
   10040ac87: 48 29 1f              sub    QWORD PTR [rdi],rbx
   10040ac8a: 48 2b bb ff ff ff 7f  sub    rdi,QWORD PTR [rbx+0x7fffffff]
   10040ac91: 48 29 9f ff ff ff 7f  sub    QWORD PTR [rdi+0x7fffffff],rbx
   10040ac98: 48 29 e7              sub    rdi,rsp
   10040ac9b: 48 2b 3c 24           sub    rdi,QWORD PTR [rsp]
   10040ac9f: 48 29 27              sub    QWORD PTR [rdi],rsp
   10040aca2: 48 2b bc 24 ff ff ff 7f   sub    rdi,QWORD PTR [rsp+0x7fffffff]
   10040acaa: 48 29 a7 ff ff ff 7f  sub    QWORD PTR [rdi+0x7fffffff],rsp
   10040acb1: 48 29 ef              sub    rdi,rbp
   10040acb4: 48 2b 7d 00           sub    rdi,QWORD PTR [rbp+0x0]
   10040acb8: 48 29 2f              sub    QWORD PTR [rdi],rbp
   10040acbb: 48 2b bd ff ff ff 7f  sub    rdi,QWORD PTR [rbp+0x7fffffff]
   10040acc2: 48 29 af ff ff ff 7f  sub    QWORD PTR [rdi+0x7fffffff],rbp
   10040acc9: 48 29 f7              sub    rdi,rsi
   10040accc: 48 2b 3e              sub    rdi,QWORD PTR [rsi]
   10040accf: 48 29 37              sub    QWORD PTR [rdi],rsi
   10040acd2: 48 2b be ff ff ff 7f  sub    rdi,QWORD PTR [rsi+0x7fffffff]
   10040acd9: 48 29 b7 ff ff ff 7f  sub    QWORD PTR [rdi+0x7fffffff],rsi
   10040ace0: 48 29 ff              sub    rdi,rdi
   10040ace3: 48 2b 3f              sub    rdi,QWORD PTR [rdi]
   10040ace6: 48 29 3f              sub    QWORD PTR [rdi],rdi
   10040ace9: 48 2b bf ff ff ff 7f  sub    rdi,QWORD PTR [rdi+0x7fffffff]
   10040acf0: 48 29 bf ff ff ff 7f  sub    QWORD PTR [rdi+0x7fffffff],rdi
   10040acf7: 4c 29 c7              sub    rdi,r8
   10040acfa: 49 2b 38              sub    rdi,QWORD PTR [r8]
   10040acfd: 4c 29 07              sub    QWORD PTR [rdi],r8
   10040ad00: 49 2b b8 ff ff ff 7f  sub    rdi,QWORD PTR [r8+0x7fffffff]
   10040ad07: 4c 29 87 ff ff ff 7f  sub    QWORD PTR [rdi+0x7fffffff],r8
   10040ad0e: 4c 29 cf              sub    rdi,r9
   10040ad11: 49 2b 39              sub    rdi,QWORD PTR [r9]
   10040ad14: 4c 29 0f              sub    QWORD PTR [rdi],r9
   10040ad17: 49 2b b9 ff ff ff 7f  sub    rdi,QWORD PTR [r9+0x7fffffff]
   10040ad1e: 4c 29 8f ff ff ff 7f  sub    QWORD PTR [rdi+0x7fffffff],r9
   10040ad25: 4c 29 d7              sub    rdi,r10
   10040ad28: 49 2b 3a              sub    rdi,QWORD PTR [r10]
   10040ad2b: 4c 29 17              sub    QWORD PTR [rdi],r10
   10040ad2e: 49 2b ba ff ff ff 7f  sub    rdi,QWORD PTR [r10+0x7fffffff]
   10040ad35: 4c 29 97 ff ff ff 7f  sub    QWORD PTR [rdi+0x7fffffff],r10
   10040ad3c: 4c 29 df              sub    rdi,r11
   10040ad3f: 49 2b 3b              sub    rdi,QWORD PTR [r11]
   10040ad42: 4c 29 1f              sub    QWORD PTR [rdi],r11
   10040ad45: 49 2b bb ff ff ff 7f  sub    rdi,QWORD PTR [r11+0x7fffffff]
   10040ad4c: 4c 29 9f ff ff ff 7f  sub    QWORD PTR [rdi+0x7fffffff],r11
   10040ad53: 4c 29 e7              sub    rdi,r12
   10040ad56: 49 2b 3c 24           sub    rdi,QWORD PTR [r12]
   10040ad5a: 4c 29 27              sub    QWORD PTR [rdi],r12
   10040ad5d: 49 2b bc 24 ff ff ff 7f   sub    rdi,QWORD PTR [r12+0x7fffffff]
   10040ad65: 4c 29 a7 ff ff ff 7f  sub    QWORD PTR [rdi+0x7fffffff],r12
   10040ad6c: 4c 29 ef              sub    rdi,r13
   10040ad6f: 49 2b 7d 00           sub    rdi,QWORD PTR [r13+0x0]
   10040ad73: 4c 29 2f              sub    QWORD PTR [rdi],r13
   10040ad76: 49 2b bd ff ff ff 7f  sub    rdi,QWORD PTR [r13+0x7fffffff]
   10040ad7d: 4c 29 af ff ff ff 7f  sub    QWORD PTR [rdi+0x7fffffff],r13
   10040ad84: 4c 29 f7              sub    rdi,r14
   10040ad87: 49 2b 3e              sub    rdi,QWORD PTR [r14]
   10040ad8a: 4c 29 37              sub    QWORD PTR [rdi],r14
   10040ad8d: 49 2b be ff ff ff 7f  sub    rdi,QWORD PTR [r14+0x7fffffff]
   10040ad94: 4c 29 b7 ff ff ff 7f  sub    QWORD PTR [rdi+0x7fffffff],r14
   10040ad9b: 4c 29 ff              sub    rdi,r15
   10040ad9e: 49 2b 3f              sub    rdi,QWORD PTR [r15]
   10040ada1: 4c 29 3f              sub    QWORD PTR [rdi],r15
   10040ada4: 49 2b bf ff ff ff 7f  sub    rdi,QWORD PTR [r15+0x7fffffff]
   10040adab: 4c 29 bf ff ff ff 7f  sub    QWORD PTR [rdi+0x7fffffff],r15
   10040adb2: 49 81 e8 ff ff ff 7f  sub    r8,0x7fffffff
   10040adb9: 49 29 c0              sub    r8,rax
   10040adbc: 4c 2b 00              sub    r8,QWORD PTR [rax]
   10040adbf: 49 29 00              sub    QWORD PTR [r8],rax
   10040adc2: 4c 2b 80 ff ff ff 7f  sub    r8,QWORD PTR [rax+0x7fffffff]
   10040adc9: 49 29 80 ff ff ff 7f  sub    QWORD PTR [r8+0x7fffffff],rax
   10040add0: 49 29 c8              sub    r8,rcx
   10040add3: 4c 2b 01              sub    r8,QWORD PTR [rcx]
   10040add6: 49 29 08              sub    QWORD PTR [r8],rcx
   10040add9: 4c 2b 81 ff ff ff 7f  sub    r8,QWORD PTR [rcx+0x7fffffff]
   10040ade0: 49 29 88 ff ff ff 7f  sub    QWORD PTR [r8+0x7fffffff],rcx
   10040ade7: 49 29 d0              sub    r8,rdx
   10040adea: 4c 2b 02              sub    r8,QWORD PTR [rdx]
   10040aded: 49 29 10              sub    QWORD PTR [r8],rdx
   10040adf0: 4c 2b 82 ff ff ff 7f  sub    r8,QWORD PTR [rdx+0x7fffffff]
   10040adf7: 49 29 90 ff ff ff 7f  sub    QWORD PTR [r8+0x7fffffff],rdx
   10040adfe: 49 29 d8              sub    r8,rbx
   10040ae01: 4c 2b 03              sub    r8,QWORD PTR [rbx]
   10040ae04: 49 29 18              sub    QWORD PTR [r8],rbx
   10040ae07: 4c 2b 83 ff ff ff 7f  sub    r8,QWORD PTR [rbx+0x7fffffff]
   10040ae0e: 49 29 98 ff ff ff 7f  sub    QWORD PTR [r8+0x7fffffff],rbx
   10040ae15: 49 29 e0              sub    r8,rsp
   10040ae18: 4c 2b 04 24           sub    r8,QWORD PTR [rsp]
   10040ae1c: 49 29 20              sub    QWORD PTR [r8],rsp
   10040ae1f: 4c 2b 84 24 ff ff ff 7f   sub    r8,QWORD PTR [rsp+0x7fffffff]
   10040ae27: 49 29 a0 ff ff ff 7f  sub    QWORD PTR [r8+0x7fffffff],rsp
   10040ae2e: 49 29 e8              sub    r8,rbp
   10040ae31: 4c 2b 45 00           sub    r8,QWORD PTR [rbp+0x0]
   10040ae35: 49 29 28              sub    QWORD PTR [r8],rbp
   10040ae38: 4c 2b 85 ff ff ff 7f  sub    r8,QWORD PTR [rbp+0x7fffffff]
   10040ae3f: 49 29 a8 ff ff ff 7f  sub    QWORD PTR [r8+0x7fffffff],rbp
   10040ae46: 49 29 f0              sub    r8,rsi
   10040ae49: 4c 2b 06              sub    r8,QWORD PTR [rsi]
   10040ae4c: 49 29 30              sub    QWORD PTR [r8],rsi
   10040ae4f: 4c 2b 86 ff ff ff 7f  sub    r8,QWORD PTR [rsi+0x7fffffff]
   10040ae56: 49 29 b0 ff ff ff 7f  sub    QWORD PTR [r8+0x7fffffff],rsi
   10040ae5d: 49 29 f8              sub    r8,rdi
   10040ae60: 4c 2b 07              sub    r8,QWORD PTR [rdi]
   10040ae63: 49 29 38              sub    QWORD PTR [r8],rdi
   10040ae66: 4c 2b 87 ff ff ff 7f  sub    r8,QWORD PTR [rdi+0x7fffffff]
   10040ae6d: 49 29 b8 ff ff ff 7f  sub    QWORD PTR [r8+0x7fffffff],rdi
   10040ae74: 4d 29 c0              sub    r8,r8
   10040ae77: 4d 2b 00              sub    r8,QWORD PTR [r8]
   10040ae7a: 4d 29 00              sub    QWORD PTR [r8],r8
   10040ae7d: 4d 2b 80 ff ff ff 7f  sub    r8,QWORD PTR [r8+0x7fffffff]
   10040ae84: 4d 29 80 ff ff ff 7f  sub    QWORD PTR [r8+0x7fffffff],r8
   10040ae8b: 4d 29 c8              sub    r8,r9
   10040ae8e: 4d 2b 01              sub    r8,QWORD PTR [r9]
   10040ae91: 4d 29 08              sub    QWORD PTR [r8],r9
   10040ae94: 4d 2b 81 ff ff ff 7f  sub    r8,QWORD PTR [r9+0x7fffffff]
   10040ae9b: 4d 29 88 ff ff ff 7f  sub    QWORD PTR [r8+0x7fffffff],r9
   10040aea2: 4d 29 d0              sub    r8,r10
   10040aea5: 4d 2b 02              sub    r8,QWORD PTR [r10]
   10040aea8: 4d 29 10              sub    QWORD PTR [r8],r10
   10040aeab: 4d 2b 82 ff ff ff 7f  sub    r8,QWORD PTR [r10+0x7fffffff]
   10040aeb2: 4d 29 90 ff ff ff 7f  sub    QWORD PTR [r8+0x7fffffff],r10
   10040aeb9: 4d 29 d8              sub    r8,r11
   10040aebc: 4d 2b 03              sub    r8,QWORD PTR [r11]
   10040aebf: 4d 29 18              sub    QWORD PTR [r8],r11
   10040aec2: 4d 2b 83 ff ff ff 7f  sub    r8,QWORD PTR [r11+0x7fffffff]
   10040aec9: 4d 29 98 ff ff ff 7f  sub    QWORD PTR [r8+0x7fffffff],r11
   10040aed0: 4d 29 e0              sub    r8,r12
   10040aed3: 4d 2b 04 24           sub    r8,QWORD PTR [r12]
   10040aed7: 4d 29 20              sub    QWORD PTR [r8],r12
   10040aeda: 4d 2b 84 24 ff ff ff 7f   sub    r8,QWORD PTR [r12+0x7fffffff]
   10040aee2: 4d 29 a0 ff ff ff 7f  sub    QWORD PTR [r8+0x7fffffff],r12
   10040aee9: 4d 29 e8              sub    r8,r13
   10040aeec: 4d 2b 45 00           sub    r8,QWORD PTR [r13+0x0]
   10040aef0: 4d 29 28              sub    QWORD PTR [r8],r13
   10040aef3: 4d 2b 85 ff ff ff 7f  sub    r8,QWORD PTR [r13+0x7fffffff]
   10040aefa: 4d 29 a8 ff ff ff 7f  sub    QWORD PTR [r8+0x7fffffff],r13
   10040af01: 4d 29 f0              sub    r8,r14
   10040af04: 4d 2b 06              sub    r8,QWORD PTR [r14]
   10040af07: 4d 29 30              sub    QWORD PTR [r8],r14
   10040af0a: 4d 2b 86 ff ff ff 7f  sub    r8,QWORD PTR [r14+0x7fffffff]
   10040af11: 4d 29 b0 ff ff ff 7f  sub    QWORD PTR [r8+0x7fffffff],r14
   10040af18: 4d 29 f8              sub    r8,r15
   10040af1b: 4d 2b 07              sub    r8,QWORD PTR [r15]
   10040af1e: 4d 29 38              sub    QWORD PTR [r8],r15
   10040af21: 4d 2b 87 ff ff ff 7f  sub    r8,QWORD PTR [r15+0x7fffffff]
   10040af28: 4d 29 b8 ff ff ff 7f  sub    QWORD PTR [r8+0x7fffffff],r15
   10040af2f: 49 81 e9 ff ff ff 7f  sub    r9,0x7fffffff
   10040af36: 49 29 c1              sub    r9,rax
   10040af39: 4c 2b 08              sub    r9,QWORD PTR [rax]
   10040af3c: 49 29 01              sub    QWORD PTR [r9],rax
   10040af3f: 4c 2b 88 ff ff ff 7f  sub    r9,QWORD PTR [rax+0x7fffffff]
   10040af46: 49 29 81 ff ff ff 7f  sub    QWORD PTR [r9+0x7fffffff],rax
   10040af4d: 49 29 c9              sub    r9,rcx
   10040af50: 4c 2b 09              sub    r9,QWORD PTR [rcx]
   10040af53: 49 29 09              sub    QWORD PTR [r9],rcx
   10040af56: 4c 2b 89 ff ff ff 7f  sub    r9,QWORD PTR [rcx+0x7fffffff]
   10040af5d: 49 29 89 ff ff ff 7f  sub    QWORD PTR [r9+0x7fffffff],rcx
   10040af64: 49 29 d1              sub    r9,rdx
   10040af67: 4c 2b 0a              sub    r9,QWORD PTR [rdx]
   10040af6a: 49 29 11              sub    QWORD PTR [r9],rdx
   10040af6d: 4c 2b 8a ff ff ff 7f  sub    r9,QWORD PTR [rdx+0x7fffffff]
   10040af74: 49 29 91 ff ff ff 7f  sub    QWORD PTR [r9+0x7fffffff],rdx
   10040af7b: 49 29 d9              sub    r9,rbx
   10040af7e: 4c 2b 0b              sub    r9,QWORD PTR [rbx]
   10040af81: 49 29 19              sub    QWORD PTR [r9],rbx
   10040af84: 4c 2b 8b ff ff ff 7f  sub    r9,QWORD PTR [rbx+0x7fffffff]
   10040af8b: 49 29 99 ff ff ff 7f  sub    QWORD PTR [r9+0x7fffffff],rbx
   10040af92: 49 29 e1              sub    r9,rsp
   10040af95: 4c 2b 0c 24           sub    r9,QWORD PTR [rsp]
   10040af99: 49 29 21              sub    QWORD PTR [r9],rsp
   10040af9c: 4c 2b 8c 24 ff ff ff 7f   sub    r9,QWORD PTR [rsp+0x7fffffff]
   10040afa4: 49 29 a1 ff ff ff 7f  sub    QWORD PTR [r9+0x7fffffff],rsp
   10040afab: 49 29 e9              sub    r9,rbp
   10040afae: 4c 2b 4d 00           sub    r9,QWORD PTR [rbp+0x0]
   10040afb2: 49 29 29              sub    QWORD PTR [r9],rbp
   10040afb5: 4c 2b 8d ff ff ff 7f  sub    r9,QWORD PTR [rbp+0x7fffffff]
   10040afbc: 49 29 a9 ff ff ff 7f  sub    QWORD PTR [r9+0x7fffffff],rbp
   10040afc3: 49 29 f1              sub    r9,rsi
   10040afc6: 4c 2b 0e              sub    r9,QWORD PTR [rsi]
   10040afc9: 49 29 31              sub    QWORD PTR [r9],rsi
   10040afcc: 4c 2b 8e ff ff ff 7f  sub    r9,QWORD PTR [rsi+0x7fffffff]
   10040afd3: 49 29 b1 ff ff ff 7f  sub    QWORD PTR [r9+0x7fffffff],rsi
   10040afda: 49 29 f9              sub    r9,rdi
   10040afdd: 4c 2b 0f              sub    r9,QWORD PTR [rdi]
   10040afe0: 49 29 39              sub    QWORD PTR [r9],rdi
   10040afe3: 4c 2b 8f ff ff ff 7f  sub    r9,QWORD PTR [rdi+0x7fffffff]
   10040afea: 49 29 b9 ff ff ff 7f  sub    QWORD PTR [r9+0x7fffffff],rdi
   10040aff1: 4d 29 c1              sub    r9,r8
   10040aff4: 4d 2b 08              sub    r9,QWORD PTR [r8]
   10040aff7: 4d 29 01              sub    QWORD PTR [r9],r8
   10040affa: 4d 2b 88 ff ff ff 7f  sub    r9,QWORD PTR [r8+0x7fffffff]
   10040b001: 4d 29 81 ff ff ff 7f  sub    QWORD PTR [r9+0x7fffffff],r8
   10040b008: 4d 29 c9              sub    r9,r9
   10040b00b: 4d 2b 09              sub    r9,QWORD PTR [r9]
   10040b00e: 4d 29 09              sub    QWORD PTR [r9],r9
   10040b011: 4d 2b 89 ff ff ff 7f  sub    r9,QWORD PTR [r9+0x7fffffff]
   10040b018: 4d 29 89 ff ff ff 7f  sub    QWORD PTR [r9+0x7fffffff],r9
   10040b01f: 4d 29 d1              sub    r9,r10
   10040b022: 4d 2b 0a              sub    r9,QWORD PTR [r10]
   10040b025: 4d 29 11              sub    QWORD PTR [r9],r10
   10040b028: 4d 2b 8a ff ff ff 7f  sub    r9,QWORD PTR [r10+0x7fffffff]
   10040b02f: 4d 29 91 ff ff ff 7f  sub    QWORD PTR [r9+0x7fffffff],r10
   10040b036: 4d 29 d9              sub    r9,r11
   10040b039: 4d 2b 0b              sub    r9,QWORD PTR [r11]
   10040b03c: 4d 29 19              sub    QWORD PTR [r9],r11
   10040b03f: 4d 2b 8b ff ff ff 7f  sub    r9,QWORD PTR [r11+0x7fffffff]
   10040b046: 4d 29 99 ff ff ff 7f  sub    QWORD PTR [r9+0x7fffffff],r11
   10040b04d: 4d 29 e1              sub    r9,r12
   10040b050: 4d 2b 0c 24           sub    r9,QWORD PTR [r12]
   10040b054: 4d 29 21              sub    QWORD PTR [r9],r12
   10040b057: 4d 2b 8c 24 ff ff ff 7f   sub    r9,QWORD PTR [r12+0x7fffffff]
   10040b05f: 4d 29 a1 ff ff ff 7f  sub    QWORD PTR [r9+0x7fffffff],r12
   10040b066: 4d 29 e9              sub    r9,r13
   10040b069: 4d 2b 4d 00           sub    r9,QWORD PTR [r13+0x0]
   10040b06d: 4d 29 29              sub    QWORD PTR [r9],r13
   10040b070: 4d 2b 8d ff ff ff 7f  sub    r9,QWORD PTR [r13+0x7fffffff]
   10040b077: 4d 29 a9 ff ff ff 7f  sub    QWORD PTR [r9+0x7fffffff],r13
   10040b07e: 4d 29 f1              sub    r9,r14
   10040b081: 4d 2b 0e              sub    r9,QWORD PTR [r14]
   10040b084: 4d 29 31              sub    QWORD PTR [r9],r14
   10040b087: 4d 2b 8e ff ff ff 7f  sub    r9,QWORD PTR [r14+0x7fffffff]
   10040b08e: 4d 29 b1 ff ff ff 7f  sub    QWORD PTR [r9+0x7fffffff],r14
   10040b095: 4d 29 f9              sub    r9,r15
   10040b098: 4d 2b 0f              sub    r9,QWORD PTR [r15]
   10040b09b: 4d 29 39              sub    QWORD PTR [r9],r15
   10040b09e: 4d 2b 8f ff ff ff 7f  sub    r9,QWORD PTR [r15+0x7fffffff]
   10040b0a5: 4d 29 b9 ff ff ff 7f  sub    QWORD PTR [r9+0x7fffffff],r15
   10040b0ac: 49 81 ea ff ff ff 7f  sub    r10,0x7fffffff
   10040b0b3: 49 29 c2              sub    r10,rax
   10040b0b6: 4c 2b 10              sub    r10,QWORD PTR [rax]
   10040b0b9: 49 29 02              sub    QWORD PTR [r10],rax
   10040b0bc: 4c 2b 90 ff ff ff 7f  sub    r10,QWORD PTR [rax+0x7fffffff]
   10040b0c3: 49 29 82 ff ff ff 7f  sub    QWORD PTR [r10+0x7fffffff],rax
   10040b0ca: 49 29 ca              sub    r10,rcx
   10040b0cd: 4c 2b 11              sub    r10,QWORD PTR [rcx]
   10040b0d0: 49 29 0a              sub    QWORD PTR [r10],rcx
   10040b0d3: 4c 2b 91 ff ff ff 7f  sub    r10,QWORD PTR [rcx+0x7fffffff]
   10040b0da: 49 29 8a ff ff ff 7f  sub    QWORD PTR [r10+0x7fffffff],rcx
   10040b0e1: 49 29 d2              sub    r10,rdx
   10040b0e4: 4c 2b 12              sub    r10,QWORD PTR [rdx]
   10040b0e7: 49 29 12              sub    QWORD PTR [r10],rdx
   10040b0ea: 4c 2b 92 ff ff ff 7f  sub    r10,QWORD PTR [rdx+0x7fffffff]
   10040b0f1: 49 29 92 ff ff ff 7f  sub    QWORD PTR [r10+0x7fffffff],rdx
   10040b0f8: 49 29 da              sub    r10,rbx
   10040b0fb: 4c 2b 13              sub    r10,QWORD PTR [rbx]
   10040b0fe: 49 29 1a              sub    QWORD PTR [r10],rbx
   10040b101: 4c 2b 93 ff ff ff 7f  sub    r10,QWORD PTR [rbx+0x7fffffff]
   10040b108: 49 29 9a ff ff ff 7f  sub    QWORD PTR [r10+0x7fffffff],rbx
   10040b10f: 49 29 e2              sub    r10,rsp
   10040b112: 4c 2b 14 24           sub    r10,QWORD PTR [rsp]
   10040b116: 49 29 22              sub    QWORD PTR [r10],rsp
   10040b119: 4c 2b 94 24 ff ff ff 7f   sub    r10,QWORD PTR [rsp+0x7fffffff]
   10040b121: 49 29 a2 ff ff ff 7f  sub    QWORD PTR [r10+0x7fffffff],rsp
   10040b128: 49 29 ea              sub    r10,rbp
   10040b12b: 4c 2b 55 00           sub    r10,QWORD PTR [rbp+0x0]
   10040b12f: 49 29 2a              sub    QWORD PTR [r10],rbp
   10040b132: 4c 2b 95 ff ff ff 7f  sub    r10,QWORD PTR [rbp+0x7fffffff]
   10040b139: 49 29 aa ff ff ff 7f  sub    QWORD PTR [r10+0x7fffffff],rbp
   10040b140: 49 29 f2              sub    r10,rsi
   10040b143: 4c 2b 16              sub    r10,QWORD PTR [rsi]
   10040b146: 49 29 32              sub    QWORD PTR [r10],rsi
   10040b149: 4c 2b 96 ff ff ff 7f  sub    r10,QWORD PTR [rsi+0x7fffffff]
   10040b150: 49 29 b2 ff ff ff 7f  sub    QWORD PTR [r10+0x7fffffff],rsi
   10040b157: 49 29 fa              sub    r10,rdi
   10040b15a: 4c 2b 17              sub    r10,QWORD PTR [rdi]
   10040b15d: 49 29 3a              sub    QWORD PTR [r10],rdi
   10040b160: 4c 2b 97 ff ff ff 7f  sub    r10,QWORD PTR [rdi+0x7fffffff]
   10040b167: 49 29 ba ff ff ff 7f  sub    QWORD PTR [r10+0x7fffffff],rdi
   10040b16e: 4d 29 c2              sub    r10,r8
   10040b171: 4d 2b 10              sub    r10,QWORD PTR [r8]
   10040b174: 4d 29 02              sub    QWORD PTR [r10],r8
   10040b177: 4d 2b 90 ff ff ff 7f  sub    r10,QWORD PTR [r8+0x7fffffff]
   10040b17e: 4d 29 82 ff ff ff 7f  sub    QWORD PTR [r10+0x7fffffff],r8
   10040b185: 4d 29 ca              sub    r10,r9
   10040b188: 4d 2b 11              sub    r10,QWORD PTR [r9]
   10040b18b: 4d 29 0a              sub    QWORD PTR [r10],r9
   10040b18e: 4d 2b 91 ff ff ff 7f  sub    r10,QWORD PTR [r9+0x7fffffff]
   10040b195: 4d 29 8a ff ff ff 7f  sub    QWORD PTR [r10+0x7fffffff],r9
   10040b19c: 4d 29 d2              sub    r10,r10
   10040b19f: 4d 2b 12              sub    r10,QWORD PTR [r10]
   10040b1a2: 4d 29 12              sub    QWORD PTR [r10],r10
   10040b1a5: 4d 2b 92 ff ff ff 7f  sub    r10,QWORD PTR [r10+0x7fffffff]
   10040b1ac: 4d 29 92 ff ff ff 7f  sub    QWORD PTR [r10+0x7fffffff],r10
   10040b1b3: 4d 29 da              sub    r10,r11
   10040b1b6: 4d 2b 13              sub    r10,QWORD PTR [r11]
   10040b1b9: 4d 29 1a              sub    QWORD PTR [r10],r11
   10040b1bc: 4d 2b 93 ff ff ff 7f  sub    r10,QWORD PTR [r11+0x7fffffff]
   10040b1c3: 4d 29 9a ff ff ff 7f  sub    QWORD PTR [r10+0x7fffffff],r11
   10040b1ca: 4d 29 e2              sub    r10,r12
   10040b1cd: 4d 2b 14 24           sub    r10,QWORD PTR [r12]
   10040b1d1: 4d 29 22              sub    QWORD PTR [r10],r12
   10040b1d4: 4d 2b 94 24 ff ff ff 7f   sub    r10,QWORD PTR [r12+0x7fffffff]
   10040b1dc: 4d 29 a2 ff ff ff 7f  sub    QWORD PTR [r10+0x7fffffff],r12
   10040b1e3: 4d 29 ea              sub    r10,r13
   10040b1e6: 4d 2b 55 00           sub    r10,QWORD PTR [r13+0x0]
   10040b1ea: 4d 29 2a              sub    QWORD PTR [r10],r13
   10040b1ed: 4d 2b 95 ff ff ff 7f  sub    r10,QWORD PTR [r13+0x7fffffff]
   10040b1f4: 4d 29 aa ff ff ff 7f  sub    QWORD PTR [r10+0x7fffffff],r13
   10040b1fb: 4d 29 f2              sub    r10,r14
   10040b1fe: 4d 2b 16              sub    r10,QWORD PTR [r14]
   10040b201: 4d 29 32              sub    QWORD PTR [r10],r14
   10040b204: 4d 2b 96 ff ff ff 7f  sub    r10,QWORD PTR [r14+0x7fffffff]
   10040b20b: 4d 29 b2 ff ff ff 7f  sub    QWORD PTR [r10+0x7fffffff],r14
   10040b212: 4d 29 fa              sub    r10,r15
   10040b215: 4d 2b 17              sub    r10,QWORD PTR [r15]
   10040b218: 4d 29 3a              sub    QWORD PTR [r10],r15
   10040b21b: 4d 2b 97 ff ff ff 7f  sub    r10,QWORD PTR [r15+0x7fffffff]
   10040b222: 4d 29 ba ff ff ff 7f  sub    QWORD PTR [r10+0x7fffffff],r15
   10040b229: 49 81 eb ff ff ff 7f  sub    r11,0x7fffffff
   10040b230: 49 29 c3              sub    r11,rax
   10040b233: 4c 2b 18              sub    r11,QWORD PTR [rax]
   10040b236: 49 29 03              sub    QWORD PTR [r11],rax
   10040b239: 4c 2b 98 ff ff ff 7f  sub    r11,QWORD PTR [rax+0x7fffffff]
   10040b240: 49 29 83 ff ff ff 7f  sub    QWORD PTR [r11+0x7fffffff],rax
   10040b247: 49 29 cb              sub    r11,rcx
   10040b24a: 4c 2b 19              sub    r11,QWORD PTR [rcx]
   10040b24d: 49 29 0b              sub    QWORD PTR [r11],rcx
   10040b250: 4c 2b 99 ff ff ff 7f  sub    r11,QWORD PTR [rcx+0x7fffffff]
   10040b257: 49 29 8b ff ff ff 7f  sub    QWORD PTR [r11+0x7fffffff],rcx
   10040b25e: 49 29 d3              sub    r11,rdx
   10040b261: 4c 2b 1a              sub    r11,QWORD PTR [rdx]
   10040b264: 49 29 13              sub    QWORD PTR [r11],rdx
   10040b267: 4c 2b 9a ff ff ff 7f  sub    r11,QWORD PTR [rdx+0x7fffffff]
   10040b26e: 49 29 93 ff ff ff 7f  sub    QWORD PTR [r11+0x7fffffff],rdx
   10040b275: 49 29 db              sub    r11,rbx
   10040b278: 4c 2b 1b              sub    r11,QWORD PTR [rbx]
   10040b27b: 49 29 1b              sub    QWORD PTR [r11],rbx
   10040b27e: 4c 2b 9b ff ff ff 7f  sub    r11,QWORD PTR [rbx+0x7fffffff]
   10040b285: 49 29 9b ff ff ff 7f  sub    QWORD PTR [r11+0x7fffffff],rbx
   10040b28c: 49 29 e3              sub    r11,rsp
   10040b28f: 4c 2b 1c 24           sub    r11,QWORD PTR [rsp]
   10040b293: 49 29 23              sub    QWORD PTR [r11],rsp
   10040b296: 4c 2b 9c 24 ff ff ff 7f   sub    r11,QWORD PTR [rsp+0x7fffffff]
   10040b29e: 49 29 a3 ff ff ff 7f  sub    QWORD PTR [r11+0x7fffffff],rsp
   10040b2a5: 49 29 eb              sub    r11,rbp
   10040b2a8: 4c 2b 5d 00           sub    r11,QWORD PTR [rbp+0x0]
   10040b2ac: 49 29 2b              sub    QWORD PTR [r11],rbp
   10040b2af: 4c 2b 9d ff ff ff 7f  sub    r11,QWORD PTR [rbp+0x7fffffff]
   10040b2b6: 49 29 ab ff ff ff 7f  sub    QWORD PTR [r11+0x7fffffff],rbp
   10040b2bd: 49 29 f3              sub    r11,rsi
   10040b2c0: 4c 2b 1e              sub    r11,QWORD PTR [rsi]
   10040b2c3: 49 29 33              sub    QWORD PTR [r11],rsi
   10040b2c6: 4c 2b 9e ff ff ff 7f  sub    r11,QWORD PTR [rsi+0x7fffffff]
   10040b2cd: 49 29 b3 ff ff ff 7f  sub    QWORD PTR [r11+0x7fffffff],rsi
   10040b2d4: 49 29 fb              sub    r11,rdi
   10040b2d7: 4c 2b 1f              sub    r11,QWORD PTR [rdi]
   10040b2da: 49 29 3b              sub    QWORD PTR [r11],rdi
   10040b2dd: 4c 2b 9f ff ff ff 7f  sub    r11,QWORD PTR [rdi+0x7fffffff]
   10040b2e4: 49 29 bb ff ff ff 7f  sub    QWORD PTR [r11+0x7fffffff],rdi
   10040b2eb: 4d 29 c3              sub    r11,r8
   10040b2ee: 4d 2b 18              sub    r11,QWORD PTR [r8]
   10040b2f1: 4d 29 03              sub    QWORD PTR [r11],r8
   10040b2f4: 4d 2b 98 ff ff ff 7f  sub    r11,QWORD PTR [r8+0x7fffffff]
   10040b2fb: 4d 29 83 ff ff ff 7f  sub    QWORD PTR [r11+0x7fffffff],r8
   10040b302: 4d 29 cb              sub    r11,r9
   10040b305: 4d 2b 19              sub    r11,QWORD PTR [r9]
   10040b308: 4d 29 0b              sub    QWORD PTR [r11],r9
   10040b30b: 4d 2b 99 ff ff ff 7f  sub    r11,QWORD PTR [r9+0x7fffffff]
   10040b312: 4d 29 8b ff ff ff 7f  sub    QWORD PTR [r11+0x7fffffff],r9
   10040b319: 4d 29 d3              sub    r11,r10
   10040b31c: 4d 2b 1a              sub    r11,QWORD PTR [r10]
   10040b31f: 4d 29 13              sub    QWORD PTR [r11],r10
   10040b322: 4d 2b 9a ff ff ff 7f  sub    r11,QWORD PTR [r10+0x7fffffff]
   10040b329: 4d 29 93 ff ff ff 7f  sub    QWORD PTR [r11+0x7fffffff],r10
   10040b330: 4d 29 db              sub    r11,r11
   10040b333: 4d 2b 1b              sub    r11,QWORD PTR [r11]
   10040b336: 4d 29 1b              sub    QWORD PTR [r11],r11
   10040b339: 4d 2b 9b ff ff ff 7f  sub    r11,QWORD PTR [r11+0x7fffffff]
   10040b340: 4d 29 9b ff ff ff 7f  sub    QWORD PTR [r11+0x7fffffff],r11
   10040b347: 4d 29 e3              sub    r11,r12
   10040b34a: 4d 2b 1c 24           sub    r11,QWORD PTR [r12]
   10040b34e: 4d 29 23              sub    QWORD PTR [r11],r12
   10040b351: 4d 2b 9c 24 ff ff ff 7f   sub    r11,QWORD PTR [r12+0x7fffffff]
   10040b359: 4d 29 a3 ff ff ff 7f  sub    QWORD PTR [r11+0x7fffffff],r12
   10040b360: 4d 29 eb              sub    r11,r13
   10040b363: 4d 2b 5d 00           sub    r11,QWORD PTR [r13+0x0]
   10040b367: 4d 29 2b              sub    QWORD PTR [r11],r13
   10040b36a: 4d 2b 9d ff ff ff 7f  sub    r11,QWORD PTR [r13+0x7fffffff]
   10040b371: 4d 29 ab ff ff ff 7f  sub    QWORD PTR [r11+0x7fffffff],r13
   10040b378: 4d 29 f3              sub    r11,r14
   10040b37b: 4d 2b 1e              sub    r11,QWORD PTR [r14]
   10040b37e: 4d 29 33              sub    QWORD PTR [r11],r14
   10040b381: 4d 2b 9e ff ff ff 7f  sub    r11,QWORD PTR [r14+0x7fffffff]
   10040b388: 4d 29 b3 ff ff ff 7f  sub    QWORD PTR [r11+0x7fffffff],r14
   10040b38f: 4d 29 fb              sub    r11,r15
   10040b392: 4d 2b 1f              sub    r11,QWORD PTR [r15]
   10040b395: 4d 29 3b              sub    QWORD PTR [r11],r15
   10040b398: 4d 2b 9f ff ff ff 7f  sub    r11,QWORD PTR [r15+0x7fffffff]
   10040b39f: 4d 29 bb ff ff ff 7f  sub    QWORD PTR [r11+0x7fffffff],r15
   10040b3a6: 49 81 ec ff ff ff 7f  sub    r12,0x7fffffff
   10040b3ad: 49 29 c4              sub    r12,rax
   10040b3b0: 4c 2b 20              sub    r12,QWORD PTR [rax]
   10040b3b3: 49 29 04 24           sub    QWORD PTR [r12],rax
   10040b3b7: 4c 2b a0 ff ff ff 7f  sub    r12,QWORD PTR [rax+0x7fffffff]
   10040b3be: 49 29 84 24 ff ff ff 7f   sub    QWORD PTR [r12+0x7fffffff],rax
   10040b3c6: 49 29 cc              sub    r12,rcx
   10040b3c9: 4c 2b 21              sub    r12,QWORD PTR [rcx]
   10040b3cc: 49 29 0c 24           sub    QWORD PTR [r12],rcx
   10040b3d0: 4c 2b a1 ff ff ff 7f  sub    r12,QWORD PTR [rcx+0x7fffffff]
   10040b3d7: 49 29 8c 24 ff ff ff 7f   sub    QWORD PTR [r12+0x7fffffff],rcx
   10040b3df: 49 29 d4              sub    r12,rdx
   10040b3e2: 4c 2b 22              sub    r12,QWORD PTR [rdx]
   10040b3e5: 49 29 14 24           sub    QWORD PTR [r12],rdx
   10040b3e9: 4c 2b a2 ff ff ff 7f  sub    r12,QWORD PTR [rdx+0x7fffffff]
   10040b3f0: 49 29 94 24 ff ff ff 7f   sub    QWORD PTR [r12+0x7fffffff],rdx
   10040b3f8: 49 29 dc              sub    r12,rbx
   10040b3fb: 4c 2b 23              sub    r12,QWORD PTR [rbx]
   10040b3fe: 49 29 1c 24           sub    QWORD PTR [r12],rbx
   10040b402: 4c 2b a3 ff ff ff 7f  sub    r12,QWORD PTR [rbx+0x7fffffff]
   10040b409: 49 29 9c 24 ff ff ff 7f   sub    QWORD PTR [r12+0x7fffffff],rbx
   10040b411: 49 29 e4              sub    r12,rsp
   10040b414: 4c 2b 24 24           sub    r12,QWORD PTR [rsp]
   10040b418: 49 29 24 24           sub    QWORD PTR [r12],rsp
   10040b41c: 4c 2b a4 24 ff ff ff 7f   sub    r12,QWORD PTR [rsp+0x7fffffff]
   10040b424: 49 29 a4 24 ff ff ff 7f   sub    QWORD PTR [r12+0x7fffffff],rsp
   10040b42c: 49 29 ec              sub    r12,rbp
   10040b42f: 4c 2b 65 00           sub    r12,QWORD PTR [rbp+0x0]
   10040b433: 49 29 2c 24           sub    QWORD PTR [r12],rbp
   10040b437: 4c 2b a5 ff ff ff 7f  sub    r12,QWORD PTR [rbp+0x7fffffff]
   10040b43e: 49 29 ac 24 ff ff ff 7f   sub    QWORD PTR [r12+0x7fffffff],rbp
   10040b446: 49 29 f4              sub    r12,rsi
   10040b449: 4c 2b 26              sub    r12,QWORD PTR [rsi]
   10040b44c: 49 29 34 24           sub    QWORD PTR [r12],rsi
   10040b450: 4c 2b a6 ff ff ff 7f  sub    r12,QWORD PTR [rsi+0x7fffffff]
   10040b457: 49 29 b4 24 ff ff ff 7f   sub    QWORD PTR [r12+0x7fffffff],rsi
   10040b45f: 49 29 fc              sub    r12,rdi
   10040b462: 4c 2b 27              sub    r12,QWORD PTR [rdi]
   10040b465: 49 29 3c 24           sub    QWORD PTR [r12],rdi
   10040b469: 4c 2b a7 ff ff ff 7f  sub    r12,QWORD PTR [rdi+0x7fffffff]
   10040b470: 49 29 bc 24 ff ff ff 7f   sub    QWORD PTR [r12+0x7fffffff],rdi
   10040b478: 4d 29 c4              sub    r12,r8
   10040b47b: 4d 2b 20              sub    r12,QWORD PTR [r8]
   10040b47e: 4d 29 04 24           sub    QWORD PTR [r12],r8
   10040b482: 4d 2b a0 ff ff ff 7f  sub    r12,QWORD PTR [r8+0x7fffffff]
   10040b489: 4d 29 84 24 ff ff ff 7f   sub    QWORD PTR [r12+0x7fffffff],r8
   10040b491: 4d 29 cc              sub    r12,r9
   10040b494: 4d 2b 21              sub    r12,QWORD PTR [r9]
   10040b497: 4d 29 0c 24           sub    QWORD PTR [r12],r9
   10040b49b: 4d 2b a1 ff ff ff 7f  sub    r12,QWORD PTR [r9+0x7fffffff]
   10040b4a2: 4d 29 8c 24 ff ff ff 7f   sub    QWORD PTR [r12+0x7fffffff],r9
   10040b4aa: 4d 29 d4              sub    r12,r10
   10040b4ad: 4d 2b 22              sub    r12,QWORD PTR [r10]
   10040b4b0: 4d 29 14 24           sub    QWORD PTR [r12],r10
   10040b4b4: 4d 2b a2 ff ff ff 7f  sub    r12,QWORD PTR [r10+0x7fffffff]
   10040b4bb: 4d 29 94 24 ff ff ff 7f   sub    QWORD PTR [r12+0x7fffffff],r10
   10040b4c3: 4d 29 dc              sub    r12,r11
   10040b4c6: 4d 2b 23              sub    r12,QWORD PTR [r11]
   10040b4c9: 4d 29 1c 24           sub    QWORD PTR [r12],r11
   10040b4cd: 4d 2b a3 ff ff ff 7f  sub    r12,QWORD PTR [r11+0x7fffffff]
   10040b4d4: 4d 29 9c 24 ff ff ff 7f   sub    QWORD PTR [r12+0x7fffffff],r11
   10040b4dc: 4d 29 e4              sub    r12,r12
   10040b4df: 4d 2b 24 24           sub    r12,QWORD PTR [r12]
   10040b4e3: 4d 29 24 24           sub    QWORD PTR [r12],r12
   10040b4e7: 4d 2b a4 24 ff ff ff 7f   sub    r12,QWORD PTR [r12+0x7fffffff]
   10040b4ef: 4d 29 a4 24 ff ff ff 7f   sub    QWORD PTR [r12+0x7fffffff],r12
   10040b4f7: 4d 29 ec              sub    r12,r13
   10040b4fa: 4d 2b 65 00           sub    r12,QWORD PTR [r13+0x0]
   10040b4fe: 4d 29 2c 24           sub    QWORD PTR [r12],r13
   10040b502: 4d 2b a5 ff ff ff 7f  sub    r12,QWORD PTR [r13+0x7fffffff]
   10040b509: 4d 29 ac 24 ff ff ff 7f   sub    QWORD PTR [r12+0x7fffffff],r13
   10040b511: 4d 29 f4              sub    r12,r14
   10040b514: 4d 2b 26              sub    r12,QWORD PTR [r14]
   10040b517: 4d 29 34 24           sub    QWORD PTR [r12],r14
   10040b51b: 4d 2b a6 ff ff ff 7f  sub    r12,QWORD PTR [r14+0x7fffffff]
   10040b522: 4d 29 b4 24 ff ff ff 7f   sub    QWORD PTR [r12+0x7fffffff],r14
   10040b52a: 4d 29 fc              sub    r12,r15
   10040b52d: 4d 2b 27              sub    r12,QWORD PTR [r15]
   10040b530: 4d 29 3c 24           sub    QWORD PTR [r12],r15
   10040b534: 4d 2b a7 ff ff ff 7f  sub    r12,QWORD PTR [r15+0x7fffffff]
   10040b53b: 4d 29 bc 24 ff ff ff 7f   sub    QWORD PTR [r12+0x7fffffff],r15
   10040b543: 49 81 ed ff ff ff 7f  sub    r13,0x7fffffff
   10040b54a: 49 29 c5              sub    r13,rax
   10040b54d: 4c 2b 28              sub    r13,QWORD PTR [rax]
   10040b550: 49 29 45 00           sub    QWORD PTR [r13+0x0],rax
   10040b554: 4c 2b a8 ff ff ff 7f  sub    r13,QWORD PTR [rax+0x7fffffff]
   10040b55b: 49 29 85 ff ff ff 7f  sub    QWORD PTR [r13+0x7fffffff],rax
   10040b562: 49 29 cd              sub    r13,rcx
   10040b565: 4c 2b 29              sub    r13,QWORD PTR [rcx]
   10040b568: 49 29 4d 00           sub    QWORD PTR [r13+0x0],rcx
   10040b56c: 4c 2b a9 ff ff ff 7f  sub    r13,QWORD PTR [rcx+0x7fffffff]
   10040b573: 49 29 8d ff ff ff 7f  sub    QWORD PTR [r13+0x7fffffff],rcx
   10040b57a: 49 29 d5              sub    r13,rdx
   10040b57d: 4c 2b 2a              sub    r13,QWORD PTR [rdx]
   10040b580: 49 29 55 00           sub    QWORD PTR [r13+0x0],rdx
   10040b584: 4c 2b aa ff ff ff 7f  sub    r13,QWORD PTR [rdx+0x7fffffff]
   10040b58b: 49 29 95 ff ff ff 7f  sub    QWORD PTR [r13+0x7fffffff],rdx
   10040b592: 49 29 dd              sub    r13,rbx
   10040b595: 4c 2b 2b              sub    r13,QWORD PTR [rbx]
   10040b598: 49 29 5d 00           sub    QWORD PTR [r13+0x0],rbx
   10040b59c: 4c 2b ab ff ff ff 7f  sub    r13,QWORD PTR [rbx+0x7fffffff]
   10040b5a3: 49 29 9d ff ff ff 7f  sub    QWORD PTR [r13+0x7fffffff],rbx
   10040b5aa: 49 29 e5              sub    r13,rsp
   10040b5ad: 4c 2b 2c 24           sub    r13,QWORD PTR [rsp]
   10040b5b1: 49 29 65 00           sub    QWORD PTR [r13+0x0],rsp
   10040b5b5: 4c 2b ac 24 ff ff ff 7f   sub    r13,QWORD PTR [rsp+0x7fffffff]
   10040b5bd: 49 29 a5 ff ff ff 7f  sub    QWORD PTR [r13+0x7fffffff],rsp
   10040b5c4: 49 29 ed              sub    r13,rbp
   10040b5c7: 4c 2b 6d 00           sub    r13,QWORD PTR [rbp+0x0]
   10040b5cb: 49 29 6d 00           sub    QWORD PTR [r13+0x0],rbp
   10040b5cf: 4c 2b ad ff ff ff 7f  sub    r13,QWORD PTR [rbp+0x7fffffff]
   10040b5d6: 49 29 ad ff ff ff 7f  sub    QWORD PTR [r13+0x7fffffff],rbp
   10040b5dd: 49 29 f5              sub    r13,rsi
   10040b5e0: 4c 2b 2e              sub    r13,QWORD PTR [rsi]
   10040b5e3: 49 29 75 00           sub    QWORD PTR [r13+0x0],rsi
   10040b5e7: 4c 2b ae ff ff ff 7f  sub    r13,QWORD PTR [rsi+0x7fffffff]
   10040b5ee: 49 29 b5 ff ff ff 7f  sub    QWORD PTR [r13+0x7fffffff],rsi
   10040b5f5: 49 29 fd              sub    r13,rdi
   10040b5f8: 4c 2b 2f              sub    r13,QWORD PTR [rdi]
   10040b5fb: 49 29 7d 00           sub    QWORD PTR [r13+0x0],rdi
   10040b5ff: 4c 2b af ff ff ff 7f  sub    r13,QWORD PTR [rdi+0x7fffffff]
   10040b606: 49 29 bd ff ff ff 7f  sub    QWORD PTR [r13+0x7fffffff],rdi
   10040b60d: 4d 29 c5              sub    r13,r8
   10040b610: 4d 2b 28              sub    r13,QWORD PTR [r8]
   10040b613: 4d 29 45 00           sub    QWORD PTR [r13+0x0],r8
   10040b617: 4d 2b a8 ff ff ff 7f  sub    r13,QWORD PTR [r8+0x7fffffff]
   10040b61e: 4d 29 85 ff ff ff 7f  sub    QWORD PTR [r13+0x7fffffff],r8
   10040b625: 4d 29 cd              sub    r13,r9
   10040b628: 4d 2b 29              sub    r13,QWORD PTR [r9]
   10040b62b: 4d 29 4d 00           sub    QWORD PTR [r13+0x0],r9
   10040b62f: 4d 2b a9 ff ff ff 7f  sub    r13,QWORD PTR [r9+0x7fffffff]
   10040b636: 4d 29 8d ff ff ff 7f  sub    QWORD PTR [r13+0x7fffffff],r9
   10040b63d: 4d 29 d5              sub    r13,r10
   10040b640: 4d 2b 2a              sub    r13,QWORD PTR [r10]
   10040b643: 4d 29 55 00           sub    QWORD PTR [r13+0x0],r10
   10040b647: 4d 2b aa ff ff ff 7f  sub    r13,QWORD PTR [r10+0x7fffffff]
   10040b64e: 4d 29 95 ff ff ff 7f  sub    QWORD PTR [r13+0x7fffffff],r10
   10040b655: 4d 29 dd              sub    r13,r11
   10040b658: 4d 2b 2b              sub    r13,QWORD PTR [r11]
   10040b65b: 4d 29 5d 00           sub    QWORD PTR [r13+0x0],r11
   10040b65f: 4d 2b ab ff ff ff 7f  sub    r13,QWORD PTR [r11+0x7fffffff]
   10040b666: 4d 29 9d ff ff ff 7f  sub    QWORD PTR [r13+0x7fffffff],r11
   10040b66d: 4d 29 e5              sub    r13,r12
   10040b670: 4d 2b 2c 24           sub    r13,QWORD PTR [r12]
   10040b674: 4d 29 65 00           sub    QWORD PTR [r13+0x0],r12
   10040b678: 4d 2b ac 24 ff ff ff 7f   sub    r13,QWORD PTR [r12+0x7fffffff]
   10040b680: 4d 29 a5 ff ff ff 7f  sub    QWORD PTR [r13+0x7fffffff],r12
   10040b687: 4d 29 ed              sub    r13,r13
   10040b68a: 4d 2b 6d 00           sub    r13,QWORD PTR [r13+0x0]
   10040b68e: 4d 29 6d 00           sub    QWORD PTR [r13+0x0],r13
   10040b692: 4d 2b ad ff ff ff 7f  sub    r13,QWORD PTR [r13+0x7fffffff]
   10040b699: 4d 29 ad ff ff ff 7f  sub    QWORD PTR [r13+0x7fffffff],r13
   10040b6a0: 4d 29 f5              sub    r13,r14
   10040b6a3: 4d 2b 2e              sub    r13,QWORD PTR [r14]
   10040b6a6: 4d 29 75 00           sub    QWORD PTR [r13+0x0],r14
   10040b6aa: 4d 2b ae ff ff ff 7f  sub    r13,QWORD PTR [r14+0x7fffffff]
   10040b6b1: 4d 29 b5 ff ff ff 7f  sub    QWORD PTR [r13+0x7fffffff],r14
   10040b6b8: 4d 29 fd              sub    r13,r15
   10040b6bb: 4d 2b 2f              sub    r13,QWORD PTR [r15]
   10040b6be: 4d 29 7d 00           sub    QWORD PTR [r13+0x0],r15
   10040b6c2: 4d 2b af ff ff ff 7f  sub    r13,QWORD PTR [r15+0x7fffffff]
   10040b6c9: 4d 29 bd ff ff ff 7f  sub    QWORD PTR [r13+0x7fffffff],r15
   10040b6d0: 49 81 ee ff ff ff 7f  sub    r14,0x7fffffff
   10040b6d7: 49 29 c6              sub    r14,rax
   10040b6da: 4c 2b 30              sub    r14,QWORD PTR [rax]
   10040b6dd: 49 29 06              sub    QWORD PTR [r14],rax
   10040b6e0: 4c 2b b0 ff ff ff 7f  sub    r14,QWORD PTR [rax+0x7fffffff]
   10040b6e7: 49 29 86 ff ff ff 7f  sub    QWORD PTR [r14+0x7fffffff],rax
   10040b6ee: 49 29 ce              sub    r14,rcx
   10040b6f1: 4c 2b 31              sub    r14,QWORD PTR [rcx]
   10040b6f4: 49 29 0e              sub    QWORD PTR [r14],rcx
   10040b6f7: 4c 2b b1 ff ff ff 7f  sub    r14,QWORD PTR [rcx+0x7fffffff]
   10040b6fe: 49 29 8e ff ff ff 7f  sub    QWORD PTR [r14+0x7fffffff],rcx
   10040b705: 49 29 d6              sub    r14,rdx
   10040b708: 4c 2b 32              sub    r14,QWORD PTR [rdx]
   10040b70b: 49 29 16              sub    QWORD PTR [r14],rdx
   10040b70e: 4c 2b b2 ff ff ff 7f  sub    r14,QWORD PTR [rdx+0x7fffffff]
   10040b715: 49 29 96 ff ff ff 7f  sub    QWORD PTR [r14+0x7fffffff],rdx
   10040b71c: 49 29 de              sub    r14,rbx
   10040b71f: 4c 2b 33              sub    r14,QWORD PTR [rbx]
   10040b722: 49 29 1e              sub    QWORD PTR [r14],rbx
   10040b725: 4c 2b b3 ff ff ff 7f  sub    r14,QWORD PTR [rbx+0x7fffffff]
   10040b72c: 49 29 9e ff ff ff 7f  sub    QWORD PTR [r14+0x7fffffff],rbx
   10040b733: 49 29 e6              sub    r14,rsp
   10040b736: 4c 2b 34 24           sub    r14,QWORD PTR [rsp]
   10040b73a: 49 29 26              sub    QWORD PTR [r14],rsp
   10040b73d: 4c 2b b4 24 ff ff ff 7f   sub    r14,QWORD PTR [rsp+0x7fffffff]
   10040b745: 49 29 a6 ff ff ff 7f  sub    QWORD PTR [r14+0x7fffffff],rsp
   10040b74c: 49 29 ee              sub    r14,rbp
   10040b74f: 4c 2b 75 00           sub    r14,QWORD PTR [rbp+0x0]
   10040b753: 49 29 2e              sub    QWORD PTR [r14],rbp
   10040b756: 4c 2b b5 ff ff ff 7f  sub    r14,QWORD PTR [rbp+0x7fffffff]
   10040b75d: 49 29 ae ff ff ff 7f  sub    QWORD PTR [r14+0x7fffffff],rbp
   10040b764: 49 29 f6              sub    r14,rsi
   10040b767: 4c 2b 36              sub    r14,QWORD PTR [rsi]
   10040b76a: 49 29 36              sub    QWORD PTR [r14],rsi
   10040b76d: 4c 2b b6 ff ff ff 7f  sub    r14,QWORD PTR [rsi+0x7fffffff]
   10040b774: 49 29 b6 ff ff ff 7f  sub    QWORD PTR [r14+0x7fffffff],rsi
   10040b77b: 49 29 fe              sub    r14,rdi
   10040b77e: 4c 2b 37              sub    r14,QWORD PTR [rdi]
   10040b781: 49 29 3e              sub    QWORD PTR [r14],rdi
   10040b784: 4c 2b b7 ff ff ff 7f  sub    r14,QWORD PTR [rdi+0x7fffffff]
   10040b78b: 49 29 be ff ff ff 7f  sub    QWORD PTR [r14+0x7fffffff],rdi
   10040b792: 4d 29 c6              sub    r14,r8
   10040b795: 4d 2b 30              sub    r14,QWORD PTR [r8]
   10040b798: 4d 29 06              sub    QWORD PTR [r14],r8
   10040b79b: 4d 2b b0 ff ff ff 7f  sub    r14,QWORD PTR [r8+0x7fffffff]
   10040b7a2: 4d 29 86 ff ff ff 7f  sub    QWORD PTR [r14+0x7fffffff],r8
   10040b7a9: 4d 29 ce              sub    r14,r9
   10040b7ac: 4d 2b 31              sub    r14,QWORD PTR [r9]
   10040b7af: 4d 29 0e              sub    QWORD PTR [r14],r9
   10040b7b2: 4d 2b b1 ff ff ff 7f  sub    r14,QWORD PTR [r9+0x7fffffff]
   10040b7b9: 4d 29 8e ff ff ff 7f  sub    QWORD PTR [r14+0x7fffffff],r9
   10040b7c0: 4d 29 d6              sub    r14,r10
   10040b7c3: 4d 2b 32              sub    r14,QWORD PTR [r10]
   10040b7c6: 4d 29 16              sub    QWORD PTR [r14],r10
   10040b7c9: 4d 2b b2 ff ff ff 7f  sub    r14,QWORD PTR [r10+0x7fffffff]
   10040b7d0: 4d 29 96 ff ff ff 7f  sub    QWORD PTR [r14+0x7fffffff],r10
   10040b7d7: 4d 29 de              sub    r14,r11
   10040b7da: 4d 2b 33              sub    r14,QWORD PTR [r11]
   10040b7dd: 4d 29 1e              sub    QWORD PTR [r14],r11
   10040b7e0: 4d 2b b3 ff ff ff 7f  sub    r14,QWORD PTR [r11+0x7fffffff]
   10040b7e7: 4d 29 9e ff ff ff 7f  sub    QWORD PTR [r14+0x7fffffff],r11
   10040b7ee: 4d 29 e6              sub    r14,r12
   10040b7f1: 4d 2b 34 24           sub    r14,QWORD PTR [r12]
   10040b7f5: 4d 29 26              sub    QWORD PTR [r14],r12
   10040b7f8: 4d 2b b4 24 ff ff ff 7f   sub    r14,QWORD PTR [r12+0x7fffffff]
   10040b800: 4d 29 a6 ff ff ff 7f  sub    QWORD PTR [r14+0x7fffffff],r12
   10040b807: 4d 29 ee              sub    r14,r13
   10040b80a: 4d 2b 75 00           sub    r14,QWORD PTR [r13+0x0]
   10040b80e: 4d 29 2e              sub    QWORD PTR [r14],r13
   10040b811: 4d 2b b5 ff ff ff 7f  sub    r14,QWORD PTR [r13+0x7fffffff]
   10040b818: 4d 29 ae ff ff ff 7f  sub    QWORD PTR [r14+0x7fffffff],r13
   10040b81f: 4d 29 f6              sub    r14,r14
   10040b822: 4d 2b 36              sub    r14,QWORD PTR [r14]
   10040b825: 4d 29 36              sub    QWORD PTR [r14],r14
   10040b828: 4d 2b b6 ff ff ff 7f  sub    r14,QWORD PTR [r14+0x7fffffff]
   10040b82f: 4d 29 b6 ff ff ff 7f  sub    QWORD PTR [r14+0x7fffffff],r14
   10040b836: 4d 29 fe              sub    r14,r15
   10040b839: 4d 2b 37              sub    r14,QWORD PTR [r15]
   10040b83c: 4d 29 3e              sub    QWORD PTR [r14],r15
   10040b83f: 4d 2b b7 ff ff ff 7f  sub    r14,QWORD PTR [r15+0x7fffffff]
   10040b846: 4d 29 be ff ff ff 7f  sub    QWORD PTR [r14+0x7fffffff],r15
   10040b84d: 49 81 ef ff ff ff 7f  sub    r15,0x7fffffff
   10040b854: 49 29 c7              sub    r15,rax
   10040b857: 4c 2b 38              sub    r15,QWORD PTR [rax]
   10040b85a: 49 29 07              sub    QWORD PTR [r15],rax
   10040b85d: 4c 2b b8 ff ff ff 7f  sub    r15,QWORD PTR [rax+0x7fffffff]
   10040b864: 49 29 87 ff ff ff 7f  sub    QWORD PTR [r15+0x7fffffff],rax
   10040b86b: 49 29 cf              sub    r15,rcx
   10040b86e: 4c 2b 39              sub    r15,QWORD PTR [rcx]
   10040b871: 49 29 0f              sub    QWORD PTR [r15],rcx
   10040b874: 4c 2b b9 ff ff ff 7f  sub    r15,QWORD PTR [rcx+0x7fffffff]
   10040b87b: 49 29 8f ff ff ff 7f  sub    QWORD PTR [r15+0x7fffffff],rcx
   10040b882: 49 29 d7              sub    r15,rdx
   10040b885: 4c 2b 3a              sub    r15,QWORD PTR [rdx]
   10040b888: 49 29 17              sub    QWORD PTR [r15],rdx
   10040b88b: 4c 2b ba ff ff ff 7f  sub    r15,QWORD PTR [rdx+0x7fffffff]
   10040b892: 49 29 97 ff ff ff 7f  sub    QWORD PTR [r15+0x7fffffff],rdx
   10040b899: 49 29 df              sub    r15,rbx
   10040b89c: 4c 2b 3b              sub    r15,QWORD PTR [rbx]
   10040b89f: 49 29 1f              sub    QWORD PTR [r15],rbx
   10040b8a2: 4c 2b bb ff ff ff 7f  sub    r15,QWORD PTR [rbx+0x7fffffff]
   10040b8a9: 49 29 9f ff ff ff 7f  sub    QWORD PTR [r15+0x7fffffff],rbx
   10040b8b0: 49 29 e7              sub    r15,rsp
   10040b8b3: 4c 2b 3c 24           sub    r15,QWORD PTR [rsp]
   10040b8b7: 49 29 27              sub    QWORD PTR [r15],rsp
   10040b8ba: 4c 2b bc 24 ff ff ff 7f   sub    r15,QWORD PTR [rsp+0x7fffffff]
   10040b8c2: 49 29 a7 ff ff ff 7f  sub    QWORD PTR [r15+0x7fffffff],rsp
   10040b8c9: 49 29 ef              sub    r15,rbp
   10040b8cc: 4c 2b 7d 00           sub    r15,QWORD PTR [rbp+0x0]
   10040b8d0: 49 29 2f              sub    QWORD PTR [r15],rbp
   10040b8d3: 4c 2b bd ff ff ff 7f  sub    r15,QWORD PTR [rbp+0x7fffffff]
   10040b8da: 49 29 af ff ff ff 7f  sub    QWORD PTR [r15+0x7fffffff],rbp
   10040b8e1: 49 29 f7              sub    r15,rsi
   10040b8e4: 4c 2b 3e              sub    r15,QWORD PTR [rsi]
   10040b8e7: 49 29 37              sub    QWORD PTR [r15],rsi
   10040b8ea: 4c 2b be ff ff ff 7f  sub    r15,QWORD PTR [rsi+0x7fffffff]
   10040b8f1: 49 29 b7 ff ff ff 7f  sub    QWORD PTR [r15+0x7fffffff],rsi
   10040b8f8: 49 29 ff              sub    r15,rdi
   10040b8fb: 4c 2b 3f              sub    r15,QWORD PTR [rdi]
   10040b8fe: 49 29 3f              sub    QWORD PTR [r15],rdi
   10040b901: 4c 2b bf ff ff ff 7f  sub    r15,QWORD PTR [rdi+0x7fffffff]
   10040b908: 49 29 bf ff ff ff 7f  sub    QWORD PTR [r15+0x7fffffff],rdi
   10040b90f: 4d 29 c7              sub    r15,r8
   10040b912: 4d 2b 38              sub    r15,QWORD PTR [r8]
   10040b915: 4d 29 07              sub    QWORD PTR [r15],r8
   10040b918: 4d 2b b8 ff ff ff 7f  sub    r15,QWORD PTR [r8+0x7fffffff]
   10040b91f: 4d 29 87 ff ff ff 7f  sub    QWORD PTR [r15+0x7fffffff],r8
   10040b926: 4d 29 cf              sub    r15,r9
   10040b929: 4d 2b 39              sub    r15,QWORD PTR [r9]
   10040b92c: 4d 29 0f              sub    QWORD PTR [r15],r9
   10040b92f: 4d 2b b9 ff ff ff 7f  sub    r15,QWORD PTR [r9+0x7fffffff]
   10040b936: 4d 29 8f ff ff ff 7f  sub    QWORD PTR [r15+0x7fffffff],r9
   10040b93d: 4d 29 d7              sub    r15,r10
   10040b940: 4d 2b 3a              sub    r15,QWORD PTR [r10]
   10040b943: 4d 29 17              sub    QWORD PTR [r15],r10
   10040b946: 4d 2b ba ff ff ff 7f  sub    r15,QWORD PTR [r10+0x7fffffff]
   10040b94d: 4d 29 97 ff ff ff 7f  sub    QWORD PTR [r15+0x7fffffff],r10
   10040b954: 4d 29 df              sub    r15,r11
   10040b957: 4d 2b 3b              sub    r15,QWORD PTR [r11]
   10040b95a: 4d 29 1f              sub    QWORD PTR [r15],r11
   10040b95d: 4d 2b bb ff ff ff 7f  sub    r15,QWORD PTR [r11+0x7fffffff]
   10040b964: 4d 29 9f ff ff ff 7f  sub    QWORD PTR [r15+0x7fffffff],r11
   10040b96b: 4d 29 e7              sub    r15,r12
   10040b96e: 4d 2b 3c 24           sub    r15,QWORD PTR [r12]
   10040b972: 4d 29 27              sub    QWORD PTR [r15],r12
   10040b975: 4d 2b bc 24 ff ff ff 7f   sub    r15,QWORD PTR [r12+0x7fffffff]
   10040b97d: 4d 29 a7 ff ff ff 7f  sub    QWORD PTR [r15+0x7fffffff],r12
   10040b984: 4d 29 ef              sub    r15,r13
   10040b987: 4d 2b 7d 00           sub    r15,QWORD PTR [r13+0x0]
   10040b98b: 4d 29 2f              sub    QWORD PTR [r15],r13
   10040b98e: 4d 2b bd ff ff ff 7f  sub    r15,QWORD PTR [r13+0x7fffffff]
   10040b995: 4d 29 af ff ff ff 7f  sub    QWORD PTR [r15+0x7fffffff],r13
   10040b99c: 4d 29 f7              sub    r15,r14
   10040b99f: 4d 2b 3e              sub    r15,QWORD PTR [r14]
   10040b9a2: 4d 29 37              sub    QWORD PTR [r15],r14
   10040b9a5: 4d 2b be ff ff ff 7f  sub    r15,QWORD PTR [r14+0x7fffffff]
   10040b9ac: 4d 29 b7 ff ff ff 7f  sub    QWORD PTR [r15+0x7fffffff],r14
   10040b9b3: 4d 29 ff              sub    r15,r15
   10040b9b6: 4d 2b 3f              sub    r15,QWORD PTR [r15]
   10040b9b9: 4d 29 3f              sub    QWORD PTR [r15],r15
   10040b9bc: 4d 2b bf ff ff ff 7f  sub    r15,QWORD PTR [r15+0x7fffffff]
   10040b9c3: 4d 29 bf ff ff ff 7f  sub    QWORD PTR [r15+0x7fffffff],r15
   10040b9ca: 48 35 ff ff ff 7f     xor    rax,0x7fffffff
   10040b9d0: 48 31 c0              xor    rax,rax
   10040b9d3: 48 33 00              xor    rax,QWORD PTR [rax]
   10040b9d6: 48 31 00              xor    QWORD PTR [rax],rax
   10040b9d9: 48 33 80 ff ff ff 7f  xor    rax,QWORD PTR [rax+0x7fffffff]
   10040b9e0: 48 31 80 ff ff ff 7f  xor    QWORD PTR [rax+0x7fffffff],rax
   10040b9e7: 48 31 c8              xor    rax,rcx
   10040b9ea: 48 33 01              xor    rax,QWORD PTR [rcx]
   10040b9ed: 48 31 08              xor    QWORD PTR [rax],rcx
   10040b9f0: 48 33 81 ff ff ff 7f  xor    rax,QWORD PTR [rcx+0x7fffffff]
   10040b9f7: 48 31 88 ff ff ff 7f  xor    QWORD PTR [rax+0x7fffffff],rcx
   10040b9fe: 48 31 d0              xor    rax,rdx
   10040ba01: 48 33 02              xor    rax,QWORD PTR [rdx]
   10040ba04: 48 31 10              xor    QWORD PTR [rax],rdx
   10040ba07: 48 33 82 ff ff ff 7f  xor    rax,QWORD PTR [rdx+0x7fffffff]
   10040ba0e: 48 31 90 ff ff ff 7f  xor    QWORD PTR [rax+0x7fffffff],rdx
   10040ba15: 48 31 d8              xor    rax,rbx
   10040ba18: 48 33 03              xor    rax,QWORD PTR [rbx]
   10040ba1b: 48 31 18              xor    QWORD PTR [rax],rbx
   10040ba1e: 48 33 83 ff ff ff 7f  xor    rax,QWORD PTR [rbx+0x7fffffff]
   10040ba25: 48 31 98 ff ff ff 7f  xor    QWORD PTR [rax+0x7fffffff],rbx
   10040ba2c: 48 31 e0              xor    rax,rsp
   10040ba2f: 48 33 04 24           xor    rax,QWORD PTR [rsp]
   10040ba33: 48 31 20              xor    QWORD PTR [rax],rsp
   10040ba36: 48 33 84 24 ff ff ff 7f   xor    rax,QWORD PTR [rsp+0x7fffffff]
   10040ba3e: 48 31 a0 ff ff ff 7f  xor    QWORD PTR [rax+0x7fffffff],rsp
   10040ba45: 48 31 e8              xor    rax,rbp
   10040ba48: 48 33 45 00           xor    rax,QWORD PTR [rbp+0x0]
   10040ba4c: 48 31 28              xor    QWORD PTR [rax],rbp
   10040ba4f: 48 33 85 ff ff ff 7f  xor    rax,QWORD PTR [rbp+0x7fffffff]
   10040ba56: 48 31 a8 ff ff ff 7f  xor    QWORD PTR [rax+0x7fffffff],rbp
   10040ba5d: 48 31 f0              xor    rax,rsi
   10040ba60: 48 33 06              xor    rax,QWORD PTR [rsi]
   10040ba63: 48 31 30              xor    QWORD PTR [rax],rsi
   10040ba66: 48 33 86 ff ff ff 7f  xor    rax,QWORD PTR [rsi+0x7fffffff]
   10040ba6d: 48 31 b0 ff ff ff 7f  xor    QWORD PTR [rax+0x7fffffff],rsi
   10040ba74: 48 31 f8              xor    rax,rdi
   10040ba77: 48 33 07              xor    rax,QWORD PTR [rdi]
   10040ba7a: 48 31 38              xor    QWORD PTR [rax],rdi
   10040ba7d: 48 33 87 ff ff ff 7f  xor    rax,QWORD PTR [rdi+0x7fffffff]
   10040ba84: 48 31 b8 ff ff ff 7f  xor    QWORD PTR [rax+0x7fffffff],rdi
   10040ba8b: 4c 31 c0              xor    rax,r8
   10040ba8e: 49 33 00              xor    rax,QWORD PTR [r8]
   10040ba91: 4c 31 00              xor    QWORD PTR [rax],r8
   10040ba94: 49 33 80 ff ff ff 7f  xor    rax,QWORD PTR [r8+0x7fffffff]
   10040ba9b: 4c 31 80 ff ff ff 7f  xor    QWORD PTR [rax+0x7fffffff],r8
   10040baa2: 4c 31 c8              xor    rax,r9
   10040baa5: 49 33 01              xor    rax,QWORD PTR [r9]
   10040baa8: 4c 31 08              xor    QWORD PTR [rax],r9
   10040baab: 49 33 81 ff ff ff 7f  xor    rax,QWORD PTR [r9+0x7fffffff]
   10040bab2: 4c 31 88 ff ff ff 7f  xor    QWORD PTR [rax+0x7fffffff],r9
   10040bab9: 4c 31 d0              xor    rax,r10
   10040babc: 49 33 02              xor    rax,QWORD PTR [r10]
   10040babf: 4c 31 10              xor    QWORD PTR [rax],r10
   10040bac2: 49 33 82 ff ff ff 7f  xor    rax,QWORD PTR [r10+0x7fffffff]
   10040bac9: 4c 31 90 ff ff ff 7f  xor    QWORD PTR [rax+0x7fffffff],r10
   10040bad0: 4c 31 d8              xor    rax,r11
   10040bad3: 49 33 03              xor    rax,QWORD PTR [r11]
   10040bad6: 4c 31 18              xor    QWORD PTR [rax],r11
   10040bad9: 49 33 83 ff ff ff 7f  xor    rax,QWORD PTR [r11+0x7fffffff]
   10040bae0: 4c 31 98 ff ff ff 7f  xor    QWORD PTR [rax+0x7fffffff],r11
   10040bae7: 4c 31 e0              xor    rax,r12
   10040baea: 49 33 04 24           xor    rax,QWORD PTR [r12]
   10040baee: 4c 31 20              xor    QWORD PTR [rax],r12
   10040baf1: 49 33 84 24 ff ff ff 7f   xor    rax,QWORD PTR [r12+0x7fffffff]
   10040baf9: 4c 31 a0 ff ff ff 7f  xor    QWORD PTR [rax+0x7fffffff],r12
   10040bb00: 4c 31 e8              xor    rax,r13
   10040bb03: 49 33 45 00           xor    rax,QWORD PTR [r13+0x0]
   10040bb07: 4c 31 28              xor    QWORD PTR [rax],r13
   10040bb0a: 49 33 85 ff ff ff 7f  xor    rax,QWORD PTR [r13+0x7fffffff]
   10040bb11: 4c 31 a8 ff ff ff 7f  xor    QWORD PTR [rax+0x7fffffff],r13
   10040bb18: 4c 31 f0              xor    rax,r14
   10040bb1b: 49 33 06              xor    rax,QWORD PTR [r14]
   10040bb1e: 4c 31 30              xor    QWORD PTR [rax],r14
   10040bb21: 49 33 86 ff ff ff 7f  xor    rax,QWORD PTR [r14+0x7fffffff]
   10040bb28: 4c 31 b0 ff ff ff 7f  xor    QWORD PTR [rax+0x7fffffff],r14
   10040bb2f: 4c 31 f8              xor    rax,r15
   10040bb32: 49 33 07              xor    rax,QWORD PTR [r15]
   10040bb35: 4c 31 38              xor    QWORD PTR [rax],r15
   10040bb38: 49 33 87 ff ff ff 7f  xor    rax,QWORD PTR [r15+0x7fffffff]
   10040bb3f: 4c 31 b8 ff ff ff 7f  xor    QWORD PTR [rax+0x7fffffff],r15
   10040bb46: 48 81 f1 ff ff ff 7f  xor    rcx,0x7fffffff
   10040bb4d: 48 31 c1              xor    rcx,rax
   10040bb50: 48 33 08              xor    rcx,QWORD PTR [rax]
   10040bb53: 48 31 01              xor    QWORD PTR [rcx],rax
   10040bb56: 48 33 88 ff ff ff 7f  xor    rcx,QWORD PTR [rax+0x7fffffff]
   10040bb5d: 48 31 81 ff ff ff 7f  xor    QWORD PTR [rcx+0x7fffffff],rax
   10040bb64: 48 31 c9              xor    rcx,rcx
   10040bb67: 48 33 09              xor    rcx,QWORD PTR [rcx]
   10040bb6a: 48 31 09              xor    QWORD PTR [rcx],rcx
   10040bb6d: 48 33 89 ff ff ff 7f  xor    rcx,QWORD PTR [rcx+0x7fffffff]
   10040bb74: 48 31 89 ff ff ff 7f  xor    QWORD PTR [rcx+0x7fffffff],rcx
   10040bb7b: 48 31 d1              xor    rcx,rdx
   10040bb7e: 48 33 0a              xor    rcx,QWORD PTR [rdx]
   10040bb81: 48 31 11              xor    QWORD PTR [rcx],rdx
   10040bb84: 48 33 8a ff ff ff 7f  xor    rcx,QWORD PTR [rdx+0x7fffffff]
   10040bb8b: 48 31 91 ff ff ff 7f  xor    QWORD PTR [rcx+0x7fffffff],rdx
   10040bb92: 48 31 d9              xor    rcx,rbx
   10040bb95: 48 33 0b              xor    rcx,QWORD PTR [rbx]
   10040bb98: 48 31 19              xor    QWORD PTR [rcx],rbx
   10040bb9b: 48 33 8b ff ff ff 7f  xor    rcx,QWORD PTR [rbx+0x7fffffff]
   10040bba2: 48 31 99 ff ff ff 7f  xor    QWORD PTR [rcx+0x7fffffff],rbx
   10040bba9: 48 31 e1              xor    rcx,rsp
   10040bbac: 48 33 0c 24           xor    rcx,QWORD PTR [rsp]
   10040bbb0: 48 31 21              xor    QWORD PTR [rcx],rsp
   10040bbb3: 48 33 8c 24 ff ff ff 7f   xor    rcx,QWORD PTR [rsp+0x7fffffff]
   10040bbbb: 48 31 a1 ff ff ff 7f  xor    QWORD PTR [rcx+0x7fffffff],rsp
   10040bbc2: 48 31 e9              xor    rcx,rbp
   10040bbc5: 48 33 4d 00           xor    rcx,QWORD PTR [rbp+0x0]
   10040bbc9: 48 31 29              xor    QWORD PTR [rcx],rbp
   10040bbcc: 48 33 8d ff ff ff 7f  xor    rcx,QWORD PTR [rbp+0x7fffffff]
   10040bbd3: 48 31 a9 ff ff ff 7f  xor    QWORD PTR [rcx+0x7fffffff],rbp
   10040bbda: 48 31 f1              xor    rcx,rsi
   10040bbdd: 48 33 0e              xor    rcx,QWORD PTR [rsi]
   10040bbe0: 48 31 31              xor    QWORD PTR [rcx],rsi
   10040bbe3: 48 33 8e ff ff ff 7f  xor    rcx,QWORD PTR [rsi+0x7fffffff]
   10040bbea: 48 31 b1 ff ff ff 7f  xor    QWORD PTR [rcx+0x7fffffff],rsi
   10040bbf1: 48 31 f9              xor    rcx,rdi
   10040bbf4: 48 33 0f              xor    rcx,QWORD PTR [rdi]
   10040bbf7: 48 31 39              xor    QWORD PTR [rcx],rdi
   10040bbfa: 48 33 8f ff ff ff 7f  xor    rcx,QWORD PTR [rdi+0x7fffffff]
   10040bc01: 48 31 b9 ff ff ff 7f  xor    QWORD PTR [rcx+0x7fffffff],rdi
   10040bc08: 4c 31 c1              xor    rcx,r8
   10040bc0b: 49 33 08              xor    rcx,QWORD PTR [r8]
   10040bc0e: 4c 31 01              xor    QWORD PTR [rcx],r8
   10040bc11: 49 33 88 ff ff ff 7f  xor    rcx,QWORD PTR [r8+0x7fffffff]
   10040bc18: 4c 31 81 ff ff ff 7f  xor    QWORD PTR [rcx+0x7fffffff],r8
   10040bc1f: 4c 31 c9              xor    rcx,r9
   10040bc22: 49 33 09              xor    rcx,QWORD PTR [r9]
   10040bc25: 4c 31 09              xor    QWORD PTR [rcx],r9
   10040bc28: 49 33 89 ff ff ff 7f  xor    rcx,QWORD PTR [r9+0x7fffffff]
   10040bc2f: 4c 31 89 ff ff ff 7f  xor    QWORD PTR [rcx+0x7fffffff],r9
   10040bc36: 4c 31 d1              xor    rcx,r10
   10040bc39: 49 33 0a              xor    rcx,QWORD PTR [r10]
   10040bc3c: 4c 31 11              xor    QWORD PTR [rcx],r10
   10040bc3f: 49 33 8a ff ff ff 7f  xor    rcx,QWORD PTR [r10+0x7fffffff]
   10040bc46: 4c 31 91 ff ff ff 7f  xor    QWORD PTR [rcx+0x7fffffff],r10
   10040bc4d: 4c 31 d9              xor    rcx,r11
   10040bc50: 49 33 0b              xor    rcx,QWORD PTR [r11]
   10040bc53: 4c 31 19              xor    QWORD PTR [rcx],r11
   10040bc56: 49 33 8b ff ff ff 7f  xor    rcx,QWORD PTR [r11+0x7fffffff]
   10040bc5d: 4c 31 99 ff ff ff 7f  xor    QWORD PTR [rcx+0x7fffffff],r11
   10040bc64: 4c 31 e1              xor    rcx,r12
   10040bc67: 49 33 0c 24           xor    rcx,QWORD PTR [r12]
   10040bc6b: 4c 31 21              xor    QWORD PTR [rcx],r12
   10040bc6e: 49 33 8c 24 ff ff ff 7f   xor    rcx,QWORD PTR [r12+0x7fffffff]
   10040bc76: 4c 31 a1 ff ff ff 7f  xor    QWORD PTR [rcx+0x7fffffff],r12
   10040bc7d: 4c 31 e9              xor    rcx,r13
   10040bc80: 49 33 4d 00           xor    rcx,QWORD PTR [r13+0x0]
   10040bc84: 4c 31 29              xor    QWORD PTR [rcx],r13
   10040bc87: 49 33 8d ff ff ff 7f  xor    rcx,QWORD PTR [r13+0x7fffffff]
   10040bc8e: 4c 31 a9 ff ff ff 7f  xor    QWORD PTR [rcx+0x7fffffff],r13
   10040bc95: 4c 31 f1              xor    rcx,r14
   10040bc98: 49 33 0e              xor    rcx,QWORD PTR [r14]
   10040bc9b: 4c 31 31              xor    QWORD PTR [rcx],r14
   10040bc9e: 49 33 8e ff ff ff 7f  xor    rcx,QWORD PTR [r14+0x7fffffff]
   10040bca5: 4c 31 b1 ff ff ff 7f  xor    QWORD PTR [rcx+0x7fffffff],r14
   10040bcac: 4c 31 f9              xor    rcx,r15
   10040bcaf: 49 33 0f              xor    rcx,QWORD PTR [r15]
   10040bcb2: 4c 31 39              xor    QWORD PTR [rcx],r15
   10040bcb5: 49 33 8f ff ff ff 7f  xor    rcx,QWORD PTR [r15+0x7fffffff]
   10040bcbc: 4c 31 b9 ff ff ff 7f  xor    QWORD PTR [rcx+0x7fffffff],r15
   10040bcc3: 48 81 f2 ff ff ff 7f  xor    rdx,0x7fffffff
   10040bcca: 48 31 c2              xor    rdx,rax
   10040bccd: 48 33 10              xor    rdx,QWORD PTR [rax]
   10040bcd0: 48 31 02              xor    QWORD PTR [rdx],rax
   10040bcd3: 48 33 90 ff ff ff 7f  xor    rdx,QWORD PTR [rax+0x7fffffff]
   10040bcda: 48 31 82 ff ff ff 7f  xor    QWORD PTR [rdx+0x7fffffff],rax
   10040bce1: 48 31 ca              xor    rdx,rcx
   10040bce4: 48 33 11              xor    rdx,QWORD PTR [rcx]
   10040bce7: 48 31 0a              xor    QWORD PTR [rdx],rcx
   10040bcea: 48 33 91 ff ff ff 7f  xor    rdx,QWORD PTR [rcx+0x7fffffff]
   10040bcf1: 48 31 8a ff ff ff 7f  xor    QWORD PTR [rdx+0x7fffffff],rcx
   10040bcf8: 48 31 d2              xor    rdx,rdx
   10040bcfb: 48 33 12              xor    rdx,QWORD PTR [rdx]
   10040bcfe: 48 31 12              xor    QWORD PTR [rdx],rdx
   10040bd01: 48 33 92 ff ff ff 7f  xor    rdx,QWORD PTR [rdx+0x7fffffff]
   10040bd08: 48 31 92 ff ff ff 7f  xor    QWORD PTR [rdx+0x7fffffff],rdx
   10040bd0f: 48 31 da              xor    rdx,rbx
   10040bd12: 48 33 13              xor    rdx,QWORD PTR [rbx]
   10040bd15: 48 31 1a              xor    QWORD PTR [rdx],rbx
   10040bd18: 48 33 93 ff ff ff 7f  xor    rdx,QWORD PTR [rbx+0x7fffffff]
   10040bd1f: 48 31 9a ff ff ff 7f  xor    QWORD PTR [rdx+0x7fffffff],rbx
   10040bd26: 48 31 e2              xor    rdx,rsp
   10040bd29: 48 33 14 24           xor    rdx,QWORD PTR [rsp]
   10040bd2d: 48 31 22              xor    QWORD PTR [rdx],rsp
   10040bd30: 48 33 94 24 ff ff ff 7f   xor    rdx,QWORD PTR [rsp+0x7fffffff]
   10040bd38: 48 31 a2 ff ff ff 7f  xor    QWORD PTR [rdx+0x7fffffff],rsp
   10040bd3f: 48 31 ea              xor    rdx,rbp
   10040bd42: 48 33 55 00           xor    rdx,QWORD PTR [rbp+0x0]
   10040bd46: 48 31 2a              xor    QWORD PTR [rdx],rbp
   10040bd49: 48 33 95 ff ff ff 7f  xor    rdx,QWORD PTR [rbp+0x7fffffff]
   10040bd50: 48 31 aa ff ff ff 7f  xor    QWORD PTR [rdx+0x7fffffff],rbp
   10040bd57: 48 31 f2              xor    rdx,rsi
   10040bd5a: 48 33 16              xor    rdx,QWORD PTR [rsi]
   10040bd5d: 48 31 32              xor    QWORD PTR [rdx],rsi
   10040bd60: 48 33 96 ff ff ff 7f  xor    rdx,QWORD PTR [rsi+0x7fffffff]
   10040bd67: 48 31 b2 ff ff ff 7f  xor    QWORD PTR [rdx+0x7fffffff],rsi
   10040bd6e: 48 31 fa              xor    rdx,rdi
   10040bd71: 48 33 17              xor    rdx,QWORD PTR [rdi]
   10040bd74: 48 31 3a              xor    QWORD PTR [rdx],rdi
   10040bd77: 48 33 97 ff ff ff 7f  xor    rdx,QWORD PTR [rdi+0x7fffffff]
   10040bd7e: 48 31 ba ff ff ff 7f  xor    QWORD PTR [rdx+0x7fffffff],rdi
   10040bd85: 4c 31 c2              xor    rdx,r8
   10040bd88: 49 33 10              xor    rdx,QWORD PTR [r8]
   10040bd8b: 4c 31 02              xor    QWORD PTR [rdx],r8
   10040bd8e: 49 33 90 ff ff ff 7f  xor    rdx,QWORD PTR [r8+0x7fffffff]
   10040bd95: 4c 31 82 ff ff ff 7f  xor    QWORD PTR [rdx+0x7fffffff],r8
   10040bd9c: 4c 31 ca              xor    rdx,r9
   10040bd9f: 49 33 11              xor    rdx,QWORD PTR [r9]
   10040bda2: 4c 31 0a              xor    QWORD PTR [rdx],r9
   10040bda5: 49 33 91 ff ff ff 7f  xor    rdx,QWORD PTR [r9+0x7fffffff]
   10040bdac: 4c 31 8a ff ff ff 7f  xor    QWORD PTR [rdx+0x7fffffff],r9
   10040bdb3: 4c 31 d2              xor    rdx,r10
   10040bdb6: 49 33 12              xor    rdx,QWORD PTR [r10]
   10040bdb9: 4c 31 12              xor    QWORD PTR [rdx],r10
   10040bdbc: 49 33 92 ff ff ff 7f  xor    rdx,QWORD PTR [r10+0x7fffffff]
   10040bdc3: 4c 31 92 ff ff ff 7f  xor    QWORD PTR [rdx+0x7fffffff],r10
   10040bdca: 4c 31 da              xor    rdx,r11
   10040bdcd: 49 33 13              xor    rdx,QWORD PTR [r11]
   10040bdd0: 4c 31 1a              xor    QWORD PTR [rdx],r11
   10040bdd3: 49 33 93 ff ff ff 7f  xor    rdx,QWORD PTR [r11+0x7fffffff]
   10040bdda: 4c 31 9a ff ff ff 7f  xor    QWORD PTR [rdx+0x7fffffff],r11
   10040bde1: 4c 31 e2              xor    rdx,r12
   10040bde4: 49 33 14 24           xor    rdx,QWORD PTR [r12]
   10040bde8: 4c 31 22              xor    QWORD PTR [rdx],r12
   10040bdeb: 49 33 94 24 ff ff ff 7f   xor    rdx,QWORD PTR [r12+0x7fffffff]
   10040bdf3: 4c 31 a2 ff ff ff 7f  xor    QWORD PTR [rdx+0x7fffffff],r12
   10040bdfa: 4c 31 ea              xor    rdx,r13
   10040bdfd: 49 33 55 00           xor    rdx,QWORD PTR [r13+0x0]
   10040be01: 4c 31 2a              xor    QWORD PTR [rdx],r13
   10040be04: 49 33 95 ff ff ff 7f  xor    rdx,QWORD PTR [r13+0x7fffffff]
   10040be0b: 4c 31 aa ff ff ff 7f  xor    QWORD PTR [rdx+0x7fffffff],r13
   10040be12: 4c 31 f2              xor    rdx,r14
   10040be15: 49 33 16              xor    rdx,QWORD PTR [r14]
   10040be18: 4c 31 32              xor    QWORD PTR [rdx],r14
   10040be1b: 49 33 96 ff ff ff 7f  xor    rdx,QWORD PTR [r14+0x7fffffff]
   10040be22: 4c 31 b2 ff ff ff 7f  xor    QWORD PTR [rdx+0x7fffffff],r14
   10040be29: 4c 31 fa              xor    rdx,r15
   10040be2c: 49 33 17              xor    rdx,QWORD PTR [r15]
   10040be2f: 4c 31 3a              xor    QWORD PTR [rdx],r15
   10040be32: 49 33 97 ff ff ff 7f  xor    rdx,QWORD PTR [r15+0x7fffffff]
   10040be39: 4c 31 ba ff ff ff 7f  xor    QWORD PTR [rdx+0x7fffffff],r15
   10040be40: 48 81 f3 ff ff ff 7f  xor    rbx,0x7fffffff
   10040be47: 48 31 c3              xor    rbx,rax
   10040be4a: 48 33 18              xor    rbx,QWORD PTR [rax]
   10040be4d: 48 31 03              xor    QWORD PTR [rbx],rax
   10040be50: 48 33 98 ff ff ff 7f  xor    rbx,QWORD PTR [rax+0x7fffffff]
   10040be57: 48 31 83 ff ff ff 7f  xor    QWORD PTR [rbx+0x7fffffff],rax
   10040be5e: 48 31 cb              xor    rbx,rcx
   10040be61: 48 33 19              xor    rbx,QWORD PTR [rcx]
   10040be64: 48 31 0b              xor    QWORD PTR [rbx],rcx
   10040be67: 48 33 99 ff ff ff 7f  xor    rbx,QWORD PTR [rcx+0x7fffffff]
   10040be6e: 48 31 8b ff ff ff 7f  xor    QWORD PTR [rbx+0x7fffffff],rcx
   10040be75: 48 31 d3              xor    rbx,rdx
   10040be78: 48 33 1a              xor    rbx,QWORD PTR [rdx]
   10040be7b: 48 31 13              xor    QWORD PTR [rbx],rdx
   10040be7e: 48 33 9a ff ff ff 7f  xor    rbx,QWORD PTR [rdx+0x7fffffff]
   10040be85: 48 31 93 ff ff ff 7f  xor    QWORD PTR [rbx+0x7fffffff],rdx
   10040be8c: 48 31 db              xor    rbx,rbx
   10040be8f: 48 33 1b              xor    rbx,QWORD PTR [rbx]
   10040be92: 48 31 1b              xor    QWORD PTR [rbx],rbx
   10040be95: 48 33 9b ff ff ff 7f  xor    rbx,QWORD PTR [rbx+0x7fffffff]
   10040be9c: 48 31 9b ff ff ff 7f  xor    QWORD PTR [rbx+0x7fffffff],rbx
   10040bea3: 48 31 e3              xor    rbx,rsp
   10040bea6: 48 33 1c 24           xor    rbx,QWORD PTR [rsp]
   10040beaa: 48 31 23              xor    QWORD PTR [rbx],rsp
   10040bead: 48 33 9c 24 ff ff ff 7f   xor    rbx,QWORD PTR [rsp+0x7fffffff]
   10040beb5: 48 31 a3 ff ff ff 7f  xor    QWORD PTR [rbx+0x7fffffff],rsp
   10040bebc: 48 31 eb              xor    rbx,rbp
   10040bebf: 48 33 5d 00           xor    rbx,QWORD PTR [rbp+0x0]
   10040bec3: 48 31 2b              xor    QWORD PTR [rbx],rbp
   10040bec6: 48 33 9d ff ff ff 7f  xor    rbx,QWORD PTR [rbp+0x7fffffff]
   10040becd: 48 31 ab ff ff ff 7f  xor    QWORD PTR [rbx+0x7fffffff],rbp
   10040bed4: 48 31 f3              xor    rbx,rsi
   10040bed7: 48 33 1e              xor    rbx,QWORD PTR [rsi]
   10040beda: 48 31 33              xor    QWORD PTR [rbx],rsi
   10040bedd: 48 33 9e ff ff ff 7f  xor    rbx,QWORD PTR [rsi+0x7fffffff]
   10040bee4: 48 31 b3 ff ff ff 7f  xor    QWORD PTR [rbx+0x7fffffff],rsi
   10040beeb: 48 31 fb              xor    rbx,rdi
   10040beee: 48 33 1f              xor    rbx,QWORD PTR [rdi]
   10040bef1: 48 31 3b              xor    QWORD PTR [rbx],rdi
   10040bef4: 48 33 9f ff ff ff 7f  xor    rbx,QWORD PTR [rdi+0x7fffffff]
   10040befb: 48 31 bb ff ff ff 7f  xor    QWORD PTR [rbx+0x7fffffff],rdi
   10040bf02: 4c 31 c3              xor    rbx,r8
   10040bf05: 49 33 18              xor    rbx,QWORD PTR [r8]
   10040bf08: 4c 31 03              xor    QWORD PTR [rbx],r8
   10040bf0b: 49 33 98 ff ff ff 7f  xor    rbx,QWORD PTR [r8+0x7fffffff]
   10040bf12: 4c 31 83 ff ff ff 7f  xor    QWORD PTR [rbx+0x7fffffff],r8
   10040bf19: 4c 31 cb              xor    rbx,r9
   10040bf1c: 49 33 19              xor    rbx,QWORD PTR [r9]
   10040bf1f: 4c 31 0b              xor    QWORD PTR [rbx],r9
   10040bf22: 49 33 99 ff ff ff 7f  xor    rbx,QWORD PTR [r9+0x7fffffff]
   10040bf29: 4c 31 8b ff ff ff 7f  xor    QWORD PTR [rbx+0x7fffffff],r9
   10040bf30: 4c 31 d3              xor    rbx,r10
   10040bf33: 49 33 1a              xor    rbx,QWORD PTR [r10]
   10040bf36: 4c 31 13              xor    QWORD PTR [rbx],r10
   10040bf39: 49 33 9a ff ff ff 7f  xor    rbx,QWORD PTR [r10+0x7fffffff]
   10040bf40: 4c 31 93 ff ff ff 7f  xor    QWORD PTR [rbx+0x7fffffff],r10
   10040bf47: 4c 31 db              xor    rbx,r11
   10040bf4a: 49 33 1b              xor    rbx,QWORD PTR [r11]
   10040bf4d: 4c 31 1b              xor    QWORD PTR [rbx],r11
   10040bf50: 49 33 9b ff ff ff 7f  xor    rbx,QWORD PTR [r11+0x7fffffff]
   10040bf57: 4c 31 9b ff ff ff 7f  xor    QWORD PTR [rbx+0x7fffffff],r11
   10040bf5e: 4c 31 e3              xor    rbx,r12
   10040bf61: 49 33 1c 24           xor    rbx,QWORD PTR [r12]
   10040bf65: 4c 31 23              xor    QWORD PTR [rbx],r12
   10040bf68: 49 33 9c 24 ff ff ff 7f   xor    rbx,QWORD PTR [r12+0x7fffffff]
   10040bf70: 4c 31 a3 ff ff ff 7f  xor    QWORD PTR [rbx+0x7fffffff],r12
   10040bf77: 4c 31 eb              xor    rbx,r13
   10040bf7a: 49 33 5d 00           xor    rbx,QWORD PTR [r13+0x0]
   10040bf7e: 4c 31 2b              xor    QWORD PTR [rbx],r13
   10040bf81: 49 33 9d ff ff ff 7f  xor    rbx,QWORD PTR [r13+0x7fffffff]
   10040bf88: 4c 31 ab ff ff ff 7f  xor    QWORD PTR [rbx+0x7fffffff],r13
   10040bf8f: 4c 31 f3              xor    rbx,r14
   10040bf92: 49 33 1e              xor    rbx,QWORD PTR [r14]
   10040bf95: 4c 31 33              xor    QWORD PTR [rbx],r14
   10040bf98: 49 33 9e ff ff ff 7f  xor    rbx,QWORD PTR [r14+0x7fffffff]
   10040bf9f: 4c 31 b3 ff ff ff 7f  xor    QWORD PTR [rbx+0x7fffffff],r14
   10040bfa6: 4c 31 fb              xor    rbx,r15
   10040bfa9: 49 33 1f              xor    rbx,QWORD PTR [r15]
   10040bfac: 4c 31 3b              xor    QWORD PTR [rbx],r15
   10040bfaf: 49 33 9f ff ff ff 7f  xor    rbx,QWORD PTR [r15+0x7fffffff]
   10040bfb6: 4c 31 bb ff ff ff 7f  xor    QWORD PTR [rbx+0x7fffffff],r15
   10040bfbd: 48 81 f4 ff ff ff 7f  xor    rsp,0x7fffffff
   10040bfc4: 48 31 c4              xor    rsp,rax
   10040bfc7: 48 33 20              xor    rsp,QWORD PTR [rax]
   10040bfca: 48 31 04 24           xor    QWORD PTR [rsp],rax
   10040bfce: 48 33 a0 ff ff ff 7f  xor    rsp,QWORD PTR [rax+0x7fffffff]
   10040bfd5: 48 31 84 24 ff ff ff 7f   xor    QWORD PTR [rsp+0x7fffffff],rax
   10040bfdd: 48 31 cc              xor    rsp,rcx
   10040bfe0: 48 33 21              xor    rsp,QWORD PTR [rcx]
   10040bfe3: 48 31 0c 24           xor    QWORD PTR [rsp],rcx
   10040bfe7: 48 33 a1 ff ff ff 7f  xor    rsp,QWORD PTR [rcx+0x7fffffff]
   10040bfee: 48 31 8c 24 ff ff ff 7f   xor    QWORD PTR [rsp+0x7fffffff],rcx
   10040bff6: 48 31 d4              xor    rsp,rdx
   10040bff9: 48 33 22              xor    rsp,QWORD PTR [rdx]
   10040bffc: 48 31 14 24           xor    QWORD PTR [rsp],rdx
   10040c000: 48 33 a2 ff ff ff 7f  xor    rsp,QWORD PTR [rdx+0x7fffffff]
   10040c007: 48 31 94 24 ff ff ff 7f   xor    QWORD PTR [rsp+0x7fffffff],rdx
   10040c00f: 48 31 dc              xor    rsp,rbx
   10040c012: 48 33 23              xor    rsp,QWORD PTR [rbx]
   10040c015: 48 31 1c 24           xor    QWORD PTR [rsp],rbx
   10040c019: 48 33 a3 ff ff ff 7f  xor    rsp,QWORD PTR [rbx+0x7fffffff]
   10040c020: 48 31 9c 24 ff ff ff 7f   xor    QWORD PTR [rsp+0x7fffffff],rbx
   10040c028: 48 31 e4              xor    rsp,rsp
   10040c02b: 48 33 24 24           xor    rsp,QWORD PTR [rsp]
   10040c02f: 48 31 24 24           xor    QWORD PTR [rsp],rsp
   10040c033: 48 33 a4 24 ff ff ff 7f   xor    rsp,QWORD PTR [rsp+0x7fffffff]
   10040c03b: 48 31 a4 24 ff ff ff 7f   xor    QWORD PTR [rsp+0x7fffffff],rsp
   10040c043: 48 31 ec              xor    rsp,rbp
   10040c046: 48 33 65 00           xor    rsp,QWORD PTR [rbp+0x0]
   10040c04a: 48 31 2c 24           xor    QWORD PTR [rsp],rbp
   10040c04e: 48 33 a5 ff ff ff 7f  xor    rsp,QWORD PTR [rbp+0x7fffffff]
   10040c055: 48 31 ac 24 ff ff ff 7f   xor    QWORD PTR [rsp+0x7fffffff],rbp
   10040c05d: 48 31 f4              xor    rsp,rsi
   10040c060: 48 33 26              xor    rsp,QWORD PTR [rsi]
   10040c063: 48 31 34 24           xor    QWORD PTR [rsp],rsi
   10040c067: 48 33 a6 ff ff ff 7f  xor    rsp,QWORD PTR [rsi+0x7fffffff]
   10040c06e: 48 31 b4 24 ff ff ff 7f   xor    QWORD PTR [rsp+0x7fffffff],rsi
   10040c076: 48 31 fc              xor    rsp,rdi
   10040c079: 48 33 27              xor    rsp,QWORD PTR [rdi]
   10040c07c: 48 31 3c 24           xor    QWORD PTR [rsp],rdi
   10040c080: 48 33 a7 ff ff ff 7f  xor    rsp,QWORD PTR [rdi+0x7fffffff]
   10040c087: 48 31 bc 24 ff ff ff 7f   xor    QWORD PTR [rsp+0x7fffffff],rdi
   10040c08f: 4c 31 c4              xor    rsp,r8
   10040c092: 49 33 20              xor    rsp,QWORD PTR [r8]
   10040c095: 4c 31 04 24           xor    QWORD PTR [rsp],r8
   10040c099: 49 33 a0 ff ff ff 7f  xor    rsp,QWORD PTR [r8+0x7fffffff]
   10040c0a0: 4c 31 84 24 ff ff ff 7f   xor    QWORD PTR [rsp+0x7fffffff],r8
   10040c0a8: 4c 31 cc              xor    rsp,r9
   10040c0ab: 49 33 21              xor    rsp,QWORD PTR [r9]
   10040c0ae: 4c 31 0c 24           xor    QWORD PTR [rsp],r9
   10040c0b2: 49 33 a1 ff ff ff 7f  xor    rsp,QWORD PTR [r9+0x7fffffff]
   10040c0b9: 4c 31 8c 24 ff ff ff 7f   xor    QWORD PTR [rsp+0x7fffffff],r9
   10040c0c1: 4c 31 d4              xor    rsp,r10
   10040c0c4: 49 33 22              xor    rsp,QWORD PTR [r10]
   10040c0c7: 4c 31 14 24           xor    QWORD PTR [rsp],r10
   10040c0cb: 49 33 a2 ff ff ff 7f  xor    rsp,QWORD PTR [r10+0x7fffffff]
   10040c0d2: 4c 31 94 24 ff ff ff 7f   xor    QWORD PTR [rsp+0x7fffffff],r10
   10040c0da: 4c 31 dc              xor    rsp,r11
   10040c0dd: 49 33 23              xor    rsp,QWORD PTR [r11]
   10040c0e0: 4c 31 1c 24           xor    QWORD PTR [rsp],r11
   10040c0e4: 49 33 a3 ff ff ff 7f  xor    rsp,QWORD PTR [r11+0x7fffffff]
   10040c0eb: 4c 31 9c 24 ff ff ff 7f   xor    QWORD PTR [rsp+0x7fffffff],r11
   10040c0f3: 4c 31 e4              xor    rsp,r12
   10040c0f6: 49 33 24 24           xor    rsp,QWORD PTR [r12]
   10040c0fa: 4c 31 24 24           xor    QWORD PTR [rsp],r12
   10040c0fe: 49 33 a4 24 ff ff ff 7f   xor    rsp,QWORD PTR [r12+0x7fffffff]
   10040c106: 4c 31 a4 24 ff ff ff 7f   xor    QWORD PTR [rsp+0x7fffffff],r12
   10040c10e: 4c 31 ec              xor    rsp,r13
   10040c111: 49 33 65 00           xor    rsp,QWORD PTR [r13+0x0]
   10040c115: 4c 31 2c 24           xor    QWORD PTR [rsp],r13
   10040c119: 49 33 a5 ff ff ff 7f  xor    rsp,QWORD PTR [r13+0x7fffffff]
   10040c120: 4c 31 ac 24 ff ff ff 7f   xor    QWORD PTR [rsp+0x7fffffff],r13
   10040c128: 4c 31 f4              xor    rsp,r14
   10040c12b: 49 33 26              xor    rsp,QWORD PTR [r14]
   10040c12e: 4c 31 34 24           xor    QWORD PTR [rsp],r14
   10040c132: 49 33 a6 ff ff ff 7f  xor    rsp,QWORD PTR [r14+0x7fffffff]
   10040c139: 4c 31 b4 24 ff ff ff 7f   xor    QWORD PTR [rsp+0x7fffffff],r14
   10040c141: 4c 31 fc              xor    rsp,r15
   10040c144: 49 33 27              xor    rsp,QWORD PTR [r15]
   10040c147: 4c 31 3c 24           xor    QWORD PTR [rsp],r15
   10040c14b: 49 33 a7 ff ff ff 7f  xor    rsp,QWORD PTR [r15+0x7fffffff]
   10040c152: 4c 31 bc 24 ff ff ff 7f   xor    QWORD PTR [rsp+0x7fffffff],r15
   10040c15a: 48 81 f5 ff ff ff 7f  xor    rbp,0x7fffffff
   10040c161: 48 31 c5              xor    rbp,rax
   10040c164: 48 33 28              xor    rbp,QWORD PTR [rax]
   10040c167: 48 31 45 00           xor    QWORD PTR [rbp+0x0],rax
   10040c16b: 48 33 a8 ff ff ff 7f  xor    rbp,QWORD PTR [rax+0x7fffffff]
   10040c172: 48 31 85 ff ff ff 7f  xor    QWORD PTR [rbp+0x7fffffff],rax
   10040c179: 48 31 cd              xor    rbp,rcx
   10040c17c: 48 33 29              xor    rbp,QWORD PTR [rcx]
   10040c17f: 48 31 4d 00           xor    QWORD PTR [rbp+0x0],rcx
   10040c183: 48 33 a9 ff ff ff 7f  xor    rbp,QWORD PTR [rcx+0x7fffffff]
   10040c18a: 48 31 8d ff ff ff 7f  xor    QWORD PTR [rbp+0x7fffffff],rcx
   10040c191: 48 31 d5              xor    rbp,rdx
   10040c194: 48 33 2a              xor    rbp,QWORD PTR [rdx]
   10040c197: 48 31 55 00           xor    QWORD PTR [rbp+0x0],rdx
   10040c19b: 48 33 aa ff ff ff 7f  xor    rbp,QWORD PTR [rdx+0x7fffffff]
   10040c1a2: 48 31 95 ff ff ff 7f  xor    QWORD PTR [rbp+0x7fffffff],rdx
   10040c1a9: 48 31 dd              xor    rbp,rbx
   10040c1ac: 48 33 2b              xor    rbp,QWORD PTR [rbx]
   10040c1af: 48 31 5d 00           xor    QWORD PTR [rbp+0x0],rbx
   10040c1b3: 48 33 ab ff ff ff 7f  xor    rbp,QWORD PTR [rbx+0x7fffffff]
   10040c1ba: 48 31 9d ff ff ff 7f  xor    QWORD PTR [rbp+0x7fffffff],rbx
   10040c1c1: 48 31 e5              xor    rbp,rsp
   10040c1c4: 48 33 2c 24           xor    rbp,QWORD PTR [rsp]
   10040c1c8: 48 31 65 00           xor    QWORD PTR [rbp+0x0],rsp
   10040c1cc: 48 33 ac 24 ff ff ff 7f   xor    rbp,QWORD PTR [rsp+0x7fffffff]
   10040c1d4: 48 31 a5 ff ff ff 7f  xor    QWORD PTR [rbp+0x7fffffff],rsp
   10040c1db: 48 31 ed              xor    rbp,rbp
   10040c1de: 48 33 6d 00           xor    rbp,QWORD PTR [rbp+0x0]
   10040c1e2: 48 31 6d 00           xor    QWORD PTR [rbp+0x0],rbp
   10040c1e6: 48 33 ad ff ff ff 7f  xor    rbp,QWORD PTR [rbp+0x7fffffff]
   10040c1ed: 48 31 ad ff ff ff 7f  xor    QWORD PTR [rbp+0x7fffffff],rbp
   10040c1f4: 48 31 f5              xor    rbp,rsi
   10040c1f7: 48 33 2e              xor    rbp,QWORD PTR [rsi]
   10040c1fa: 48 31 75 00           xor    QWORD PTR [rbp+0x0],rsi
   10040c1fe: 48 33 ae ff ff ff 7f  xor    rbp,QWORD PTR [rsi+0x7fffffff]
   10040c205: 48 31 b5 ff ff ff 7f  xor    QWORD PTR [rbp+0x7fffffff],rsi
   10040c20c: 48 31 fd              xor    rbp,rdi
   10040c20f: 48 33 2f              xor    rbp,QWORD PTR [rdi]
   10040c212: 48 31 7d 00           xor    QWORD PTR [rbp+0x0],rdi
   10040c216: 48 33 af ff ff ff 7f  xor    rbp,QWORD PTR [rdi+0x7fffffff]
   10040c21d: 48 31 bd ff ff ff 7f  xor    QWORD PTR [rbp+0x7fffffff],rdi
   10040c224: 4c 31 c5              xor    rbp,r8
   10040c227: 49 33 28              xor    rbp,QWORD PTR [r8]
   10040c22a: 4c 31 45 00           xor    QWORD PTR [rbp+0x0],r8
   10040c22e: 49 33 a8 ff ff ff 7f  xor    rbp,QWORD PTR [r8+0x7fffffff]
   10040c235: 4c 31 85 ff ff ff 7f  xor    QWORD PTR [rbp+0x7fffffff],r8
   10040c23c: 4c 31 cd              xor    rbp,r9
   10040c23f: 49 33 29              xor    rbp,QWORD PTR [r9]
   10040c242: 4c 31 4d 00           xor    QWORD PTR [rbp+0x0],r9
   10040c246: 49 33 a9 ff ff ff 7f  xor    rbp,QWORD PTR [r9+0x7fffffff]
   10040c24d: 4c 31 8d ff ff ff 7f  xor    QWORD PTR [rbp+0x7fffffff],r9
   10040c254: 4c 31 d5              xor    rbp,r10
   10040c257: 49 33 2a              xor    rbp,QWORD PTR [r10]
   10040c25a: 4c 31 55 00           xor    QWORD PTR [rbp+0x0],r10
   10040c25e: 49 33 aa ff ff ff 7f  xor    rbp,QWORD PTR [r10+0x7fffffff]
   10040c265: 4c 31 95 ff ff ff 7f  xor    QWORD PTR [rbp+0x7fffffff],r10
   10040c26c: 4c 31 dd              xor    rbp,r11
   10040c26f: 49 33 2b              xor    rbp,QWORD PTR [r11]
   10040c272: 4c 31 5d 00           xor    QWORD PTR [rbp+0x0],r11
   10040c276: 49 33 ab ff ff ff 7f  xor    rbp,QWORD PTR [r11+0x7fffffff]
   10040c27d: 4c 31 9d ff ff ff 7f  xor    QWORD PTR [rbp+0x7fffffff],r11
   10040c284: 4c 31 e5              xor    rbp,r12
   10040c287: 49 33 2c 24           xor    rbp,QWORD PTR [r12]
   10040c28b: 4c 31 65 00           xor    QWORD PTR [rbp+0x0],r12
   10040c28f: 49 33 ac 24 ff ff ff 7f   xor    rbp,QWORD PTR [r12+0x7fffffff]
   10040c297: 4c 31 a5 ff ff ff 7f  xor    QWORD PTR [rbp+0x7fffffff],r12
   10040c29e: 4c 31 ed              xor    rbp,r13
   10040c2a1: 49 33 6d 00           xor    rbp,QWORD PTR [r13+0x0]
   10040c2a5: 4c 31 6d 00           xor    QWORD PTR [rbp+0x0],r13
   10040c2a9: 49 33 ad ff ff ff 7f  xor    rbp,QWORD PTR [r13+0x7fffffff]
   10040c2b0: 4c 31 ad ff ff ff 7f  xor    QWORD PTR [rbp+0x7fffffff],r13
   10040c2b7: 4c 31 f5              xor    rbp,r14
   10040c2ba: 49 33 2e              xor    rbp,QWORD PTR [r14]
   10040c2bd: 4c 31 75 00           xor    QWORD PTR [rbp+0x0],r14
   10040c2c1: 49 33 ae ff ff ff 7f  xor    rbp,QWORD PTR [r14+0x7fffffff]
   10040c2c8: 4c 31 b5 ff ff ff 7f  xor    QWORD PTR [rbp+0x7fffffff],r14
   10040c2cf: 4c 31 fd              xor    rbp,r15
   10040c2d2: 49 33 2f              xor    rbp,QWORD PTR [r15]
   10040c2d5: 4c 31 7d 00           xor    QWORD PTR [rbp+0x0],r15
   10040c2d9: 49 33 af ff ff ff 7f  xor    rbp,QWORD PTR [r15+0x7fffffff]
   10040c2e0: 4c 31 bd ff ff ff 7f  xor    QWORD PTR [rbp+0x7fffffff],r15
   10040c2e7: 48 81 f6 ff ff ff 7f  xor    rsi,0x7fffffff
   10040c2ee: 48 31 c6              xor    rsi,rax
   10040c2f1: 48 33 30              xor    rsi,QWORD PTR [rax]
   10040c2f4: 48 31 06              xor    QWORD PTR [rsi],rax
   10040c2f7: 48 33 b0 ff ff ff 7f  xor    rsi,QWORD PTR [rax+0x7fffffff]
   10040c2fe: 48 31 86 ff ff ff 7f  xor    QWORD PTR [rsi+0x7fffffff],rax
   10040c305: 48 31 ce              xor    rsi,rcx
   10040c308: 48 33 31              xor    rsi,QWORD PTR [rcx]
   10040c30b: 48 31 0e              xor    QWORD PTR [rsi],rcx
   10040c30e: 48 33 b1 ff ff ff 7f  xor    rsi,QWORD PTR [rcx+0x7fffffff]
   10040c315: 48 31 8e ff ff ff 7f  xor    QWORD PTR [rsi+0x7fffffff],rcx
   10040c31c: 48 31 d6              xor    rsi,rdx
   10040c31f: 48 33 32              xor    rsi,QWORD PTR [rdx]
   10040c322: 48 31 16              xor    QWORD PTR [rsi],rdx
   10040c325: 48 33 b2 ff ff ff 7f  xor    rsi,QWORD PTR [rdx+0x7fffffff]
   10040c32c: 48 31 96 ff ff ff 7f  xor    QWORD PTR [rsi+0x7fffffff],rdx
   10040c333: 48 31 de              xor    rsi,rbx
   10040c336: 48 33 33              xor    rsi,QWORD PTR [rbx]
   10040c339: 48 31 1e              xor    QWORD PTR [rsi],rbx
   10040c33c: 48 33 b3 ff ff ff 7f  xor    rsi,QWORD PTR [rbx+0x7fffffff]
   10040c343: 48 31 9e ff ff ff 7f  xor    QWORD PTR [rsi+0x7fffffff],rbx
   10040c34a: 48 31 e6              xor    rsi,rsp
   10040c34d: 48 33 34 24           xor    rsi,QWORD PTR [rsp]
   10040c351: 48 31 26              xor    QWORD PTR [rsi],rsp
   10040c354: 48 33 b4 24 ff ff ff 7f   xor    rsi,QWORD PTR [rsp+0x7fffffff]
   10040c35c: 48 31 a6 ff ff ff 7f  xor    QWORD PTR [rsi+0x7fffffff],rsp
   10040c363: 48 31 ee              xor    rsi,rbp
   10040c366: 48 33 75 00           xor    rsi,QWORD PTR [rbp+0x0]
   10040c36a: 48 31 2e              xor    QWORD PTR [rsi],rbp
   10040c36d: 48 33 b5 ff ff ff 7f  xor    rsi,QWORD PTR [rbp+0x7fffffff]
   10040c374: 48 31 ae ff ff ff 7f  xor    QWORD PTR [rsi+0x7fffffff],rbp
   10040c37b: 48 31 f6              xor    rsi,rsi
   10040c37e: 48 33 36              xor    rsi,QWORD PTR [rsi]
   10040c381: 48 31 36              xor    QWORD PTR [rsi],rsi
   10040c384: 48 33 b6 ff ff ff 7f  xor    rsi,QWORD PTR [rsi+0x7fffffff]
   10040c38b: 48 31 b6 ff ff ff 7f  xor    QWORD PTR [rsi+0x7fffffff],rsi
   10040c392: 48 31 fe              xor    rsi,rdi
   10040c395: 48 33 37              xor    rsi,QWORD PTR [rdi]
   10040c398: 48 31 3e              xor    QWORD PTR [rsi],rdi
   10040c39b: 48 33 b7 ff ff ff 7f  xor    rsi,QWORD PTR [rdi+0x7fffffff]
   10040c3a2: 48 31 be ff ff ff 7f  xor    QWORD PTR [rsi+0x7fffffff],rdi
   10040c3a9: 4c 31 c6              xor    rsi,r8
   10040c3ac: 49 33 30              xor    rsi,QWORD PTR [r8]
   10040c3af: 4c 31 06              xor    QWORD PTR [rsi],r8
   10040c3b2: 49 33 b0 ff ff ff 7f  xor    rsi,QWORD PTR [r8+0x7fffffff]
   10040c3b9: 4c 31 86 ff ff ff 7f  xor    QWORD PTR [rsi+0x7fffffff],r8
   10040c3c0: 4c 31 ce              xor    rsi,r9
   10040c3c3: 49 33 31              xor    rsi,QWORD PTR [r9]
   10040c3c6: 4c 31 0e              xor    QWORD PTR [rsi],r9
   10040c3c9: 49 33 b1 ff ff ff 7f  xor    rsi,QWORD PTR [r9+0x7fffffff]
   10040c3d0: 4c 31 8e ff ff ff 7f  xor    QWORD PTR [rsi+0x7fffffff],r9
   10040c3d7: 4c 31 d6              xor    rsi,r10
   10040c3da: 49 33 32              xor    rsi,QWORD PTR [r10]
   10040c3dd: 4c 31 16              xor    QWORD PTR [rsi],r10
   10040c3e0: 49 33 b2 ff ff ff 7f  xor    rsi,QWORD PTR [r10+0x7fffffff]
   10040c3e7: 4c 31 96 ff ff ff 7f  xor    QWORD PTR [rsi+0x7fffffff],r10
   10040c3ee: 4c 31 de              xor    rsi,r11
   10040c3f1: 49 33 33              xor    rsi,QWORD PTR [r11]
   10040c3f4: 4c 31 1e              xor    QWORD PTR [rsi],r11
   10040c3f7: 49 33 b3 ff ff ff 7f  xor    rsi,QWORD PTR [r11+0x7fffffff]
   10040c3fe: 4c 31 9e ff ff ff 7f  xor    QWORD PTR [rsi+0x7fffffff],r11
   10040c405: 4c 31 e6              xor    rsi,r12
   10040c408: 49 33 34 24           xor    rsi,QWORD PTR [r12]
   10040c40c: 4c 31 26              xor    QWORD PTR [rsi],r12
   10040c40f: 49 33 b4 24 ff ff ff 7f   xor    rsi,QWORD PTR [r12+0x7fffffff]
   10040c417: 4c 31 a6 ff ff ff 7f  xor    QWORD PTR [rsi+0x7fffffff],r12
   10040c41e: 4c 31 ee              xor    rsi,r13
   10040c421: 49 33 75 00           xor    rsi,QWORD PTR [r13+0x0]
   10040c425: 4c 31 2e              xor    QWORD PTR [rsi],r13
   10040c428: 49 33 b5 ff ff ff 7f  xor    rsi,QWORD PTR [r13+0x7fffffff]
   10040c42f: 4c 31 ae ff ff ff 7f  xor    QWORD PTR [rsi+0x7fffffff],r13
   10040c436: 4c 31 f6              xor    rsi,r14
   10040c439: 49 33 36              xor    rsi,QWORD PTR [r14]
   10040c43c: 4c 31 36              xor    QWORD PTR [rsi],r14
   10040c43f: 49 33 b6 ff ff ff 7f  xor    rsi,QWORD PTR [r14+0x7fffffff]
   10040c446: 4c 31 b6 ff ff ff 7f  xor    QWORD PTR [rsi+0x7fffffff],r14
   10040c44d: 4c 31 fe              xor    rsi,r15
   10040c450: 49 33 37              xor    rsi,QWORD PTR [r15]
   10040c453: 4c 31 3e              xor    QWORD PTR [rsi],r15
   10040c456: 49 33 b7 ff ff ff 7f  xor    rsi,QWORD PTR [r15+0x7fffffff]
   10040c45d: 4c 31 be ff ff ff 7f  xor    QWORD PTR [rsi+0x7fffffff],r15
   10040c464: 48 81 f7 ff ff ff 7f  xor    rdi,0x7fffffff
   10040c46b: 48 31 c7              xor    rdi,rax
   10040c46e: 48 33 38              xor    rdi,QWORD PTR [rax]
   10040c471: 48 31 07              xor    QWORD PTR [rdi],rax
   10040c474: 48 33 b8 ff ff ff 7f  xor    rdi,QWORD PTR [rax+0x7fffffff]
   10040c47b: 48 31 87 ff ff ff 7f  xor    QWORD PTR [rdi+0x7fffffff],rax
   10040c482: 48 31 cf              xor    rdi,rcx
   10040c485: 48 33 39              xor    rdi,QWORD PTR [rcx]
   10040c488: 48 31 0f              xor    QWORD PTR [rdi],rcx
   10040c48b: 48 33 b9 ff ff ff 7f  xor    rdi,QWORD PTR [rcx+0x7fffffff]
   10040c492: 48 31 8f ff ff ff 7f  xor    QWORD PTR [rdi+0x7fffffff],rcx
   10040c499: 48 31 d7              xor    rdi,rdx
   10040c49c: 48 33 3a              xor    rdi,QWORD PTR [rdx]
   10040c49f: 48 31 17              xor    QWORD PTR [rdi],rdx
   10040c4a2: 48 33 ba ff ff ff 7f  xor    rdi,QWORD PTR [rdx+0x7fffffff]
   10040c4a9: 48 31 97 ff ff ff 7f  xor    QWORD PTR [rdi+0x7fffffff],rdx
   10040c4b0: 48 31 df              xor    rdi,rbx
   10040c4b3: 48 33 3b              xor    rdi,QWORD PTR [rbx]
   10040c4b6: 48 31 1f              xor    QWORD PTR [rdi],rbx
   10040c4b9: 48 33 bb ff ff ff 7f  xor    rdi,QWORD PTR [rbx+0x7fffffff]
   10040c4c0: 48 31 9f ff ff ff 7f  xor    QWORD PTR [rdi+0x7fffffff],rbx
   10040c4c7: 48 31 e7              xor    rdi,rsp
   10040c4ca: 48 33 3c 24           xor    rdi,QWORD PTR [rsp]
   10040c4ce: 48 31 27              xor    QWORD PTR [rdi],rsp
   10040c4d1: 48 33 bc 24 ff ff ff 7f   xor    rdi,QWORD PTR [rsp+0x7fffffff]
   10040c4d9: 48 31 a7 ff ff ff 7f  xor    QWORD PTR [rdi+0x7fffffff],rsp
   10040c4e0: 48 31 ef              xor    rdi,rbp
   10040c4e3: 48 33 7d 00           xor    rdi,QWORD PTR [rbp+0x0]
   10040c4e7: 48 31 2f              xor    QWORD PTR [rdi],rbp
   10040c4ea: 48 33 bd ff ff ff 7f  xor    rdi,QWORD PTR [rbp+0x7fffffff]
   10040c4f1: 48 31 af ff ff ff 7f  xor    QWORD PTR [rdi+0x7fffffff],rbp
   10040c4f8: 48 31 f7              xor    rdi,rsi
   10040c4fb: 48 33 3e              xor    rdi,QWORD PTR [rsi]
   10040c4fe: 48 31 37              xor    QWORD PTR [rdi],rsi
   10040c501: 48 33 be ff ff ff 7f  xor    rdi,QWORD PTR [rsi+0x7fffffff]
   10040c508: 48 31 b7 ff ff ff 7f  xor    QWORD PTR [rdi+0x7fffffff],rsi
   10040c50f: 48 31 ff              xor    rdi,rdi
   10040c512: 48 33 3f              xor    rdi,QWORD PTR [rdi]
   10040c515: 48 31 3f              xor    QWORD PTR [rdi],rdi
   10040c518: 48 33 bf ff ff ff 7f  xor    rdi,QWORD PTR [rdi+0x7fffffff]
   10040c51f: 48 31 bf ff ff ff 7f  xor    QWORD PTR [rdi+0x7fffffff],rdi
   10040c526: 4c 31 c7              xor    rdi,r8
   10040c529: 49 33 38              xor    rdi,QWORD PTR [r8]
   10040c52c: 4c 31 07              xor    QWORD PTR [rdi],r8
   10040c52f: 49 33 b8 ff ff ff 7f  xor    rdi,QWORD PTR [r8+0x7fffffff]
   10040c536: 4c 31 87 ff ff ff 7f  xor    QWORD PTR [rdi+0x7fffffff],r8
   10040c53d: 4c 31 cf              xor    rdi,r9
   10040c540: 49 33 39              xor    rdi,QWORD PTR [r9]
   10040c543: 4c 31 0f              xor    QWORD PTR [rdi],r9
   10040c546: 49 33 b9 ff ff ff 7f  xor    rdi,QWORD PTR [r9+0x7fffffff]
   10040c54d: 4c 31 8f ff ff ff 7f  xor    QWORD PTR [rdi+0x7fffffff],r9
   10040c554: 4c 31 d7              xor    rdi,r10
   10040c557: 49 33 3a              xor    rdi,QWORD PTR [r10]
   10040c55a: 4c 31 17              xor    QWORD PTR [rdi],r10
   10040c55d: 49 33 ba ff ff ff 7f  xor    rdi,QWORD PTR [r10+0x7fffffff]
   10040c564: 4c 31 97 ff ff ff 7f  xor    QWORD PTR [rdi+0x7fffffff],r10
   10040c56b: 4c 31 df              xor    rdi,r11
   10040c56e: 49 33 3b              xor    rdi,QWORD PTR [r11]
   10040c571: 4c 31 1f              xor    QWORD PTR [rdi],r11
   10040c574: 49 33 bb ff ff ff 7f  xor    rdi,QWORD PTR [r11+0x7fffffff]
   10040c57b: 4c 31 9f ff ff ff 7f  xor    QWORD PTR [rdi+0x7fffffff],r11
   10040c582: 4c 31 e7              xor    rdi,r12
   10040c585: 49 33 3c 24           xor    rdi,QWORD PTR [r12]
   10040c589: 4c 31 27              xor    QWORD PTR [rdi],r12
   10040c58c: 49 33 bc 24 ff ff ff 7f   xor    rdi,QWORD PTR [r12+0x7fffffff]
   10040c594: 4c 31 a7 ff ff ff 7f  xor    QWORD PTR [rdi+0x7fffffff],r12
   10040c59b: 4c 31 ef              xor    rdi,r13
   10040c59e: 49 33 7d 00           xor    rdi,QWORD PTR [r13+0x0]
   10040c5a2: 4c 31 2f              xor    QWORD PTR [rdi],r13
   10040c5a5: 49 33 bd ff ff ff 7f  xor    rdi,QWORD PTR [r13+0x7fffffff]
   10040c5ac: 4c 31 af ff ff ff 7f  xor    QWORD PTR [rdi+0x7fffffff],r13
   10040c5b3: 4c 31 f7              xor    rdi,r14
   10040c5b6: 49 33 3e              xor    rdi,QWORD PTR [r14]
   10040c5b9: 4c 31 37              xor    QWORD PTR [rdi],r14
   10040c5bc: 49 33 be ff ff ff 7f  xor    rdi,QWORD PTR [r14+0x7fffffff]
   10040c5c3: 4c 31 b7 ff ff ff 7f  xor    QWORD PTR [rdi+0x7fffffff],r14
   10040c5ca: 4c 31 ff              xor    rdi,r15
   10040c5cd: 49 33 3f              xor    rdi,QWORD PTR [r15]
   10040c5d0: 4c 31 3f              xor    QWORD PTR [rdi],r15
   10040c5d3: 49 33 bf ff ff ff 7f  xor    rdi,QWORD PTR [r15+0x7fffffff]
   10040c5da: 4c 31 bf ff ff ff 7f  xor    QWORD PTR [rdi+0x7fffffff],r15
   10040c5e1: 49 81 f0 ff ff ff 7f  xor    r8,0x7fffffff
   10040c5e8: 49 31 c0              xor    r8,rax
   10040c5eb: 4c 33 00              xor    r8,QWORD PTR [rax]
   10040c5ee: 49 31 00              xor    QWORD PTR [r8],rax
   10040c5f1: 4c 33 80 ff ff ff 7f  xor    r8,QWORD PTR [rax+0x7fffffff]
   10040c5f8: 49 31 80 ff ff ff 7f  xor    QWORD PTR [r8+0x7fffffff],rax
   10040c5ff: 49 31 c8              xor    r8,rcx
   10040c602: 4c 33 01              xor    r8,QWORD PTR [rcx]
   10040c605: 49 31 08              xor    QWORD PTR [r8],rcx
   10040c608: 4c 33 81 ff ff ff 7f  xor    r8,QWORD PTR [rcx+0x7fffffff]
   10040c60f: 49 31 88 ff ff ff 7f  xor    QWORD PTR [r8+0x7fffffff],rcx
   10040c616: 49 31 d0              xor    r8,rdx
   10040c619: 4c 33 02              xor    r8,QWORD PTR [rdx]
   10040c61c: 49 31 10              xor    QWORD PTR [r8],rdx
   10040c61f: 4c 33 82 ff ff ff 7f  xor    r8,QWORD PTR [rdx+0x7fffffff]
   10040c626: 49 31 90 ff ff ff 7f  xor    QWORD PTR [r8+0x7fffffff],rdx
   10040c62d: 49 31 d8              xor    r8,rbx
   10040c630: 4c 33 03              xor    r8,QWORD PTR [rbx]
   10040c633: 49 31 18              xor    QWORD PTR [r8],rbx
   10040c636: 4c 33 83 ff ff ff 7f  xor    r8,QWORD PTR [rbx+0x7fffffff]
   10040c63d: 49 31 98 ff ff ff 7f  xor    QWORD PTR [r8+0x7fffffff],rbx
   10040c644: 49 31 e0              xor    r8,rsp
   10040c647: 4c 33 04 24           xor    r8,QWORD PTR [rsp]
   10040c64b: 49 31 20              xor    QWORD PTR [r8],rsp
   10040c64e: 4c 33 84 24 ff ff ff 7f   xor    r8,QWORD PTR [rsp+0x7fffffff]
   10040c656: 49 31 a0 ff ff ff 7f  xor    QWORD PTR [r8+0x7fffffff],rsp
   10040c65d: 49 31 e8              xor    r8,rbp
   10040c660: 4c 33 45 00           xor    r8,QWORD PTR [rbp+0x0]
   10040c664: 49 31 28              xor    QWORD PTR [r8],rbp
   10040c667: 4c 33 85 ff ff ff 7f  xor    r8,QWORD PTR [rbp+0x7fffffff]
   10040c66e: 49 31 a8 ff ff ff 7f  xor    QWORD PTR [r8+0x7fffffff],rbp
   10040c675: 49 31 f0              xor    r8,rsi
   10040c678: 4c 33 06              xor    r8,QWORD PTR [rsi]
   10040c67b: 49 31 30              xor    QWORD PTR [r8],rsi
   10040c67e: 4c 33 86 ff ff ff 7f  xor    r8,QWORD PTR [rsi+0x7fffffff]
   10040c685: 49 31 b0 ff ff ff 7f  xor    QWORD PTR [r8+0x7fffffff],rsi
   10040c68c: 49 31 f8              xor    r8,rdi
   10040c68f: 4c 33 07              xor    r8,QWORD PTR [rdi]
   10040c692: 49 31 38              xor    QWORD PTR [r8],rdi
   10040c695: 4c 33 87 ff ff ff 7f  xor    r8,QWORD PTR [rdi+0x7fffffff]
   10040c69c: 49 31 b8 ff ff ff 7f  xor    QWORD PTR [r8+0x7fffffff],rdi
   10040c6a3: 4d 31 c0              xor    r8,r8
   10040c6a6: 4d 33 00              xor    r8,QWORD PTR [r8]
   10040c6a9: 4d 31 00              xor    QWORD PTR [r8],r8
   10040c6ac: 4d 33 80 ff ff ff 7f  xor    r8,QWORD PTR [r8+0x7fffffff]
   10040c6b3: 4d 31 80 ff ff ff 7f  xor    QWORD PTR [r8+0x7fffffff],r8
   10040c6ba: 4d 31 c8              xor    r8,r9
   10040c6bd: 4d 33 01              xor    r8,QWORD PTR [r9]
   10040c6c0: 4d 31 08              xor    QWORD PTR [r8],r9
   10040c6c3: 4d 33 81 ff ff ff 7f  xor    r8,QWORD PTR [r9+0x7fffffff]
   10040c6ca: 4d 31 88 ff ff ff 7f  xor    QWORD PTR [r8+0x7fffffff],r9
   10040c6d1: 4d 31 d0              xor    r8,r10
   10040c6d4: 4d 33 02              xor    r8,QWORD PTR [r10]
   10040c6d7: 4d 31 10              xor    QWORD PTR [r8],r10
   10040c6da: 4d 33 82 ff ff ff 7f  xor    r8,QWORD PTR [r10+0x7fffffff]
   10040c6e1: 4d 31 90 ff ff ff 7f  xor    QWORD PTR [r8+0x7fffffff],r10
   10040c6e8: 4d 31 d8              xor    r8,r11
   10040c6eb: 4d 33 03              xor    r8,QWORD PTR [r11]
   10040c6ee: 4d 31 18              xor    QWORD PTR [r8],r11
   10040c6f1: 4d 33 83 ff ff ff 7f  xor    r8,QWORD PTR [r11+0x7fffffff]
   10040c6f8: 4d 31 98 ff ff ff 7f  xor    QWORD PTR [r8+0x7fffffff],r11
   10040c6ff: 4d 31 e0              xor    r8,r12
   10040c702: 4d 33 04 24           xor    r8,QWORD PTR [r12]
   10040c706: 4d 31 20              xor    QWORD PTR [r8],r12
   10040c709: 4d 33 84 24 ff ff ff 7f   xor    r8,QWORD PTR [r12+0x7fffffff]
   10040c711: 4d 31 a0 ff ff ff 7f  xor    QWORD PTR [r8+0x7fffffff],r12
   10040c718: 4d 31 e8              xor    r8,r13
   10040c71b: 4d 33 45 00           xor    r8,QWORD PTR [r13+0x0]
   10040c71f: 4d 31 28              xor    QWORD PTR [r8],r13
   10040c722: 4d 33 85 ff ff ff 7f  xor    r8,QWORD PTR [r13+0x7fffffff]
   10040c729: 4d 31 a8 ff ff ff 7f  xor    QWORD PTR [r8+0x7fffffff],r13
   10040c730: 4d 31 f0              xor    r8,r14
   10040c733: 4d 33 06              xor    r8,QWORD PTR [r14]
   10040c736: 4d 31 30              xor    QWORD PTR [r8],r14
   10040c739: 4d 33 86 ff ff ff 7f  xor    r8,QWORD PTR [r14+0x7fffffff]
   10040c740: 4d 31 b0 ff ff ff 7f  xor    QWORD PTR [r8+0x7fffffff],r14
   10040c747: 4d 31 f8              xor    r8,r15
   10040c74a: 4d 33 07              xor    r8,QWORD PTR [r15]
   10040c74d: 4d 31 38              xor    QWORD PTR [r8],r15
   10040c750: 4d 33 87 ff ff ff 7f  xor    r8,QWORD PTR [r15+0x7fffffff]
   10040c757: 4d 31 b8 ff ff ff 7f  xor    QWORD PTR [r8+0x7fffffff],r15
   10040c75e: 49 81 f1 ff ff ff 7f  xor    r9,0x7fffffff
   10040c765: 49 31 c1              xor    r9,rax
   10040c768: 4c 33 08              xor    r9,QWORD PTR [rax]
   10040c76b: 49 31 01              xor    QWORD PTR [r9],rax
   10040c76e: 4c 33 88 ff ff ff 7f  xor    r9,QWORD PTR [rax+0x7fffffff]
   10040c775: 49 31 81 ff ff ff 7f  xor    QWORD PTR [r9+0x7fffffff],rax
   10040c77c: 49 31 c9              xor    r9,rcx
   10040c77f: 4c 33 09              xor    r9,QWORD PTR [rcx]
   10040c782: 49 31 09              xor    QWORD PTR [r9],rcx
   10040c785: 4c 33 89 ff ff ff 7f  xor    r9,QWORD PTR [rcx+0x7fffffff]
   10040c78c: 49 31 89 ff ff ff 7f  xor    QWORD PTR [r9+0x7fffffff],rcx
   10040c793: 49 31 d1              xor    r9,rdx
   10040c796: 4c 33 0a              xor    r9,QWORD PTR [rdx]
   10040c799: 49 31 11              xor    QWORD PTR [r9],rdx
   10040c79c: 4c 33 8a ff ff ff 7f  xor    r9,QWORD PTR [rdx+0x7fffffff]
   10040c7a3: 49 31 91 ff ff ff 7f  xor    QWORD PTR [r9+0x7fffffff],rdx
   10040c7aa: 49 31 d9              xor    r9,rbx
   10040c7ad: 4c 33 0b              xor    r9,QWORD PTR [rbx]
   10040c7b0: 49 31 19              xor    QWORD PTR [r9],rbx
   10040c7b3: 4c 33 8b ff ff ff 7f  xor    r9,QWORD PTR [rbx+0x7fffffff]
   10040c7ba: 49 31 99 ff ff ff 7f  xor    QWORD PTR [r9+0x7fffffff],rbx
   10040c7c1: 49 31 e1              xor    r9,rsp
   10040c7c4: 4c 33 0c 24           xor    r9,QWORD PTR [rsp]
   10040c7c8: 49 31 21              xor    QWORD PTR [r9],rsp
   10040c7cb: 4c 33 8c 24 ff ff ff 7f   xor    r9,QWORD PTR [rsp+0x7fffffff]
   10040c7d3: 49 31 a1 ff ff ff 7f  xor    QWORD PTR [r9+0x7fffffff],rsp
   10040c7da: 49 31 e9              xor    r9,rbp
   10040c7dd: 4c 33 4d 00           xor    r9,QWORD PTR [rbp+0x0]
   10040c7e1: 49 31 29              xor    QWORD PTR [r9],rbp
   10040c7e4: 4c 33 8d ff ff ff 7f  xor    r9,QWORD PTR [rbp+0x7fffffff]
   10040c7eb: 49 31 a9 ff ff ff 7f  xor    QWORD PTR [r9+0x7fffffff],rbp
   10040c7f2: 49 31 f1              xor    r9,rsi
   10040c7f5: 4c 33 0e              xor    r9,QWORD PTR [rsi]
   10040c7f8: 49 31 31              xor    QWORD PTR [r9],rsi
   10040c7fb: 4c 33 8e ff ff ff 7f  xor    r9,QWORD PTR [rsi+0x7fffffff]
   10040c802: 49 31 b1 ff ff ff 7f  xor    QWORD PTR [r9+0x7fffffff],rsi
   10040c809: 49 31 f9              xor    r9,rdi
   10040c80c: 4c 33 0f              xor    r9,QWORD PTR [rdi]
   10040c80f: 49 31 39              xor    QWORD PTR [r9],rdi
   10040c812: 4c 33 8f ff ff ff 7f  xor    r9,QWORD PTR [rdi+0x7fffffff]
   10040c819: 49 31 b9 ff ff ff 7f  xor    QWORD PTR [r9+0x7fffffff],rdi
   10040c820: 4d 31 c1              xor    r9,r8
   10040c823: 4d 33 08              xor    r9,QWORD PTR [r8]
   10040c826: 4d 31 01              xor    QWORD PTR [r9],r8
   10040c829: 4d 33 88 ff ff ff 7f  xor    r9,QWORD PTR [r8+0x7fffffff]
   10040c830: 4d 31 81 ff ff ff 7f  xor    QWORD PTR [r9+0x7fffffff],r8
   10040c837: 4d 31 c9              xor    r9,r9
   10040c83a: 4d 33 09              xor    r9,QWORD PTR [r9]
   10040c83d: 4d 31 09              xor    QWORD PTR [r9],r9
   10040c840: 4d 33 89 ff ff ff 7f  xor    r9,QWORD PTR [r9+0x7fffffff]
   10040c847: 4d 31 89 ff ff ff 7f  xor    QWORD PTR [r9+0x7fffffff],r9
   10040c84e: 4d 31 d1              xor    r9,r10
   10040c851: 4d 33 0a              xor    r9,QWORD PTR [r10]
   10040c854: 4d 31 11              xor    QWORD PTR [r9],r10
   10040c857: 4d 33 8a ff ff ff 7f  xor    r9,QWORD PTR [r10+0x7fffffff]
   10040c85e: 4d 31 91 ff ff ff 7f  xor    QWORD PTR [r9+0x7fffffff],r10
   10040c865: 4d 31 d9              xor    r9,r11
   10040c868: 4d 33 0b              xor    r9,QWORD PTR [r11]
   10040c86b: 4d 31 19              xor    QWORD PTR [r9],r11
   10040c86e: 4d 33 8b ff ff ff 7f  xor    r9,QWORD PTR [r11+0x7fffffff]
   10040c875: 4d 31 99 ff ff ff 7f  xor    QWORD PTR [r9+0x7fffffff],r11
   10040c87c: 4d 31 e1              xor    r9,r12
   10040c87f: 4d 33 0c 24           xor    r9,QWORD PTR [r12]
   10040c883: 4d 31 21              xor    QWORD PTR [r9],r12
   10040c886: 4d 33 8c 24 ff ff ff 7f   xor    r9,QWORD PTR [r12+0x7fffffff]
   10040c88e: 4d 31 a1 ff ff ff 7f  xor    QWORD PTR [r9+0x7fffffff],r12
   10040c895: 4d 31 e9              xor    r9,r13
   10040c898: 4d 33 4d 00           xor    r9,QWORD PTR [r13+0x0]
   10040c89c: 4d 31 29              xor    QWORD PTR [r9],r13
   10040c89f: 4d 33 8d ff ff ff 7f  xor    r9,QWORD PTR [r13+0x7fffffff]
   10040c8a6: 4d 31 a9 ff ff ff 7f  xor    QWORD PTR [r9+0x7fffffff],r13
   10040c8ad: 4d 31 f1              xor    r9,r14
   10040c8b0: 4d 33 0e              xor    r9,QWORD PTR [r14]
   10040c8b3: 4d 31 31              xor    QWORD PTR [r9],r14
   10040c8b6: 4d 33 8e ff ff ff 7f  xor    r9,QWORD PTR [r14+0x7fffffff]
   10040c8bd: 4d 31 b1 ff ff ff 7f  xor    QWORD PTR [r9+0x7fffffff],r14
   10040c8c4: 4d 31 f9              xor    r9,r15
   10040c8c7: 4d 33 0f              xor    r9,QWORD PTR [r15]
   10040c8ca: 4d 31 39              xor    QWORD PTR [r9],r15
   10040c8cd: 4d 33 8f ff ff ff 7f  xor    r9,QWORD PTR [r15+0x7fffffff]
   10040c8d4: 4d 31 b9 ff ff ff 7f  xor    QWORD PTR [r9+0x7fffffff],r15
   10040c8db: 49 81 f2 ff ff ff 7f  xor    r10,0x7fffffff
   10040c8e2: 49 31 c2              xor    r10,rax
   10040c8e5: 4c 33 10              xor    r10,QWORD PTR [rax]
   10040c8e8: 49 31 02              xor    QWORD PTR [r10],rax
   10040c8eb: 4c 33 90 ff ff ff 7f  xor    r10,QWORD PTR [rax+0x7fffffff]
   10040c8f2: 49 31 82 ff ff ff 7f  xor    QWORD PTR [r10+0x7fffffff],rax
   10040c8f9: 49 31 ca              xor    r10,rcx
   10040c8fc: 4c 33 11              xor    r10,QWORD PTR [rcx]
   10040c8ff: 49 31 0a              xor    QWORD PTR [r10],rcx
   10040c902: 4c 33 91 ff ff ff 7f  xor    r10,QWORD PTR [rcx+0x7fffffff]
   10040c909: 49 31 8a ff ff ff 7f  xor    QWORD PTR [r10+0x7fffffff],rcx
   10040c910: 49 31 d2              xor    r10,rdx
   10040c913: 4c 33 12              xor    r10,QWORD PTR [rdx]
   10040c916: 49 31 12              xor    QWORD PTR [r10],rdx
   10040c919: 4c 33 92 ff ff ff 7f  xor    r10,QWORD PTR [rdx+0x7fffffff]
   10040c920: 49 31 92 ff ff ff 7f  xor    QWORD PTR [r10+0x7fffffff],rdx
   10040c927: 49 31 da              xor    r10,rbx
   10040c92a: 4c 33 13              xor    r10,QWORD PTR [rbx]
   10040c92d: 49 31 1a              xor    QWORD PTR [r10],rbx
   10040c930: 4c 33 93 ff ff ff 7f  xor    r10,QWORD PTR [rbx+0x7fffffff]
   10040c937: 49 31 9a ff ff ff 7f  xor    QWORD PTR [r10+0x7fffffff],rbx
   10040c93e: 49 31 e2              xor    r10,rsp
   10040c941: 4c 33 14 24           xor    r10,QWORD PTR [rsp]
   10040c945: 49 31 22              xor    QWORD PTR [r10],rsp
   10040c948: 4c 33 94 24 ff ff ff 7f   xor    r10,QWORD PTR [rsp+0x7fffffff]
   10040c950: 49 31 a2 ff ff ff 7f  xor    QWORD PTR [r10+0x7fffffff],rsp
   10040c957: 49 31 ea              xor    r10,rbp
   10040c95a: 4c 33 55 00           xor    r10,QWORD PTR [rbp+0x0]
   10040c95e: 49 31 2a              xor    QWORD PTR [r10],rbp
   10040c961: 4c 33 95 ff ff ff 7f  xor    r10,QWORD PTR [rbp+0x7fffffff]
   10040c968: 49 31 aa ff ff ff 7f  xor    QWORD PTR [r10+0x7fffffff],rbp
   10040c96f: 49 31 f2              xor    r10,rsi
   10040c972: 4c 33 16              xor    r10,QWORD PTR [rsi]
   10040c975: 49 31 32              xor    QWORD PTR [r10],rsi
   10040c978: 4c 33 96 ff ff ff 7f  xor    r10,QWORD PTR [rsi+0x7fffffff]
   10040c97f: 49 31 b2 ff ff ff 7f  xor    QWORD PTR [r10+0x7fffffff],rsi
   10040c986: 49 31 fa              xor    r10,rdi
   10040c989: 4c 33 17              xor    r10,QWORD PTR [rdi]
   10040c98c: 49 31 3a              xor    QWORD PTR [r10],rdi
   10040c98f: 4c 33 97 ff ff ff 7f  xor    r10,QWORD PTR [rdi+0x7fffffff]
   10040c996: 49 31 ba ff ff ff 7f  xor    QWORD PTR [r10+0x7fffffff],rdi
   10040c99d: 4d 31 c2              xor    r10,r8
   10040c9a0: 4d 33 10              xor    r10,QWORD PTR [r8]
   10040c9a3: 4d 31 02              xor    QWORD PTR [r10],r8
   10040c9a6: 4d 33 90 ff ff ff 7f  xor    r10,QWORD PTR [r8+0x7fffffff]
   10040c9ad: 4d 31 82 ff ff ff 7f  xor    QWORD PTR [r10+0x7fffffff],r8
   10040c9b4: 4d 31 ca              xor    r10,r9
   10040c9b7: 4d 33 11              xor    r10,QWORD PTR [r9]
   10040c9ba: 4d 31 0a              xor    QWORD PTR [r10],r9
   10040c9bd: 4d 33 91 ff ff ff 7f  xor    r10,QWORD PTR [r9+0x7fffffff]
   10040c9c4: 4d 31 8a ff ff ff 7f  xor    QWORD PTR [r10+0x7fffffff],r9
   10040c9cb: 4d 31 d2              xor    r10,r10
   10040c9ce: 4d 33 12              xor    r10,QWORD PTR [r10]
   10040c9d1: 4d 31 12              xor    QWORD PTR [r10],r10
   10040c9d4: 4d 33 92 ff ff ff 7f  xor    r10,QWORD PTR [r10+0x7fffffff]
   10040c9db: 4d 31 92 ff ff ff 7f  xor    QWORD PTR [r10+0x7fffffff],r10
   10040c9e2: 4d 31 da              xor    r10,r11
   10040c9e5: 4d 33 13              xor    r10,QWORD PTR [r11]
   10040c9e8: 4d 31 1a              xor    QWORD PTR [r10],r11
   10040c9eb: 4d 33 93 ff ff ff 7f  xor    r10,QWORD PTR [r11+0x7fffffff]
   10040c9f2: 4d 31 9a ff ff ff 7f  xor    QWORD PTR [r10+0x7fffffff],r11
   10040c9f9: 4d 31 e2              xor    r10,r12
   10040c9fc: 4d 33 14 24           xor    r10,QWORD PTR [r12]
   10040ca00: 4d 31 22              xor    QWORD PTR [r10],r12
   10040ca03: 4d 33 94 24 ff ff ff 7f   xor    r10,QWORD PTR [r12+0x7fffffff]
   10040ca0b: 4d 31 a2 ff ff ff 7f  xor    QWORD PTR [r10+0x7fffffff],r12
   10040ca12: 4d 31 ea              xor    r10,r13
   10040ca15: 4d 33 55 00           xor    r10,QWORD PTR [r13+0x0]
   10040ca19: 4d 31 2a              xor    QWORD PTR [r10],r13
   10040ca1c: 4d 33 95 ff ff ff 7f  xor    r10,QWORD PTR [r13+0x7fffffff]
   10040ca23: 4d 31 aa ff ff ff 7f  xor    QWORD PTR [r10+0x7fffffff],r13
   10040ca2a: 4d 31 f2              xor    r10,r14
   10040ca2d: 4d 33 16              xor    r10,QWORD PTR [r14]
   10040ca30: 4d 31 32              xor    QWORD PTR [r10],r14
   10040ca33: 4d 33 96 ff ff ff 7f  xor    r10,QWORD PTR [r14+0x7fffffff]
   10040ca3a: 4d 31 b2 ff ff ff 7f  xor    QWORD PTR [r10+0x7fffffff],r14
   10040ca41: 4d 31 fa              xor    r10,r15
   10040ca44: 4d 33 17              xor    r10,QWORD PTR [r15]
   10040ca47: 4d 31 3a              xor    QWORD PTR [r10],r15
   10040ca4a: 4d 33 97 ff ff ff 7f  xor    r10,QWORD PTR [r15+0x7fffffff]
   10040ca51: 4d 31 ba ff ff ff 7f  xor    QWORD PTR [r10+0x7fffffff],r15
   10040ca58: 49 81 f3 ff ff ff 7f  xor    r11,0x7fffffff
   10040ca5f: 49 31 c3              xor    r11,rax
   10040ca62: 4c 33 18              xor    r11,QWORD PTR [rax]
   10040ca65: 49 31 03              xor    QWORD PTR [r11],rax
   10040ca68: 4c 33 98 ff ff ff 7f  xor    r11,QWORD PTR [rax+0x7fffffff]
   10040ca6f: 49 31 83 ff ff ff 7f  xor    QWORD PTR [r11+0x7fffffff],rax
   10040ca76: 49 31 cb              xor    r11,rcx
   10040ca79: 4c 33 19              xor    r11,QWORD PTR [rcx]
   10040ca7c: 49 31 0b              xor    QWORD PTR [r11],rcx
   10040ca7f: 4c 33 99 ff ff ff 7f  xor    r11,QWORD PTR [rcx+0x7fffffff]
   10040ca86: 49 31 8b ff ff ff 7f  xor    QWORD PTR [r11+0x7fffffff],rcx
   10040ca8d: 49 31 d3              xor    r11,rdx
   10040ca90: 4c 33 1a              xor    r11,QWORD PTR [rdx]
   10040ca93: 49 31 13              xor    QWORD PTR [r11],rdx
   10040ca96: 4c 33 9a ff ff ff 7f  xor    r11,QWORD PTR [rdx+0x7fffffff]
   10040ca9d: 49 31 93 ff ff ff 7f  xor    QWORD PTR [r11+0x7fffffff],rdx
   10040caa4: 49 31 db              xor    r11,rbx
   10040caa7: 4c 33 1b              xor    r11,QWORD PTR [rbx]
   10040caaa: 49 31 1b              xor    QWORD PTR [r11],rbx
   10040caad: 4c 33 9b ff ff ff 7f  xor    r11,QWORD PTR [rbx+0x7fffffff]
   10040cab4: 49 31 9b ff ff ff 7f  xor    QWORD PTR [r11+0x7fffffff],rbx
   10040cabb: 49 31 e3              xor    r11,rsp
   10040cabe: 4c 33 1c 24           xor    r11,QWORD PTR [rsp]
   10040cac2: 49 31 23              xor    QWORD PTR [r11],rsp
   10040cac5: 4c 33 9c 24 ff ff ff 7f   xor    r11,QWORD PTR [rsp+0x7fffffff]
   10040cacd: 49 31 a3 ff ff ff 7f  xor    QWORD PTR [r11+0x7fffffff],rsp
   10040cad4: 49 31 eb              xor    r11,rbp
   10040cad7: 4c 33 5d 00           xor    r11,QWORD PTR [rbp+0x0]
   10040cadb: 49 31 2b              xor    QWORD PTR [r11],rbp
   10040cade: 4c 33 9d ff ff ff 7f  xor    r11,QWORD PTR [rbp+0x7fffffff]
   10040cae5: 49 31 ab ff ff ff 7f  xor    QWORD PTR [r11+0x7fffffff],rbp
   10040caec: 49 31 f3              xor    r11,rsi
   10040caef: 4c 33 1e              xor    r11,QWORD PTR [rsi]
   10040caf2: 49 31 33              xor    QWORD PTR [r11],rsi
   10040caf5: 4c 33 9e ff ff ff 7f  xor    r11,QWORD PTR [rsi+0x7fffffff]
   10040cafc: 49 31 b3 ff ff ff 7f  xor    QWORD PTR [r11+0x7fffffff],rsi
   10040cb03: 49 31 fb              xor    r11,rdi
   10040cb06: 4c 33 1f              xor    r11,QWORD PTR [rdi]
   10040cb09: 49 31 3b              xor    QWORD PTR [r11],rdi
   10040cb0c: 4c 33 9f ff ff ff 7f  xor    r11,QWORD PTR [rdi+0x7fffffff]
   10040cb13: 49 31 bb ff ff ff 7f  xor    QWORD PTR [r11+0x7fffffff],rdi
   10040cb1a: 4d 31 c3              xor    r11,r8
   10040cb1d: 4d 33 18              xor    r11,QWORD PTR [r8]
   10040cb20: 4d 31 03              xor    QWORD PTR [r11],r8
   10040cb23: 4d 33 98 ff ff ff 7f  xor    r11,QWORD PTR [r8+0x7fffffff]
   10040cb2a: 4d 31 83 ff ff ff 7f  xor    QWORD PTR [r11+0x7fffffff],r8
   10040cb31: 4d 31 cb              xor    r11,r9
   10040cb34: 4d 33 19              xor    r11,QWORD PTR [r9]
   10040cb37: 4d 31 0b              xor    QWORD PTR [r11],r9
   10040cb3a: 4d 33 99 ff ff ff 7f  xor    r11,QWORD PTR [r9+0x7fffffff]
   10040cb41: 4d 31 8b ff ff ff 7f  xor    QWORD PTR [r11+0x7fffffff],r9
   10040cb48: 4d 31 d3              xor    r11,r10
   10040cb4b: 4d 33 1a              xor    r11,QWORD PTR [r10]
   10040cb4e: 4d 31 13              xor    QWORD PTR [r11],r10
   10040cb51: 4d 33 9a ff ff ff 7f  xor    r11,QWORD PTR [r10+0x7fffffff]
   10040cb58: 4d 31 93 ff ff ff 7f  xor    QWORD PTR [r11+0x7fffffff],r10
   10040cb5f: 4d 31 db              xor    r11,r11
   10040cb62: 4d 33 1b              xor    r11,QWORD PTR [r11]
   10040cb65: 4d 31 1b              xor    QWORD PTR [r11],r11
   10040cb68: 4d 33 9b ff ff ff 7f  xor    r11,QWORD PTR [r11+0x7fffffff]
   10040cb6f: 4d 31 9b ff ff ff 7f  xor    QWORD PTR [r11+0x7fffffff],r11
   10040cb76: 4d 31 e3              xor    r11,r12
   10040cb79: 4d 33 1c 24           xor    r11,QWORD PTR [r12]
   10040cb7d: 4d 31 23              xor    QWORD PTR [r11],r12
   10040cb80: 4d 33 9c 24 ff ff ff 7f   xor    r11,QWORD PTR [r12+0x7fffffff]
   10040cb88: 4d 31 a3 ff ff ff 7f  xor    QWORD PTR [r11+0x7fffffff],r12
   10040cb8f: 4d 31 eb              xor    r11,r13
   10040cb92: 4d 33 5d 00           xor    r11,QWORD PTR [r13+0x0]
   10040cb96: 4d 31 2b              xor    QWORD PTR [r11],r13
   10040cb99: 4d 33 9d ff ff ff 7f  xor    r11,QWORD PTR [r13+0x7fffffff]
   10040cba0: 4d 31 ab ff ff ff 7f  xor    QWORD PTR [r11+0x7fffffff],r13
   10040cba7: 4d 31 f3              xor    r11,r14
   10040cbaa: 4d 33 1e              xor    r11,QWORD PTR [r14]
   10040cbad: 4d 31 33              xor    QWORD PTR [r11],r14
   10040cbb0: 4d 33 9e ff ff ff 7f  xor    r11,QWORD PTR [r14+0x7fffffff]
   10040cbb7: 4d 31 b3 ff ff ff 7f  xor    QWORD PTR [r11+0x7fffffff],r14
   10040cbbe: 4d 31 fb              xor    r11,r15
   10040cbc1: 4d 33 1f              xor    r11,QWORD PTR [r15]
   10040cbc4: 4d 31 3b              xor    QWORD PTR [r11],r15
   10040cbc7: 4d 33 9f ff ff ff 7f  xor    r11,QWORD PTR [r15+0x7fffffff]
   10040cbce: 4d 31 bb ff ff ff 7f  xor    QWORD PTR [r11+0x7fffffff],r15
   10040cbd5: 49 81 f4 ff ff ff 7f  xor    r12,0x7fffffff
   10040cbdc: 49 31 c4              xor    r12,rax
   10040cbdf: 4c 33 20              xor    r12,QWORD PTR [rax]
   10040cbe2: 49 31 04 24           xor    QWORD PTR [r12],rax
   10040cbe6: 4c 33 a0 ff ff ff 7f  xor    r12,QWORD PTR [rax+0x7fffffff]
   10040cbed: 49 31 84 24 ff ff ff 7f   xor    QWORD PTR [r12+0x7fffffff],rax
   10040cbf5: 49 31 cc              xor    r12,rcx
   10040cbf8: 4c 33 21              xor    r12,QWORD PTR [rcx]
   10040cbfb: 49 31 0c 24           xor    QWORD PTR [r12],rcx
   10040cbff: 4c 33 a1 ff ff ff 7f  xor    r12,QWORD PTR [rcx+0x7fffffff]
   10040cc06: 49 31 8c 24 ff ff ff 7f   xor    QWORD PTR [r12+0x7fffffff],rcx
   10040cc0e: 49 31 d4              xor    r12,rdx
   10040cc11: 4c 33 22              xor    r12,QWORD PTR [rdx]
   10040cc14: 49 31 14 24           xor    QWORD PTR [r12],rdx
   10040cc18: 4c 33 a2 ff ff ff 7f  xor    r12,QWORD PTR [rdx+0x7fffffff]
   10040cc1f: 49 31 94 24 ff ff ff 7f   xor    QWORD PTR [r12+0x7fffffff],rdx
   10040cc27: 49 31 dc              xor    r12,rbx
   10040cc2a: 4c 33 23              xor    r12,QWORD PTR [rbx]
   10040cc2d: 49 31 1c 24           xor    QWORD PTR [r12],rbx
   10040cc31: 4c 33 a3 ff ff ff 7f  xor    r12,QWORD PTR [rbx+0x7fffffff]
   10040cc38: 49 31 9c 24 ff ff ff 7f   xor    QWORD PTR [r12+0x7fffffff],rbx
   10040cc40: 49 31 e4              xor    r12,rsp
   10040cc43: 4c 33 24 24           xor    r12,QWORD PTR [rsp]
   10040cc47: 49 31 24 24           xor    QWORD PTR [r12],rsp
   10040cc4b: 4c 33 a4 24 ff ff ff 7f   xor    r12,QWORD PTR [rsp+0x7fffffff]
   10040cc53: 49 31 a4 24 ff ff ff 7f   xor    QWORD PTR [r12+0x7fffffff],rsp
   10040cc5b: 49 31 ec              xor    r12,rbp
   10040cc5e: 4c 33 65 00           xor    r12,QWORD PTR [rbp+0x0]
   10040cc62: 49 31 2c 24           xor    QWORD PTR [r12],rbp
   10040cc66: 4c 33 a5 ff ff ff 7f  xor    r12,QWORD PTR [rbp+0x7fffffff]
   10040cc6d: 49 31 ac 24 ff ff ff 7f   xor    QWORD PTR [r12+0x7fffffff],rbp
   10040cc75: 49 31 f4              xor    r12,rsi
   10040cc78: 4c 33 26              xor    r12,QWORD PTR [rsi]
   10040cc7b: 49 31 34 24           xor    QWORD PTR [r12],rsi
   10040cc7f: 4c 33 a6 ff ff ff 7f  xor    r12,QWORD PTR [rsi+0x7fffffff]
   10040cc86: 49 31 b4 24 ff ff ff 7f   xor    QWORD PTR [r12+0x7fffffff],rsi
   10040cc8e: 49 31 fc              xor    r12,rdi
   10040cc91: 4c 33 27              xor    r12,QWORD PTR [rdi]
   10040cc94: 49 31 3c 24           xor    QWORD PTR [r12],rdi
   10040cc98: 4c 33 a7 ff ff ff 7f  xor    r12,QWORD PTR [rdi+0x7fffffff]
   10040cc9f: 49 31 bc 24 ff ff ff 7f   xor    QWORD PTR [r12+0x7fffffff],rdi
   10040cca7: 4d 31 c4              xor    r12,r8
   10040ccaa: 4d 33 20              xor    r12,QWORD PTR [r8]
   10040ccad: 4d 31 04 24           xor    QWORD PTR [r12],r8
   10040ccb1: 4d 33 a0 ff ff ff 7f  xor    r12,QWORD PTR [r8+0x7fffffff]
   10040ccb8: 4d 31 84 24 ff ff ff 7f   xor    QWORD PTR [r12+0x7fffffff],r8
   10040ccc0: 4d 31 cc              xor    r12,r9
   10040ccc3: 4d 33 21              xor    r12,QWORD PTR [r9]
   10040ccc6: 4d 31 0c 24           xor    QWORD PTR [r12],r9
   10040ccca: 4d 33 a1 ff ff ff 7f  xor    r12,QWORD PTR [r9+0x7fffffff]
   10040ccd1: 4d 31 8c 24 ff ff ff 7f   xor    QWORD PTR [r12+0x7fffffff],r9
   10040ccd9: 4d 31 d4              xor    r12,r10
   10040ccdc: 4d 33 22              xor    r12,QWORD PTR [r10]
   10040ccdf: 4d 31 14 24           xor    QWORD PTR [r12],r10
   10040cce3: 4d 33 a2 ff ff ff 7f  xor    r12,QWORD PTR [r10+0x7fffffff]
   10040ccea: 4d 31 94 24 ff ff ff 7f   xor    QWORD PTR [r12+0x7fffffff],r10
   10040ccf2: 4d 31 dc              xor    r12,r11
   10040ccf5: 4d 33 23              xor    r12,QWORD PTR [r11]
   10040ccf8: 4d 31 1c 24           xor    QWORD PTR [r12],r11
   10040ccfc: 4d 33 a3 ff ff ff 7f  xor    r12,QWORD PTR [r11+0x7fffffff]
   10040cd03: 4d 31 9c 24 ff ff ff 7f   xor    QWORD PTR [r12+0x7fffffff],r11
   10040cd0b: 4d 31 e4              xor    r12,r12
   10040cd0e: 4d 33 24 24           xor    r12,QWORD PTR [r12]
   10040cd12: 4d 31 24 24           xor    QWORD PTR [r12],r12
   10040cd16: 4d 33 a4 24 ff ff ff 7f   xor    r12,QWORD PTR [r12+0x7fffffff]
   10040cd1e: 4d 31 a4 24 ff ff ff 7f   xor    QWORD PTR [r12+0x7fffffff],r12
   10040cd26: 4d 31 ec              xor    r12,r13
   10040cd29: 4d 33 65 00           xor    r12,QWORD PTR [r13+0x0]
   10040cd2d: 4d 31 2c 24           xor    QWORD PTR [r12],r13
   10040cd31: 4d 33 a5 ff ff ff 7f  xor    r12,QWORD PTR [r13+0x7fffffff]
   10040cd38: 4d 31 ac 24 ff ff ff 7f   xor    QWORD PTR [r12+0x7fffffff],r13
   10040cd40: 4d 31 f4              xor    r12,r14
   10040cd43: 4d 33 26              xor    r12,QWORD PTR [r14]
   10040cd46: 4d 31 34 24           xor    QWORD PTR [r12],r14
   10040cd4a: 4d 33 a6 ff ff ff 7f  xor    r12,QWORD PTR [r14+0x7fffffff]
   10040cd51: 4d 31 b4 24 ff ff ff 7f   xor    QWORD PTR [r12+0x7fffffff],r14
   10040cd59: 4d 31 fc              xor    r12,r15
   10040cd5c: 4d 33 27              xor    r12,QWORD PTR [r15]
   10040cd5f: 4d 31 3c 24           xor    QWORD PTR [r12],r15
   10040cd63: 4d 33 a7 ff ff ff 7f  xor    r12,QWORD PTR [r15+0x7fffffff]
   10040cd6a: 4d 31 bc 24 ff ff ff 7f   xor    QWORD PTR [r12+0x7fffffff],r15
   10040cd72: 49 81 f5 ff ff ff 7f  xor    r13,0x7fffffff
   10040cd79: 49 31 c5              xor    r13,rax
   10040cd7c: 4c 33 28              xor    r13,QWORD PTR [rax]
   10040cd7f: 49 31 45 00           xor    QWORD PTR [r13+0x0],rax
   10040cd83: 4c 33 a8 ff ff ff 7f  xor    r13,QWORD PTR [rax+0x7fffffff]
   10040cd8a: 49 31 85 ff ff ff 7f  xor    QWORD PTR [r13+0x7fffffff],rax
   10040cd91: 49 31 cd              xor    r13,rcx
   10040cd94: 4c 33 29              xor    r13,QWORD PTR [rcx]
   10040cd97: 49 31 4d 00           xor    QWORD PTR [r13+0x0],rcx
   10040cd9b: 4c 33 a9 ff ff ff 7f  xor    r13,QWORD PTR [rcx+0x7fffffff]
   10040cda2: 49 31 8d ff ff ff 7f  xor    QWORD PTR [r13+0x7fffffff],rcx
   10040cda9: 49 31 d5              xor    r13,rdx
   10040cdac: 4c 33 2a              xor    r13,QWORD PTR [rdx]
   10040cdaf: 49 31 55 00           xor    QWORD PTR [r13+0x0],rdx
   10040cdb3: 4c 33 aa ff ff ff 7f  xor    r13,QWORD PTR [rdx+0x7fffffff]
   10040cdba: 49 31 95 ff ff ff 7f  xor    QWORD PTR [r13+0x7fffffff],rdx
   10040cdc1: 49 31 dd              xor    r13,rbx
   10040cdc4: 4c 33 2b              xor    r13,QWORD PTR [rbx]
   10040cdc7: 49 31 5d 00           xor    QWORD PTR [r13+0x0],rbx
   10040cdcb: 4c 33 ab ff ff ff 7f  xor    r13,QWORD PTR [rbx+0x7fffffff]
   10040cdd2: 49 31 9d ff ff ff 7f  xor    QWORD PTR [r13+0x7fffffff],rbx
   10040cdd9: 49 31 e5              xor    r13,rsp
   10040cddc: 4c 33 2c 24           xor    r13,QWORD PTR [rsp]
   10040cde0: 49 31 65 00           xor    QWORD PTR [r13+0x0],rsp
   10040cde4: 4c 33 ac 24 ff ff ff 7f   xor    r13,QWORD PTR [rsp+0x7fffffff]
   10040cdec: 49 31 a5 ff ff ff 7f  xor    QWORD PTR [r13+0x7fffffff],rsp
   10040cdf3: 49 31 ed              xor    r13,rbp
   10040cdf6: 4c 33 6d 00           xor    r13,QWORD PTR [rbp+0x0]
   10040cdfa: 49 31 6d 00           xor    QWORD PTR [r13+0x0],rbp
   10040cdfe: 4c 33 ad ff ff ff 7f  xor    r13,QWORD PTR [rbp+0x7fffffff]
   10040ce05: 49 31 ad ff ff ff 7f  xor    QWORD PTR [r13+0x7fffffff],rbp
   10040ce0c: 49 31 f5              xor    r13,rsi
   10040ce0f: 4c 33 2e              xor    r13,QWORD PTR [rsi]
   10040ce12: 49 31 75 00           xor    QWORD PTR [r13+0x0],rsi
   10040ce16: 4c 33 ae ff ff ff 7f  xor    r13,QWORD PTR [rsi+0x7fffffff]
   10040ce1d: 49 31 b5 ff ff ff 7f  xor    QWORD PTR [r13+0x7fffffff],rsi
   10040ce24: 49 31 fd              xor    r13,rdi
   10040ce27: 4c 33 2f              xor    r13,QWORD PTR [rdi]
   10040ce2a: 49 31 7d 00           xor    QWORD PTR [r13+0x0],rdi
   10040ce2e: 4c 33 af ff ff ff 7f  xor    r13,QWORD PTR [rdi+0x7fffffff]
   10040ce35: 49 31 bd ff ff ff 7f  xor    QWORD PTR [r13+0x7fffffff],rdi
   10040ce3c: 4d 31 c5              xor    r13,r8
   10040ce3f: 4d 33 28              xor    r13,QWORD PTR [r8]
   10040ce42: 4d 31 45 00           xor    QWORD PTR [r13+0x0],r8
   10040ce46: 4d 33 a8 ff ff ff 7f  xor    r13,QWORD PTR [r8+0x7fffffff]
   10040ce4d: 4d 31 85 ff ff ff 7f  xor    QWORD PTR [r13+0x7fffffff],r8
   10040ce54: 4d 31 cd              xor    r13,r9
   10040ce57: 4d 33 29              xor    r13,QWORD PTR [r9]
   10040ce5a: 4d 31 4d 00           xor    QWORD PTR [r13+0x0],r9
   10040ce5e: 4d 33 a9 ff ff ff 7f  xor    r13,QWORD PTR [r9+0x7fffffff]
   10040ce65: 4d 31 8d ff ff ff 7f  xor    QWORD PTR [r13+0x7fffffff],r9
   10040ce6c: 4d 31 d5              xor    r13,r10
   10040ce6f: 4d 33 2a              xor    r13,QWORD PTR [r10]
   10040ce72: 4d 31 55 00           xor    QWORD PTR [r13+0x0],r10
   10040ce76: 4d 33 aa ff ff ff 7f  xor    r13,QWORD PTR [r10+0x7fffffff]
   10040ce7d: 4d 31 95 ff ff ff 7f  xor    QWORD PTR [r13+0x7fffffff],r10
   10040ce84: 4d 31 dd              xor    r13,r11
   10040ce87: 4d 33 2b              xor    r13,QWORD PTR [r11]
   10040ce8a: 4d 31 5d 00           xor    QWORD PTR [r13+0x0],r11
   10040ce8e: 4d 33 ab ff ff ff 7f  xor    r13,QWORD PTR [r11+0x7fffffff]
   10040ce95: 4d 31 9d ff ff ff 7f  xor    QWORD PTR [r13+0x7fffffff],r11
   10040ce9c: 4d 31 e5              xor    r13,r12
   10040ce9f: 4d 33 2c 24           xor    r13,QWORD PTR [r12]
   10040cea3: 4d 31 65 00           xor    QWORD PTR [r13+0x0],r12
   10040cea7: 4d 33 ac 24 ff ff ff 7f   xor    r13,QWORD PTR [r12+0x7fffffff]
   10040ceaf: 4d 31 a5 ff ff ff 7f  xor    QWORD PTR [r13+0x7fffffff],r12
   10040ceb6: 4d 31 ed              xor    r13,r13
   10040ceb9: 4d 33 6d 00           xor    r13,QWORD PTR [r13+0x0]
   10040cebd: 4d 31 6d 00           xor    QWORD PTR [r13+0x0],r13
   10040cec1: 4d 33 ad ff ff ff 7f  xor    r13,QWORD PTR [r13+0x7fffffff]
   10040cec8: 4d 31 ad ff ff ff 7f  xor    QWORD PTR [r13+0x7fffffff],r13
   10040cecf: 4d 31 f5              xor    r13,r14
   10040ced2: 4d 33 2e              xor    r13,QWORD PTR [r14]
   10040ced5: 4d 31 75 00           xor    QWORD PTR [r13+0x0],r14
   10040ced9: 4d 33 ae ff ff ff 7f  xor    r13,QWORD PTR [r14+0x7fffffff]
   10040cee0: 4d 31 b5 ff ff ff 7f  xor    QWORD PTR [r13+0x7fffffff],r14
   10040cee7: 4d 31 fd              xor    r13,r15
   10040ceea: 4d 33 2f              xor    r13,QWORD PTR [r15]
   10040ceed: 4d 31 7d 00           xor    QWORD PTR [r13+0x0],r15
   10040cef1: 4d 33 af ff ff ff 7f  xor    r13,QWORD PTR [r15+0x7fffffff]
   10040cef8: 4d 31 bd ff ff ff 7f  xor    QWORD PTR [r13+0x7fffffff],r15
   10040ceff: 49 81 f6 ff ff ff 7f  xor    r14,0x7fffffff
   10040cf06: 49 31 c6              xor    r14,rax
   10040cf09: 4c 33 30              xor    r14,QWORD PTR [rax]
   10040cf0c: 49 31 06              xor    QWORD PTR [r14],rax
   10040cf0f: 4c 33 b0 ff ff ff 7f  xor    r14,QWORD PTR [rax+0x7fffffff]
   10040cf16: 49 31 86 ff ff ff 7f  xor    QWORD PTR [r14+0x7fffffff],rax
   10040cf1d: 49 31 ce              xor    r14,rcx
   10040cf20: 4c 33 31              xor    r14,QWORD PTR [rcx]
   10040cf23: 49 31 0e              xor    QWORD PTR [r14],rcx
   10040cf26: 4c 33 b1 ff ff ff 7f  xor    r14,QWORD PTR [rcx+0x7fffffff]
   10040cf2d: 49 31 8e ff ff ff 7f  xor    QWORD PTR [r14+0x7fffffff],rcx
   10040cf34: 49 31 d6              xor    r14,rdx
   10040cf37: 4c 33 32              xor    r14,QWORD PTR [rdx]
   10040cf3a: 49 31 16              xor    QWORD PTR [r14],rdx
   10040cf3d: 4c 33 b2 ff ff ff 7f  xor    r14,QWORD PTR [rdx+0x7fffffff]
   10040cf44: 49 31 96 ff ff ff 7f  xor    QWORD PTR [r14+0x7fffffff],rdx
   10040cf4b: 49 31 de              xor    r14,rbx
   10040cf4e: 4c 33 33              xor    r14,QWORD PTR [rbx]
   10040cf51: 49 31 1e              xor    QWORD PTR [r14],rbx
   10040cf54: 4c 33 b3 ff ff ff 7f  xor    r14,QWORD PTR [rbx+0x7fffffff]
   10040cf5b: 49 31 9e ff ff ff 7f  xor    QWORD PTR [r14+0x7fffffff],rbx
   10040cf62: 49 31 e6              xor    r14,rsp
   10040cf65: 4c 33 34 24           xor    r14,QWORD PTR [rsp]
   10040cf69: 49 31 26              xor    QWORD PTR [r14],rsp
   10040cf6c: 4c 33 b4 24 ff ff ff 7f   xor    r14,QWORD PTR [rsp+0x7fffffff]
   10040cf74: 49 31 a6 ff ff ff 7f  xor    QWORD PTR [r14+0x7fffffff],rsp
   10040cf7b: 49 31 ee              xor    r14,rbp
   10040cf7e: 4c 33 75 00           xor    r14,QWORD PTR [rbp+0x0]
   10040cf82: 49 31 2e              xor    QWORD PTR [r14],rbp
   10040cf85: 4c 33 b5 ff ff ff 7f  xor    r14,QWORD PTR [rbp+0x7fffffff]
   10040cf8c: 49 31 ae ff ff ff 7f  xor    QWORD PTR [r14+0x7fffffff],rbp
   10040cf93: 49 31 f6              xor    r14,rsi
   10040cf96: 4c 33 36              xor    r14,QWORD PTR [rsi]
   10040cf99: 49 31 36              xor    QWORD PTR [r14],rsi
   10040cf9c: 4c 33 b6 ff ff ff 7f  xor    r14,QWORD PTR [rsi+0x7fffffff]
   10040cfa3: 49 31 b6 ff ff ff 7f  xor    QWORD PTR [r14+0x7fffffff],rsi
   10040cfaa: 49 31 fe              xor    r14,rdi
   10040cfad: 4c 33 37              xor    r14,QWORD PTR [rdi]
   10040cfb0: 49 31 3e              xor    QWORD PTR [r14],rdi
   10040cfb3: 4c 33 b7 ff ff ff 7f  xor    r14,QWORD PTR [rdi+0x7fffffff]
   10040cfba: 49 31 be ff ff ff 7f  xor    QWORD PTR [r14+0x7fffffff],rdi
   10040cfc1: 4d 31 c6              xor    r14,r8
   10040cfc4: 4d 33 30              xor    r14,QWORD PTR [r8]
   10040cfc7: 4d 31 06              xor    QWORD PTR [r14],r8
   10040cfca: 4d 33 b0 ff ff ff 7f  xor    r14,QWORD PTR [r8+0x7fffffff]
   10040cfd1: 4d 31 86 ff ff ff 7f  xor    QWORD PTR [r14+0x7fffffff],r8
   10040cfd8: 4d 31 ce              xor    r14,r9
   10040cfdb: 4d 33 31              xor    r14,QWORD PTR [r9]
   10040cfde: 4d 31 0e              xor    QWORD PTR [r14],r9
   10040cfe1: 4d 33 b1 ff ff ff 7f  xor    r14,QWORD PTR [r9+0x7fffffff]
   10040cfe8: 4d 31 8e ff ff ff 7f  xor    QWORD PTR [r14+0x7fffffff],r9
   10040cfef: 4d 31 d6              xor    r14,r10
   10040cff2: 4d 33 32              xor    r14,QWORD PTR [r10]
   10040cff5: 4d 31 16              xor    QWORD PTR [r14],r10
   10040cff8: 4d 33 b2 ff ff ff 7f  xor    r14,QWORD PTR [r10+0x7fffffff]
   10040cfff: 4d 31 96 ff ff ff 7f  xor    QWORD PTR [r14+0x7fffffff],r10
   10040d006: 4d 31 de              xor    r14,r11
   10040d009: 4d 33 33              xor    r14,QWORD PTR [r11]
   10040d00c: 4d 31 1e              xor    QWORD PTR [r14],r11
   10040d00f: 4d 33 b3 ff ff ff 7f  xor    r14,QWORD PTR [r11+0x7fffffff]
   10040d016: 4d 31 9e ff ff ff 7f  xor    QWORD PTR [r14+0x7fffffff],r11
   10040d01d: 4d 31 e6              xor    r14,r12
   10040d020: 4d 33 34 24           xor    r14,QWORD PTR [r12]
   10040d024: 4d 31 26              xor    QWORD PTR [r14],r12
   10040d027: 4d 33 b4 24 ff ff ff 7f   xor    r14,QWORD PTR [r12+0x7fffffff]
   10040d02f: 4d 31 a6 ff ff ff 7f  xor    QWORD PTR [r14+0x7fffffff],r12
   10040d036: 4d 31 ee              xor    r14,r13
   10040d039: 4d 33 75 00           xor    r14,QWORD PTR [r13+0x0]
   10040d03d: 4d 31 2e              xor    QWORD PTR [r14],r13
   10040d040: 4d 33 b5 ff ff ff 7f  xor    r14,QWORD PTR [r13+0x7fffffff]
   10040d047: 4d 31 ae ff ff ff 7f  xor    QWORD PTR [r14+0x7fffffff],r13
   10040d04e: 4d 31 f6              xor    r14,r14
   10040d051: 4d 33 36              xor    r14,QWORD PTR [r14]
   10040d054: 4d 31 36              xor    QWORD PTR [r14],r14
   10040d057: 4d 33 b6 ff ff ff 7f  xor    r14,QWORD PTR [r14+0x7fffffff]
   10040d05e: 4d 31 b6 ff ff ff 7f  xor    QWORD PTR [r14+0x7fffffff],r14
   10040d065: 4d 31 fe              xor    r14,r15
   10040d068: 4d 33 37              xor    r14,QWORD PTR [r15]
   10040d06b: 4d 31 3e              xor    QWORD PTR [r14],r15
   10040d06e: 4d 33 b7 ff ff ff 7f  xor    r14,QWORD PTR [r15+0x7fffffff]
   10040d075: 4d 31 be ff ff ff 7f  xor    QWORD PTR [r14+0x7fffffff],r15
   10040d07c: 49 81 f7 ff ff ff 7f  xor    r15,0x7fffffff
   10040d083: 49 31 c7              xor    r15,rax
   10040d086: 4c 33 38              xor    r15,QWORD PTR [rax]
   10040d089: 49 31 07              xor    QWORD PTR [r15],rax
   10040d08c: 4c 33 b8 ff ff ff 7f  xor    r15,QWORD PTR [rax+0x7fffffff]
   10040d093: 49 31 87 ff ff ff 7f  xor    QWORD PTR [r15+0x7fffffff],rax
   10040d09a: 49 31 cf              xor    r15,rcx
   10040d09d: 4c 33 39              xor    r15,QWORD PTR [rcx]
   10040d0a0: 49 31 0f              xor    QWORD PTR [r15],rcx
   10040d0a3: 4c 33 b9 ff ff ff 7f  xor    r15,QWORD PTR [rcx+0x7fffffff]
   10040d0aa: 49 31 8f ff ff ff 7f  xor    QWORD PTR [r15+0x7fffffff],rcx
   10040d0b1: 49 31 d7              xor    r15,rdx
   10040d0b4: 4c 33 3a              xor    r15,QWORD PTR [rdx]
   10040d0b7: 49 31 17              xor    QWORD PTR [r15],rdx
   10040d0ba: 4c 33 ba ff ff ff 7f  xor    r15,QWORD PTR [rdx+0x7fffffff]
   10040d0c1: 49 31 97 ff ff ff 7f  xor    QWORD PTR [r15+0x7fffffff],rdx
   10040d0c8: 49 31 df              xor    r15,rbx
   10040d0cb: 4c 33 3b              xor    r15,QWORD PTR [rbx]
   10040d0ce: 49 31 1f              xor    QWORD PTR [r15],rbx
   10040d0d1: 4c 33 bb ff ff ff 7f  xor    r15,QWORD PTR [rbx+0x7fffffff]
   10040d0d8: 49 31 9f ff ff ff 7f  xor    QWORD PTR [r15+0x7fffffff],rbx
   10040d0df: 49 31 e7              xor    r15,rsp
   10040d0e2: 4c 33 3c 24           xor    r15,QWORD PTR [rsp]
   10040d0e6: 49 31 27              xor    QWORD PTR [r15],rsp
   10040d0e9: 4c 33 bc 24 ff ff ff 7f   xor    r15,QWORD PTR [rsp+0x7fffffff]
   10040d0f1: 49 31 a7 ff ff ff 7f  xor    QWORD PTR [r15+0x7fffffff],rsp
   10040d0f8: 49 31 ef              xor    r15,rbp
   10040d0fb: 4c 33 7d 00           xor    r15,QWORD PTR [rbp+0x0]
   10040d0ff: 49 31 2f              xor    QWORD PTR [r15],rbp
   10040d102: 4c 33 bd ff ff ff 7f  xor    r15,QWORD PTR [rbp+0x7fffffff]
   10040d109: 49 31 af ff ff ff 7f  xor    QWORD PTR [r15+0x7fffffff],rbp
   10040d110: 49 31 f7              xor    r15,rsi
   10040d113: 4c 33 3e              xor    r15,QWORD PTR [rsi]
   10040d116: 49 31 37              xor    QWORD PTR [r15],rsi
   10040d119: 4c 33 be ff ff ff 7f  xor    r15,QWORD PTR [rsi+0x7fffffff]
   10040d120: 49 31 b7 ff ff ff 7f  xor    QWORD PTR [r15+0x7fffffff],rsi
   10040d127: 49 31 ff              xor    r15,rdi
   10040d12a: 4c 33 3f              xor    r15,QWORD PTR [rdi]
   10040d12d: 49 31 3f              xor    QWORD PTR [r15],rdi
   10040d130: 4c 33 bf ff ff ff 7f  xor    r15,QWORD PTR [rdi+0x7fffffff]
   10040d137: 49 31 bf ff ff ff 7f  xor    QWORD PTR [r15+0x7fffffff],rdi
   10040d13e: 4d 31 c7              xor    r15,r8
   10040d141: 4d 33 38              xor    r15,QWORD PTR [r8]
   10040d144: 4d 31 07              xor    QWORD PTR [r15],r8
   10040d147: 4d 33 b8 ff ff ff 7f  xor    r15,QWORD PTR [r8+0x7fffffff]
   10040d14e: 4d 31 87 ff ff ff 7f  xor    QWORD PTR [r15+0x7fffffff],r8
   10040d155: 4d 31 cf              xor    r15,r9
   10040d158: 4d 33 39              xor    r15,QWORD PTR [r9]
   10040d15b: 4d 31 0f              xor    QWORD PTR [r15],r9
   10040d15e: 4d 33 b9 ff ff ff 7f  xor    r15,QWORD PTR [r9+0x7fffffff]
   10040d165: 4d 31 8f ff ff ff 7f  xor    QWORD PTR [r15+0x7fffffff],r9
   10040d16c: 4d 31 d7              xor    r15,r10
   10040d16f: 4d 33 3a              xor    r15,QWORD PTR [r10]
   10040d172: 4d 31 17              xor    QWORD PTR [r15],r10
   10040d175: 4d 33 ba ff ff ff 7f  xor    r15,QWORD PTR [r10+0x7fffffff]
   10040d17c: 4d 31 97 ff ff ff 7f  xor    QWORD PTR [r15+0x7fffffff],r10
   10040d183: 4d 31 df              xor    r15,r11
   10040d186: 4d 33 3b              xor    r15,QWORD PTR [r11]
   10040d189: 4d 31 1f              xor    QWORD PTR [r15],r11
   10040d18c: 4d 33 bb ff ff ff 7f  xor    r15,QWORD PTR [r11+0x7fffffff]
   10040d193: 4d 31 9f ff ff ff 7f  xor    QWORD PTR [r15+0x7fffffff],r11
   10040d19a: 4d 31 e7              xor    r15,r12
   10040d19d: 4d 33 3c 24           xor    r15,QWORD PTR [r12]
   10040d1a1: 4d 31 27              xor    QWORD PTR [r15],r12
   10040d1a4: 4d 33 bc 24 ff ff ff 7f   xor    r15,QWORD PTR [r12+0x7fffffff]
   10040d1ac: 4d 31 a7 ff ff ff 7f  xor    QWORD PTR [r15+0x7fffffff],r12
   10040d1b3: 4d 31 ef              xor    r15,r13
   10040d1b6: 4d 33 7d 00           xor    r15,QWORD PTR [r13+0x0]
   10040d1ba: 4d 31 2f              xor    QWORD PTR [r15],r13
   10040d1bd: 4d 33 bd ff ff ff 7f  xor    r15,QWORD PTR [r13+0x7fffffff]
   10040d1c4: 4d 31 af ff ff ff 7f  xor    QWORD PTR [r15+0x7fffffff],r13
   10040d1cb: 4d 31 f7              xor    r15,r14
   10040d1ce: 4d 33 3e              xor    r15,QWORD PTR [r14]
   10040d1d1: 4d 31 37              xor    QWORD PTR [r15],r14
   10040d1d4: 4d 33 be ff ff ff 7f  xor    r15,QWORD PTR [r14+0x7fffffff]
   10040d1db: 4d 31 b7 ff ff ff 7f  xor    QWORD PTR [r15+0x7fffffff],r14
   10040d1e2: 4d 31 ff              xor    r15,r15
   10040d1e5: 4d 33 3f              xor    r15,QWORD PTR [r15]
   10040d1e8: 4d 31 3f              xor    QWORD PTR [r15],r15
   10040d1eb: 4d 33 bf ff ff ff 7f  xor    r15,QWORD PTR [r15+0x7fffffff]
   10040d1f2: 4d 31 bf ff ff ff 7f  xor    QWORD PTR [r15+0x7fffffff],r15
   10040d1f9: 48 3d ff ff ff 7f     cmp    rax,0x7fffffff
   10040d1ff: 48 39 c0              cmp    rax,rax
   10040d202: 48 3b 00              cmp    rax,QWORD PTR [rax]
   10040d205: 48 39 00              cmp    QWORD PTR [rax],rax
   10040d208: 48 3b 80 ff ff ff 7f  cmp    rax,QWORD PTR [rax+0x7fffffff]
   10040d20f: 48 39 80 ff ff ff 7f  cmp    QWORD PTR [rax+0x7fffffff],rax
   10040d216: 48 39 c8              cmp    rax,rcx
   10040d219: 48 3b 01              cmp    rax,QWORD PTR [rcx]
   10040d21c: 48 39 08              cmp    QWORD PTR [rax],rcx
   10040d21f: 48 3b 81 ff ff ff 7f  cmp    rax,QWORD PTR [rcx+0x7fffffff]
   10040d226: 48 39 88 ff ff ff 7f  cmp    QWORD PTR [rax+0x7fffffff],rcx
   10040d22d: 48 39 d0              cmp    rax,rdx
   10040d230: 48 3b 02              cmp    rax,QWORD PTR [rdx]
   10040d233: 48 39 10              cmp    QWORD PTR [rax],rdx
   10040d236: 48 3b 82 ff ff ff 7f  cmp    rax,QWORD PTR [rdx+0x7fffffff]
   10040d23d: 48 39 90 ff ff ff 7f  cmp    QWORD PTR [rax+0x7fffffff],rdx
   10040d244: 48 39 d8              cmp    rax,rbx
   10040d247: 48 3b 03              cmp    rax,QWORD PTR [rbx]
   10040d24a: 48 39 18              cmp    QWORD PTR [rax],rbx
   10040d24d: 48 3b 83 ff ff ff 7f  cmp    rax,QWORD PTR [rbx+0x7fffffff]
   10040d254: 48 39 98 ff ff ff 7f  cmp    QWORD PTR [rax+0x7fffffff],rbx
   10040d25b: 48 39 e0              cmp    rax,rsp
   10040d25e: 48 3b 04 24           cmp    rax,QWORD PTR [rsp]
   10040d262: 48 39 20              cmp    QWORD PTR [rax],rsp
   10040d265: 48 3b 84 24 ff ff ff 7f   cmp    rax,QWORD PTR [rsp+0x7fffffff]
   10040d26d: 48 39 a0 ff ff ff 7f  cmp    QWORD PTR [rax+0x7fffffff],rsp
   10040d274: 48 39 e8              cmp    rax,rbp
   10040d277: 48 3b 45 00           cmp    rax,QWORD PTR [rbp+0x0]
   10040d27b: 48 39 28              cmp    QWORD PTR [rax],rbp
   10040d27e: 48 3b 85 ff ff ff 7f  cmp    rax,QWORD PTR [rbp+0x7fffffff]
   10040d285: 48 39 a8 ff ff ff 7f  cmp    QWORD PTR [rax+0x7fffffff],rbp
   10040d28c: 48 39 f0              cmp    rax,rsi
   10040d28f: 48 3b 06              cmp    rax,QWORD PTR [rsi]
   10040d292: 48 39 30              cmp    QWORD PTR [rax],rsi
   10040d295: 48 3b 86 ff ff ff 7f  cmp    rax,QWORD PTR [rsi+0x7fffffff]
   10040d29c: 48 39 b0 ff ff ff 7f  cmp    QWORD PTR [rax+0x7fffffff],rsi
   10040d2a3: 48 39 f8              cmp    rax,rdi
   10040d2a6: 48 3b 07              cmp    rax,QWORD PTR [rdi]
   10040d2a9: 48 39 38              cmp    QWORD PTR [rax],rdi
   10040d2ac: 48 3b 87 ff ff ff 7f  cmp    rax,QWORD PTR [rdi+0x7fffffff]
   10040d2b3: 48 39 b8 ff ff ff 7f  cmp    QWORD PTR [rax+0x7fffffff],rdi
   10040d2ba: 4c 39 c0              cmp    rax,r8
   10040d2bd: 49 3b 00              cmp    rax,QWORD PTR [r8]
   10040d2c0: 4c 39 00              cmp    QWORD PTR [rax],r8
   10040d2c3: 49 3b 80 ff ff ff 7f  cmp    rax,QWORD PTR [r8+0x7fffffff]
   10040d2ca: 4c 39 80 ff ff ff 7f  cmp    QWORD PTR [rax+0x7fffffff],r8
   10040d2d1: 4c 39 c8              cmp    rax,r9
   10040d2d4: 49 3b 01              cmp    rax,QWORD PTR [r9]
   10040d2d7: 4c 39 08              cmp    QWORD PTR [rax],r9
   10040d2da: 49 3b 81 ff ff ff 7f  cmp    rax,QWORD PTR [r9+0x7fffffff]
   10040d2e1: 4c 39 88 ff ff ff 7f  cmp    QWORD PTR [rax+0x7fffffff],r9
   10040d2e8: 4c 39 d0              cmp    rax,r10
   10040d2eb: 49 3b 02              cmp    rax,QWORD PTR [r10]
   10040d2ee: 4c 39 10              cmp    QWORD PTR [rax],r10
   10040d2f1: 49 3b 82 ff ff ff 7f  cmp    rax,QWORD PTR [r10+0x7fffffff]
   10040d2f8: 4c 39 90 ff ff ff 7f  cmp    QWORD PTR [rax+0x7fffffff],r10
   10040d2ff: 4c 39 d8              cmp    rax,r11
   10040d302: 49 3b 03              cmp    rax,QWORD PTR [r11]
   10040d305: 4c 39 18              cmp    QWORD PTR [rax],r11
   10040d308: 49 3b 83 ff ff ff 7f  cmp    rax,QWORD PTR [r11+0x7fffffff]
   10040d30f: 4c 39 98 ff ff ff 7f  cmp    QWORD PTR [rax+0x7fffffff],r11
   10040d316: 4c 39 e0              cmp    rax,r12
   10040d319: 49 3b 04 24           cmp    rax,QWORD PTR [r12]
   10040d31d: 4c 39 20              cmp    QWORD PTR [rax],r12
   10040d320: 49 3b 84 24 ff ff ff 7f   cmp    rax,QWORD PTR [r12+0x7fffffff]
   10040d328: 4c 39 a0 ff ff ff 7f  cmp    QWORD PTR [rax+0x7fffffff],r12
   10040d32f: 4c 39 e8              cmp    rax,r13
   10040d332: 49 3b 45 00           cmp    rax,QWORD PTR [r13+0x0]
   10040d336: 4c 39 28              cmp    QWORD PTR [rax],r13
   10040d339: 49 3b 85 ff ff ff 7f  cmp    rax,QWORD PTR [r13+0x7fffffff]
   10040d340: 4c 39 a8 ff ff ff 7f  cmp    QWORD PTR [rax+0x7fffffff],r13
   10040d347: 4c 39 f0              cmp    rax,r14
   10040d34a: 49 3b 06              cmp    rax,QWORD PTR [r14]
   10040d34d: 4c 39 30              cmp    QWORD PTR [rax],r14
   10040d350: 49 3b 86 ff ff ff 7f  cmp    rax,QWORD PTR [r14+0x7fffffff]
   10040d357: 4c 39 b0 ff ff ff 7f  cmp    QWORD PTR [rax+0x7fffffff],r14
   10040d35e: 4c 39 f8              cmp    rax,r15
   10040d361: 49 3b 07              cmp    rax,QWORD PTR [r15]
   10040d364: 4c 39 38              cmp    QWORD PTR [rax],r15
   10040d367: 49 3b 87 ff ff ff 7f  cmp    rax,QWORD PTR [r15+0x7fffffff]
   10040d36e: 4c 39 b8 ff ff ff 7f  cmp    QWORD PTR [rax+0x7fffffff],r15
   10040d375: 48 81 f9 ff ff ff 7f  cmp    rcx,0x7fffffff
   10040d37c: 48 39 c1              cmp    rcx,rax
   10040d37f: 48 3b 08              cmp    rcx,QWORD PTR [rax]
   10040d382: 48 39 01              cmp    QWORD PTR [rcx],rax
   10040d385: 48 3b 88 ff ff ff 7f  cmp    rcx,QWORD PTR [rax+0x7fffffff]
   10040d38c: 48 39 81 ff ff ff 7f  cmp    QWORD PTR [rcx+0x7fffffff],rax
   10040d393: 48 39 c9              cmp    rcx,rcx
   10040d396: 48 3b 09              cmp    rcx,QWORD PTR [rcx]
   10040d399: 48 39 09              cmp    QWORD PTR [rcx],rcx
   10040d39c: 48 3b 89 ff ff ff 7f  cmp    rcx,QWORD PTR [rcx+0x7fffffff]
   10040d3a3: 48 39 89 ff ff ff 7f  cmp    QWORD PTR [rcx+0x7fffffff],rcx
   10040d3aa: 48 39 d1              cmp    rcx,rdx
   10040d3ad: 48 3b 0a              cmp    rcx,QWORD PTR [rdx]
   10040d3b0: 48 39 11              cmp    QWORD PTR [rcx],rdx
   10040d3b3: 48 3b 8a ff ff ff 7f  cmp    rcx,QWORD PTR [rdx+0x7fffffff]
   10040d3ba: 48 39 91 ff ff ff 7f  cmp    QWORD PTR [rcx+0x7fffffff],rdx
   10040d3c1: 48 39 d9              cmp    rcx,rbx
   10040d3c4: 48 3b 0b              cmp    rcx,QWORD PTR [rbx]
   10040d3c7: 48 39 19              cmp    QWORD PTR [rcx],rbx
   10040d3ca: 48 3b 8b ff ff ff 7f  cmp    rcx,QWORD PTR [rbx+0x7fffffff]
   10040d3d1: 48 39 99 ff ff ff 7f  cmp    QWORD PTR [rcx+0x7fffffff],rbx
   10040d3d8: 48 39 e1              cmp    rcx,rsp
   10040d3db: 48 3b 0c 24           cmp    rcx,QWORD PTR [rsp]
   10040d3df: 48 39 21              cmp    QWORD PTR [rcx],rsp
   10040d3e2: 48 3b 8c 24 ff ff ff 7f   cmp    rcx,QWORD PTR [rsp+0x7fffffff]
   10040d3ea: 48 39 a1 ff ff ff 7f  cmp    QWORD PTR [rcx+0x7fffffff],rsp
   10040d3f1: 48 39 e9              cmp    rcx,rbp
   10040d3f4: 48 3b 4d 00           cmp    rcx,QWORD PTR [rbp+0x0]
   10040d3f8: 48 39 29              cmp    QWORD PTR [rcx],rbp
   10040d3fb: 48 3b 8d ff ff ff 7f  cmp    rcx,QWORD PTR [rbp+0x7fffffff]
   10040d402: 48 39 a9 ff ff ff 7f  cmp    QWORD PTR [rcx+0x7fffffff],rbp
   10040d409: 48 39 f1              cmp    rcx,rsi
   10040d40c: 48 3b 0e              cmp    rcx,QWORD PTR [rsi]
   10040d40f: 48 39 31              cmp    QWORD PTR [rcx],rsi
   10040d412: 48 3b 8e ff ff ff 7f  cmp    rcx,QWORD PTR [rsi+0x7fffffff]
   10040d419: 48 39 b1 ff ff ff 7f  cmp    QWORD PTR [rcx+0x7fffffff],rsi
   10040d420: 48 39 f9              cmp    rcx,rdi
   10040d423: 48 3b 0f              cmp    rcx,QWORD PTR [rdi]
   10040d426: 48 39 39              cmp    QWORD PTR [rcx],rdi
   10040d429: 48 3b 8f ff ff ff 7f  cmp    rcx,QWORD PTR [rdi+0x7fffffff]
   10040d430: 48 39 b9 ff ff ff 7f  cmp    QWORD PTR [rcx+0x7fffffff],rdi
   10040d437: 4c 39 c1              cmp    rcx,r8
   10040d43a: 49 3b 08              cmp    rcx,QWORD PTR [r8]
   10040d43d: 4c 39 01              cmp    QWORD PTR [rcx],r8
   10040d440: 49 3b 88 ff ff ff 7f  cmp    rcx,QWORD PTR [r8+0x7fffffff]
   10040d447: 4c 39 81 ff ff ff 7f  cmp    QWORD PTR [rcx+0x7fffffff],r8
   10040d44e: 4c 39 c9              cmp    rcx,r9
   10040d451: 49 3b 09              cmp    rcx,QWORD PTR [r9]
   10040d454: 4c 39 09              cmp    QWORD PTR [rcx],r9
   10040d457: 49 3b 89 ff ff ff 7f  cmp    rcx,QWORD PTR [r9+0x7fffffff]
   10040d45e: 4c 39 89 ff ff ff 7f  cmp    QWORD PTR [rcx+0x7fffffff],r9
   10040d465: 4c 39 d1              cmp    rcx,r10
   10040d468: 49 3b 0a              cmp    rcx,QWORD PTR [r10]
   10040d46b: 4c 39 11              cmp    QWORD PTR [rcx],r10
   10040d46e: 49 3b 8a ff ff ff 7f  cmp    rcx,QWORD PTR [r10+0x7fffffff]
   10040d475: 4c 39 91 ff ff ff 7f  cmp    QWORD PTR [rcx+0x7fffffff],r10
   10040d47c: 4c 39 d9              cmp    rcx,r11
   10040d47f: 49 3b 0b              cmp    rcx,QWORD PTR [r11]
   10040d482: 4c 39 19              cmp    QWORD PTR [rcx],r11
   10040d485: 49 3b 8b ff ff ff 7f  cmp    rcx,QWORD PTR [r11+0x7fffffff]
   10040d48c: 4c 39 99 ff ff ff 7f  cmp    QWORD PTR [rcx+0x7fffffff],r11
   10040d493: 4c 39 e1              cmp    rcx,r12
   10040d496: 49 3b 0c 24           cmp    rcx,QWORD PTR [r12]
   10040d49a: 4c 39 21              cmp    QWORD PTR [rcx],r12
   10040d49d: 49 3b 8c 24 ff ff ff 7f   cmp    rcx,QWORD PTR [r12+0x7fffffff]
   10040d4a5: 4c 39 a1 ff ff ff 7f  cmp    QWORD PTR [rcx+0x7fffffff],r12
   10040d4ac: 4c 39 e9              cmp    rcx,r13
   10040d4af: 49 3b 4d 00           cmp    rcx,QWORD PTR [r13+0x0]
   10040d4b3: 4c 39 29              cmp    QWORD PTR [rcx],r13
   10040d4b6: 49 3b 8d ff ff ff 7f  cmp    rcx,QWORD PTR [r13+0x7fffffff]
   10040d4bd: 4c 39 a9 ff ff ff 7f  cmp    QWORD PTR [rcx+0x7fffffff],r13
   10040d4c4: 4c 39 f1              cmp    rcx,r14
   10040d4c7: 49 3b 0e              cmp    rcx,QWORD PTR [r14]
   10040d4ca: 4c 39 31              cmp    QWORD PTR [rcx],r14
   10040d4cd: 49 3b 8e ff ff ff 7f  cmp    rcx,QWORD PTR [r14+0x7fffffff]
   10040d4d4: 4c 39 b1 ff ff ff 7f  cmp    QWORD PTR [rcx+0x7fffffff],r14
   10040d4db: 4c 39 f9              cmp    rcx,r15
   10040d4de: 49 3b 0f              cmp    rcx,QWORD PTR [r15]
   10040d4e1: 4c 39 39              cmp    QWORD PTR [rcx],r15
   10040d4e4: 49 3b 8f ff ff ff 7f  cmp    rcx,QWORD PTR [r15+0x7fffffff]
   10040d4eb: 4c 39 b9 ff ff ff 7f  cmp    QWORD PTR [rcx+0x7fffffff],r15
   10040d4f2: 48 81 fa ff ff ff 7f  cmp    rdx,0x7fffffff
   10040d4f9: 48 39 c2              cmp    rdx,rax
   10040d4fc: 48 3b 10              cmp    rdx,QWORD PTR [rax]
   10040d4ff: 48 39 02              cmp    QWORD PTR [rdx],rax
   10040d502: 48 3b 90 ff ff ff 7f  cmp    rdx,QWORD PTR [rax+0x7fffffff]
   10040d509: 48 39 82 ff ff ff 7f  cmp    QWORD PTR [rdx+0x7fffffff],rax
   10040d510: 48 39 ca              cmp    rdx,rcx
   10040d513: 48 3b 11              cmp    rdx,QWORD PTR [rcx]
   10040d516: 48 39 0a              cmp    QWORD PTR [rdx],rcx
   10040d519: 48 3b 91 ff ff ff 7f  cmp    rdx,QWORD PTR [rcx+0x7fffffff]
   10040d520: 48 39 8a ff ff ff 7f  cmp    QWORD PTR [rdx+0x7fffffff],rcx
   10040d527: 48 39 d2              cmp    rdx,rdx
   10040d52a: 48 3b 12              cmp    rdx,QWORD PTR [rdx]
   10040d52d: 48 39 12              cmp    QWORD PTR [rdx],rdx
   10040d530: 48 3b 92 ff ff ff 7f  cmp    rdx,QWORD PTR [rdx+0x7fffffff]
   10040d537: 48 39 92 ff ff ff 7f  cmp    QWORD PTR [rdx+0x7fffffff],rdx
   10040d53e: 48 39 da              cmp    rdx,rbx
   10040d541: 48 3b 13              cmp    rdx,QWORD PTR [rbx]
   10040d544: 48 39 1a              cmp    QWORD PTR [rdx],rbx
   10040d547: 48 3b 93 ff ff ff 7f  cmp    rdx,QWORD PTR [rbx+0x7fffffff]
   10040d54e: 48 39 9a ff ff ff 7f  cmp    QWORD PTR [rdx+0x7fffffff],rbx
   10040d555: 48 39 e2              cmp    rdx,rsp
   10040d558: 48 3b 14 24           cmp    rdx,QWORD PTR [rsp]
   10040d55c: 48 39 22              cmp    QWORD PTR [rdx],rsp
   10040d55f: 48 3b 94 24 ff ff ff 7f   cmp    rdx,QWORD PTR [rsp+0x7fffffff]
   10040d567: 48 39 a2 ff ff ff 7f  cmp    QWORD PTR [rdx+0x7fffffff],rsp
   10040d56e: 48 39 ea              cmp    rdx,rbp
   10040d571: 48 3b 55 00           cmp    rdx,QWORD PTR [rbp+0x0]
   10040d575: 48 39 2a              cmp    QWORD PTR [rdx],rbp
   10040d578: 48 3b 95 ff ff ff 7f  cmp    rdx,QWORD PTR [rbp+0x7fffffff]
   10040d57f: 48 39 aa ff ff ff 7f  cmp    QWORD PTR [rdx+0x7fffffff],rbp
   10040d586: 48 39 f2              cmp    rdx,rsi
   10040d589: 48 3b 16              cmp    rdx,QWORD PTR [rsi]
   10040d58c: 48 39 32              cmp    QWORD PTR [rdx],rsi
   10040d58f: 48 3b 96 ff ff ff 7f  cmp    rdx,QWORD PTR [rsi+0x7fffffff]
   10040d596: 48 39 b2 ff ff ff 7f  cmp    QWORD PTR [rdx+0x7fffffff],rsi
   10040d59d: 48 39 fa              cmp    rdx,rdi
   10040d5a0: 48 3b 17              cmp    rdx,QWORD PTR [rdi]
   10040d5a3: 48 39 3a              cmp    QWORD PTR [rdx],rdi
   10040d5a6: 48 3b 97 ff ff ff 7f  cmp    rdx,QWORD PTR [rdi+0x7fffffff]
   10040d5ad: 48 39 ba ff ff ff 7f  cmp    QWORD PTR [rdx+0x7fffffff],rdi
   10040d5b4: 4c 39 c2              cmp    rdx,r8
   10040d5b7: 49 3b 10              cmp    rdx,QWORD PTR [r8]
   10040d5ba: 4c 39 02              cmp    QWORD PTR [rdx],r8
   10040d5bd: 49 3b 90 ff ff ff 7f  cmp    rdx,QWORD PTR [r8+0x7fffffff]
   10040d5c4: 4c 39 82 ff ff ff 7f  cmp    QWORD PTR [rdx+0x7fffffff],r8
   10040d5cb: 4c 39 ca              cmp    rdx,r9
   10040d5ce: 49 3b 11              cmp    rdx,QWORD PTR [r9]
   10040d5d1: 4c 39 0a              cmp    QWORD PTR [rdx],r9
   10040d5d4: 49 3b 91 ff ff ff 7f  cmp    rdx,QWORD PTR [r9+0x7fffffff]
   10040d5db: 4c 39 8a ff ff ff 7f  cmp    QWORD PTR [rdx+0x7fffffff],r9
   10040d5e2: 4c 39 d2              cmp    rdx,r10
   10040d5e5: 49 3b 12              cmp    rdx,QWORD PTR [r10]
   10040d5e8: 4c 39 12              cmp    QWORD PTR [rdx],r10
   10040d5eb: 49 3b 92 ff ff ff 7f  cmp    rdx,QWORD PTR [r10+0x7fffffff]
   10040d5f2: 4c 39 92 ff ff ff 7f  cmp    QWORD PTR [rdx+0x7fffffff],r10
   10040d5f9: 4c 39 da              cmp    rdx,r11
   10040d5fc: 49 3b 13              cmp    rdx,QWORD PTR [r11]
   10040d5ff: 4c 39 1a              cmp    QWORD PTR [rdx],r11
   10040d602: 49 3b 93 ff ff ff 7f  cmp    rdx,QWORD PTR [r11+0x7fffffff]
   10040d609: 4c 39 9a ff ff ff 7f  cmp    QWORD PTR [rdx+0x7fffffff],r11
   10040d610: 4c 39 e2              cmp    rdx,r12
   10040d613: 49 3b 14 24           cmp    rdx,QWORD PTR [r12]
   10040d617: 4c 39 22              cmp    QWORD PTR [rdx],r12
   10040d61a: 49 3b 94 24 ff ff ff 7f   cmp    rdx,QWORD PTR [r12+0x7fffffff]
   10040d622: 4c 39 a2 ff ff ff 7f  cmp    QWORD PTR [rdx+0x7fffffff],r12
   10040d629: 4c 39 ea              cmp    rdx,r13
   10040d62c: 49 3b 55 00           cmp    rdx,QWORD PTR [r13+0x0]
   10040d630: 4c 39 2a              cmp    QWORD PTR [rdx],r13
   10040d633: 49 3b 95 ff ff ff 7f  cmp    rdx,QWORD PTR [r13+0x7fffffff]
   10040d63a: 4c 39 aa ff ff ff 7f  cmp    QWORD PTR [rdx+0x7fffffff],r13
   10040d641: 4c 39 f2              cmp    rdx,r14
   10040d644: 49 3b 16              cmp    rdx,QWORD PTR [r14]
   10040d647: 4c 39 32              cmp    QWORD PTR [rdx],r14
   10040d64a: 49 3b 96 ff ff ff 7f  cmp    rdx,QWORD PTR [r14+0x7fffffff]
   10040d651: 4c 39 b2 ff ff ff 7f  cmp    QWORD PTR [rdx+0x7fffffff],r14
   10040d658: 4c 39 fa              cmp    rdx,r15
   10040d65b: 49 3b 17              cmp    rdx,QWORD PTR [r15]
   10040d65e: 4c 39 3a              cmp    QWORD PTR [rdx],r15
   10040d661: 49 3b 97 ff ff ff 7f  cmp    rdx,QWORD PTR [r15+0x7fffffff]
   10040d668: 4c 39 ba ff ff ff 7f  cmp    QWORD PTR [rdx+0x7fffffff],r15
   10040d66f: 48 81 fb ff ff ff 7f  cmp    rbx,0x7fffffff
   10040d676: 48 39 c3              cmp    rbx,rax
   10040d679: 48 3b 18              cmp    rbx,QWORD PTR [rax]
   10040d67c: 48 39 03              cmp    QWORD PTR [rbx],rax
   10040d67f: 48 3b 98 ff ff ff 7f  cmp    rbx,QWORD PTR [rax+0x7fffffff]
   10040d686: 48 39 83 ff ff ff 7f  cmp    QWORD PTR [rbx+0x7fffffff],rax
   10040d68d: 48 39 cb              cmp    rbx,rcx
   10040d690: 48 3b 19              cmp    rbx,QWORD PTR [rcx]
   10040d693: 48 39 0b              cmp    QWORD PTR [rbx],rcx
   10040d696: 48 3b 99 ff ff ff 7f  cmp    rbx,QWORD PTR [rcx+0x7fffffff]
   10040d69d: 48 39 8b ff ff ff 7f  cmp    QWORD PTR [rbx+0x7fffffff],rcx
   10040d6a4: 48 39 d3              cmp    rbx,rdx
   10040d6a7: 48 3b 1a              cmp    rbx,QWORD PTR [rdx]
   10040d6aa: 48 39 13              cmp    QWORD PTR [rbx],rdx
   10040d6ad: 48 3b 9a ff ff ff 7f  cmp    rbx,QWORD PTR [rdx+0x7fffffff]
   10040d6b4: 48 39 93 ff ff ff 7f  cmp    QWORD PTR [rbx+0x7fffffff],rdx
   10040d6bb: 48 39 db              cmp    rbx,rbx
   10040d6be: 48 3b 1b              cmp    rbx,QWORD PTR [rbx]
   10040d6c1: 48 39 1b              cmp    QWORD PTR [rbx],rbx
   10040d6c4: 48 3b 9b ff ff ff 7f  cmp    rbx,QWORD PTR [rbx+0x7fffffff]
   10040d6cb: 48 39 9b ff ff ff 7f  cmp    QWORD PTR [rbx+0x7fffffff],rbx
   10040d6d2: 48 39 e3              cmp    rbx,rsp
   10040d6d5: 48 3b 1c 24           cmp    rbx,QWORD PTR [rsp]
   10040d6d9: 48 39 23              cmp    QWORD PTR [rbx],rsp
   10040d6dc: 48 3b 9c 24 ff ff ff 7f   cmp    rbx,QWORD PTR [rsp+0x7fffffff]
   10040d6e4: 48 39 a3 ff ff ff 7f  cmp    QWORD PTR [rbx+0x7fffffff],rsp
   10040d6eb: 48 39 eb              cmp    rbx,rbp
   10040d6ee: 48 3b 5d 00           cmp    rbx,QWORD PTR [rbp+0x0]
   10040d6f2: 48 39 2b              cmp    QWORD PTR [rbx],rbp
   10040d6f5: 48 3b 9d ff ff ff 7f  cmp    rbx,QWORD PTR [rbp+0x7fffffff]
   10040d6fc: 48 39 ab ff ff ff 7f  cmp    QWORD PTR [rbx+0x7fffffff],rbp
   10040d703: 48 39 f3              cmp    rbx,rsi
   10040d706: 48 3b 1e              cmp    rbx,QWORD PTR [rsi]
   10040d709: 48 39 33              cmp    QWORD PTR [rbx],rsi
   10040d70c: 48 3b 9e ff ff ff 7f  cmp    rbx,QWORD PTR [rsi+0x7fffffff]
   10040d713: 48 39 b3 ff ff ff 7f  cmp    QWORD PTR [rbx+0x7fffffff],rsi
   10040d71a: 48 39 fb              cmp    rbx,rdi
   10040d71d: 48 3b 1f              cmp    rbx,QWORD PTR [rdi]
   10040d720: 48 39 3b              cmp    QWORD PTR [rbx],rdi
   10040d723: 48 3b 9f ff ff ff 7f  cmp    rbx,QWORD PTR [rdi+0x7fffffff]
   10040d72a: 48 39 bb ff ff ff 7f  cmp    QWORD PTR [rbx+0x7fffffff],rdi
   10040d731: 4c 39 c3              cmp    rbx,r8
   10040d734: 49 3b 18              cmp    rbx,QWORD PTR [r8]
   10040d737: 4c 39 03              cmp    QWORD PTR [rbx],r8
   10040d73a: 49 3b 98 ff ff ff 7f  cmp    rbx,QWORD PTR [r8+0x7fffffff]
   10040d741: 4c 39 83 ff ff ff 7f  cmp    QWORD PTR [rbx+0x7fffffff],r8
   10040d748: 4c 39 cb              cmp    rbx,r9
   10040d74b: 49 3b 19              cmp    rbx,QWORD PTR [r9]
   10040d74e: 4c 39 0b              cmp    QWORD PTR [rbx],r9
   10040d751: 49 3b 99 ff ff ff 7f  cmp    rbx,QWORD PTR [r9+0x7fffffff]
   10040d758: 4c 39 8b ff ff ff 7f  cmp    QWORD PTR [rbx+0x7fffffff],r9
   10040d75f: 4c 39 d3              cmp    rbx,r10
   10040d762: 49 3b 1a              cmp    rbx,QWORD PTR [r10]
   10040d765: 4c 39 13              cmp    QWORD PTR [rbx],r10
   10040d768: 49 3b 9a ff ff ff 7f  cmp    rbx,QWORD PTR [r10+0x7fffffff]
   10040d76f: 4c 39 93 ff ff ff 7f  cmp    QWORD PTR [rbx+0x7fffffff],r10
   10040d776: 4c 39 db              cmp    rbx,r11
   10040d779: 49 3b 1b              cmp    rbx,QWORD PTR [r11]
   10040d77c: 4c 39 1b              cmp    QWORD PTR [rbx],r11
   10040d77f: 49 3b 9b ff ff ff 7f  cmp    rbx,QWORD PTR [r11+0x7fffffff]
   10040d786: 4c 39 9b ff ff ff 7f  cmp    QWORD PTR [rbx+0x7fffffff],r11
   10040d78d: 4c 39 e3              cmp    rbx,r12
   10040d790: 49 3b 1c 24           cmp    rbx,QWORD PTR [r12]
   10040d794: 4c 39 23              cmp    QWORD PTR [rbx],r12
   10040d797: 49 3b 9c 24 ff ff ff 7f   cmp    rbx,QWORD PTR [r12+0x7fffffff]
   10040d79f: 4c 39 a3 ff ff ff 7f  cmp    QWORD PTR [rbx+0x7fffffff],r12
   10040d7a6: 4c 39 eb              cmp    rbx,r13
   10040d7a9: 49 3b 5d 00           cmp    rbx,QWORD PTR [r13+0x0]
   10040d7ad: 4c 39 2b              cmp    QWORD PTR [rbx],r13
   10040d7b0: 49 3b 9d ff ff ff 7f  cmp    rbx,QWORD PTR [r13+0x7fffffff]
   10040d7b7: 4c 39 ab ff ff ff 7f  cmp    QWORD PTR [rbx+0x7fffffff],r13
   10040d7be: 4c 39 f3              cmp    rbx,r14
   10040d7c1: 49 3b 1e              cmp    rbx,QWORD PTR [r14]
   10040d7c4: 4c 39 33              cmp    QWORD PTR [rbx],r14
   10040d7c7: 49 3b 9e ff ff ff 7f  cmp    rbx,QWORD PTR [r14+0x7fffffff]
   10040d7ce: 4c 39 b3 ff ff ff 7f  cmp    QWORD PTR [rbx+0x7fffffff],r14
   10040d7d5: 4c 39 fb              cmp    rbx,r15
   10040d7d8: 49 3b 1f              cmp    rbx,QWORD PTR [r15]
   10040d7db: 4c 39 3b              cmp    QWORD PTR [rbx],r15
   10040d7de: 49 3b 9f ff ff ff 7f  cmp    rbx,QWORD PTR [r15+0x7fffffff]
   10040d7e5: 4c 39 bb ff ff ff 7f  cmp    QWORD PTR [rbx+0x7fffffff],r15
   10040d7ec: 48 81 fc ff ff ff 7f  cmp    rsp,0x7fffffff
   10040d7f3: 48 39 c4              cmp    rsp,rax
   10040d7f6: 48 3b 20              cmp    rsp,QWORD PTR [rax]
   10040d7f9: 48 39 04 24           cmp    QWORD PTR [rsp],rax
   10040d7fd: 48 3b a0 ff ff ff 7f  cmp    rsp,QWORD PTR [rax+0x7fffffff]
   10040d804: 48 39 84 24 ff ff ff 7f   cmp    QWORD PTR [rsp+0x7fffffff],rax
   10040d80c: 48 39 cc              cmp    rsp,rcx
   10040d80f: 48 3b 21              cmp    rsp,QWORD PTR [rcx]
   10040d812: 48 39 0c 24           cmp    QWORD PTR [rsp],rcx
   10040d816: 48 3b a1 ff ff ff 7f  cmp    rsp,QWORD PTR [rcx+0x7fffffff]
   10040d81d: 48 39 8c 24 ff ff ff 7f   cmp    QWORD PTR [rsp+0x7fffffff],rcx
   10040d825: 48 39 d4              cmp    rsp,rdx
   10040d828: 48 3b 22              cmp    rsp,QWORD PTR [rdx]
   10040d82b: 48 39 14 24           cmp    QWORD PTR [rsp],rdx
   10040d82f: 48 3b a2 ff ff ff 7f  cmp    rsp,QWORD PTR [rdx+0x7fffffff]
   10040d836: 48 39 94 24 ff ff ff 7f   cmp    QWORD PTR [rsp+0x7fffffff],rdx
   10040d83e: 48 39 dc              cmp    rsp,rbx
   10040d841: 48 3b 23              cmp    rsp,QWORD PTR [rbx]
   10040d844: 48 39 1c 24           cmp    QWORD PTR [rsp],rbx
   10040d848: 48 3b a3 ff ff ff 7f  cmp    rsp,QWORD PTR [rbx+0x7fffffff]
   10040d84f: 48 39 9c 24 ff ff ff 7f   cmp    QWORD PTR [rsp+0x7fffffff],rbx
   10040d857: 48 39 e4              cmp    rsp,rsp
   10040d85a: 48 3b 24 24           cmp    rsp,QWORD PTR [rsp]
   10040d85e: 48 39 24 24           cmp    QWORD PTR [rsp],rsp
   10040d862: 48 3b a4 24 ff ff ff 7f   cmp    rsp,QWORD PTR [rsp+0x7fffffff]
   10040d86a: 48 39 a4 24 ff ff ff 7f   cmp    QWORD PTR [rsp+0x7fffffff],rsp
   10040d872: 48 39 ec              cmp    rsp,rbp
   10040d875: 48 3b 65 00           cmp    rsp,QWORD PTR [rbp+0x0]
   10040d879: 48 39 2c 24           cmp    QWORD PTR [rsp],rbp
   10040d87d: 48 3b a5 ff ff ff 7f  cmp    rsp,QWORD PTR [rbp+0x7fffffff]
   10040d884: 48 39 ac 24 ff ff ff 7f   cmp    QWORD PTR [rsp+0x7fffffff],rbp
   10040d88c: 48 39 f4              cmp    rsp,rsi
   10040d88f: 48 3b 26              cmp    rsp,QWORD PTR [rsi]
   10040d892: 48 39 34 24           cmp    QWORD PTR [rsp],rsi
   10040d896: 48 3b a6 ff ff ff 7f  cmp    rsp,QWORD PTR [rsi+0x7fffffff]
   10040d89d: 48 39 b4 24 ff ff ff 7f   cmp    QWORD PTR [rsp+0x7fffffff],rsi
   10040d8a5: 48 39 fc              cmp    rsp,rdi
   10040d8a8: 48 3b 27              cmp    rsp,QWORD PTR [rdi]
   10040d8ab: 48 39 3c 24           cmp    QWORD PTR [rsp],rdi
   10040d8af: 48 3b a7 ff ff ff 7f  cmp    rsp,QWORD PTR [rdi+0x7fffffff]
   10040d8b6: 48 39 bc 24 ff ff ff 7f   cmp    QWORD PTR [rsp+0x7fffffff],rdi
   10040d8be: 4c 39 c4              cmp    rsp,r8
   10040d8c1: 49 3b 20              cmp    rsp,QWORD PTR [r8]
   10040d8c4: 4c 39 04 24           cmp    QWORD PTR [rsp],r8
   10040d8c8: 49 3b a0 ff ff ff 7f  cmp    rsp,QWORD PTR [r8+0x7fffffff]
   10040d8cf: 4c 39 84 24 ff ff ff 7f   cmp    QWORD PTR [rsp+0x7fffffff],r8
   10040d8d7: 4c 39 cc              cmp    rsp,r9
   10040d8da: 49 3b 21              cmp    rsp,QWORD PTR [r9]
   10040d8dd: 4c 39 0c 24           cmp    QWORD PTR [rsp],r9
   10040d8e1: 49 3b a1 ff ff ff 7f  cmp    rsp,QWORD PTR [r9+0x7fffffff]
   10040d8e8: 4c 39 8c 24 ff ff ff 7f   cmp    QWORD PTR [rsp+0x7fffffff],r9
   10040d8f0: 4c 39 d4              cmp    rsp,r10
   10040d8f3: 49 3b 22              cmp    rsp,QWORD PTR [r10]
   10040d8f6: 4c 39 14 24           cmp    QWORD PTR [rsp],r10
   10040d8fa: 49 3b a2 ff ff ff 7f  cmp    rsp,QWORD PTR [r10+0x7fffffff]
   10040d901: 4c 39 94 24 ff ff ff 7f   cmp    QWORD PTR [rsp+0x7fffffff],r10
   10040d909: 4c 39 dc              cmp    rsp,r11
   10040d90c: 49 3b 23              cmp    rsp,QWORD PTR [r11]
   10040d90f: 4c 39 1c 24           cmp    QWORD PTR [rsp],r11
   10040d913: 49 3b a3 ff ff ff 7f  cmp    rsp,QWORD PTR [r11+0x7fffffff]
   10040d91a: 4c 39 9c 24 ff ff ff 7f   cmp    QWORD PTR [rsp+0x7fffffff],r11
   10040d922: 4c 39 e4              cmp    rsp,r12
   10040d925: 49 3b 24 24           cmp    rsp,QWORD PTR [r12]
   10040d929: 4c 39 24 24           cmp    QWORD PTR [rsp],r12
   10040d92d: 49 3b a4 24 ff ff ff 7f   cmp    rsp,QWORD PTR [r12+0x7fffffff]
   10040d935: 4c 39 a4 24 ff ff ff 7f   cmp    QWORD PTR [rsp+0x7fffffff],r12
   10040d93d: 4c 39 ec              cmp    rsp,r13
   10040d940: 49 3b 65 00           cmp    rsp,QWORD PTR [r13+0x0]
   10040d944: 4c 39 2c 24           cmp    QWORD PTR [rsp],r13
   10040d948: 49 3b a5 ff ff ff 7f  cmp    rsp,QWORD PTR [r13+0x7fffffff]
   10040d94f: 4c 39 ac 24 ff ff ff 7f   cmp    QWORD PTR [rsp+0x7fffffff],r13
   10040d957: 4c 39 f4              cmp    rsp,r14
   10040d95a: 49 3b 26              cmp    rsp,QWORD PTR [r14]
   10040d95d: 4c 39 34 24           cmp    QWORD PTR [rsp],r14
   10040d961: 49 3b a6 ff ff ff 7f  cmp    rsp,QWORD PTR [r14+0x7fffffff]
   10040d968: 4c 39 b4 24 ff ff ff 7f   cmp    QWORD PTR [rsp+0x7fffffff],r14
   10040d970: 4c 39 fc              cmp    rsp,r15
   10040d973: 49 3b 27              cmp    rsp,QWORD PTR [r15]
   10040d976: 4c 39 3c 24           cmp    QWORD PTR [rsp],r15
   10040d97a: 49 3b a7 ff ff ff 7f  cmp    rsp,QWORD PTR [r15+0x7fffffff]
   10040d981: 4c 39 bc 24 ff ff ff 7f   cmp    QWORD PTR [rsp+0x7fffffff],r15
   10040d989: 48 81 fd ff ff ff 7f  cmp    rbp,0x7fffffff
   10040d990: 48 39 c5              cmp    rbp,rax
   10040d993: 48 3b 28              cmp    rbp,QWORD PTR [rax]
   10040d996: 48 39 45 00           cmp    QWORD PTR [rbp+0x0],rax
   10040d99a: 48 3b a8 ff ff ff 7f  cmp    rbp,QWORD PTR [rax+0x7fffffff]
   10040d9a1: 48 39 85 ff ff ff 7f  cmp    QWORD PTR [rbp+0x7fffffff],rax
   10040d9a8: 48 39 cd              cmp    rbp,rcx
   10040d9ab: 48 3b 29              cmp    rbp,QWORD PTR [rcx]
   10040d9ae: 48 39 4d 00           cmp    QWORD PTR [rbp+0x0],rcx
   10040d9b2: 48 3b a9 ff ff ff 7f  cmp    rbp,QWORD PTR [rcx+0x7fffffff]
   10040d9b9: 48 39 8d ff ff ff 7f  cmp    QWORD PTR [rbp+0x7fffffff],rcx
   10040d9c0: 48 39 d5              cmp    rbp,rdx
   10040d9c3: 48 3b 2a              cmp    rbp,QWORD PTR [rdx]
   10040d9c6: 48 39 55 00           cmp    QWORD PTR [rbp+0x0],rdx
   10040d9ca: 48 3b aa ff ff ff 7f  cmp    rbp,QWORD PTR [rdx+0x7fffffff]
   10040d9d1: 48 39 95 ff ff ff 7f  cmp    QWORD PTR [rbp+0x7fffffff],rdx
   10040d9d8: 48 39 dd              cmp    rbp,rbx
   10040d9db: 48 3b 2b              cmp    rbp,QWORD PTR [rbx]
   10040d9de: 48 39 5d 00           cmp    QWORD PTR [rbp+0x0],rbx
   10040d9e2: 48 3b ab ff ff ff 7f  cmp    rbp,QWORD PTR [rbx+0x7fffffff]
   10040d9e9: 48 39 9d ff ff ff 7f  cmp    QWORD PTR [rbp+0x7fffffff],rbx
   10040d9f0: 48 39 e5              cmp    rbp,rsp
   10040d9f3: 48 3b 2c 24           cmp    rbp,QWORD PTR [rsp]
   10040d9f7: 48 39 65 00           cmp    QWORD PTR [rbp+0x0],rsp
   10040d9fb: 48 3b ac 24 ff ff ff 7f   cmp    rbp,QWORD PTR [rsp+0x7fffffff]
   10040da03: 48 39 a5 ff ff ff 7f  cmp    QWORD PTR [rbp+0x7fffffff],rsp
   10040da0a: 48 39 ed              cmp    rbp,rbp
   10040da0d: 48 3b 6d 00           cmp    rbp,QWORD PTR [rbp+0x0]
   10040da11: 48 39 6d 00           cmp    QWORD PTR [rbp+0x0],rbp
   10040da15: 48 3b ad ff ff ff 7f  cmp    rbp,QWORD PTR [rbp+0x7fffffff]
   10040da1c: 48 39 ad ff ff ff 7f  cmp    QWORD PTR [rbp+0x7fffffff],rbp
   10040da23: 48 39 f5              cmp    rbp,rsi
   10040da26: 48 3b 2e              cmp    rbp,QWORD PTR [rsi]
   10040da29: 48 39 75 00           cmp    QWORD PTR [rbp+0x0],rsi
   10040da2d: 48 3b ae ff ff ff 7f  cmp    rbp,QWORD PTR [rsi+0x7fffffff]
   10040da34: 48 39 b5 ff ff ff 7f  cmp    QWORD PTR [rbp+0x7fffffff],rsi
   10040da3b: 48 39 fd              cmp    rbp,rdi
   10040da3e: 48 3b 2f              cmp    rbp,QWORD PTR [rdi]
   10040da41: 48 39 7d 00           cmp    QWORD PTR [rbp+0x0],rdi
   10040da45: 48 3b af ff ff ff 7f  cmp    rbp,QWORD PTR [rdi+0x7fffffff]
   10040da4c: 48 39 bd ff ff ff 7f  cmp    QWORD PTR [rbp+0x7fffffff],rdi
   10040da53: 4c 39 c5              cmp    rbp,r8
   10040da56: 49 3b 28              cmp    rbp,QWORD PTR [r8]
   10040da59: 4c 39 45 00           cmp    QWORD PTR [rbp+0x0],r8
   10040da5d: 49 3b a8 ff ff ff 7f  cmp    rbp,QWORD PTR [r8+0x7fffffff]
   10040da64: 4c 39 85 ff ff ff 7f  cmp    QWORD PTR [rbp+0x7fffffff],r8
   10040da6b: 4c 39 cd              cmp    rbp,r9
   10040da6e: 49 3b 29              cmp    rbp,QWORD PTR [r9]
   10040da71: 4c 39 4d 00           cmp    QWORD PTR [rbp+0x0],r9
   10040da75: 49 3b a9 ff ff ff 7f  cmp    rbp,QWORD PTR [r9+0x7fffffff]
   10040da7c: 4c 39 8d ff ff ff 7f  cmp    QWORD PTR [rbp+0x7fffffff],r9
   10040da83: 4c 39 d5              cmp    rbp,r10
   10040da86: 49 3b 2a              cmp    rbp,QWORD PTR [r10]
   10040da89: 4c 39 55 00           cmp    QWORD PTR [rbp+0x0],r10
   10040da8d: 49 3b aa ff ff ff 7f  cmp    rbp,QWORD PTR [r10+0x7fffffff]
   10040da94: 4c 39 95 ff ff ff 7f  cmp    QWORD PTR [rbp+0x7fffffff],r10
   10040da9b: 4c 39 dd              cmp    rbp,r11
   10040da9e: 49 3b 2b              cmp    rbp,QWORD PTR [r11]
   10040daa1: 4c 39 5d 00           cmp    QWORD PTR [rbp+0x0],r11
   10040daa5: 49 3b ab ff ff ff 7f  cmp    rbp,QWORD PTR [r11+0x7fffffff]
   10040daac: 4c 39 9d ff ff ff 7f  cmp    QWORD PTR [rbp+0x7fffffff],r11
   10040dab3: 4c 39 e5              cmp    rbp,r12
   10040dab6: 49 3b 2c 24           cmp    rbp,QWORD PTR [r12]
   10040daba: 4c 39 65 00           cmp    QWORD PTR [rbp+0x0],r12
   10040dabe: 49 3b ac 24 ff ff ff 7f   cmp    rbp,QWORD PTR [r12+0x7fffffff]
   10040dac6: 4c 39 a5 ff ff ff 7f  cmp    QWORD PTR [rbp+0x7fffffff],r12
   10040dacd: 4c 39 ed              cmp    rbp,r13
   10040dad0: 49 3b 6d 00           cmp    rbp,QWORD PTR [r13+0x0]
   10040dad4: 4c 39 6d 00           cmp    QWORD PTR [rbp+0x0],r13
   10040dad8: 49 3b ad ff ff ff 7f  cmp    rbp,QWORD PTR [r13+0x7fffffff]
   10040dadf: 4c 39 ad ff ff ff 7f  cmp    QWORD PTR [rbp+0x7fffffff],r13
   10040dae6: 4c 39 f5              cmp    rbp,r14
   10040dae9: 49 3b 2e              cmp    rbp,QWORD PTR [r14]
   10040daec: 4c 39 75 00           cmp    QWORD PTR [rbp+0x0],r14
   10040daf0: 49 3b ae ff ff ff 7f  cmp    rbp,QWORD PTR [r14+0x7fffffff]
   10040daf7: 4c 39 b5 ff ff ff 7f  cmp    QWORD PTR [rbp+0x7fffffff],r14
   10040dafe: 4c 39 fd              cmp    rbp,r15
   10040db01: 49 3b 2f              cmp    rbp,QWORD PTR [r15]
   10040db04: 4c 39 7d 00           cmp    QWORD PTR [rbp+0x0],r15
   10040db08: 49 3b af ff ff ff 7f  cmp    rbp,QWORD PTR [r15+0x7fffffff]
   10040db0f: 4c 39 bd ff ff ff 7f  cmp    QWORD PTR [rbp+0x7fffffff],r15
   10040db16: 48 81 fe ff ff ff 7f  cmp    rsi,0x7fffffff
   10040db1d: 48 39 c6              cmp    rsi,rax
   10040db20: 48 3b 30              cmp    rsi,QWORD PTR [rax]
   10040db23: 48 39 06              cmp    QWORD PTR [rsi],rax
   10040db26: 48 3b b0 ff ff ff 7f  cmp    rsi,QWORD PTR [rax+0x7fffffff]
   10040db2d: 48 39 86 ff ff ff 7f  cmp    QWORD PTR [rsi+0x7fffffff],rax
   10040db34: 48 39 ce              cmp    rsi,rcx
   10040db37: 48 3b 31              cmp    rsi,QWORD PTR [rcx]
   10040db3a: 48 39 0e              cmp    QWORD PTR [rsi],rcx
   10040db3d: 48 3b b1 ff ff ff 7f  cmp    rsi,QWORD PTR [rcx+0x7fffffff]
   10040db44: 48 39 8e ff ff ff 7f  cmp    QWORD PTR [rsi+0x7fffffff],rcx
   10040db4b: 48 39 d6              cmp    rsi,rdx
   10040db4e: 48 3b 32              cmp    rsi,QWORD PTR [rdx]
   10040db51: 48 39 16              cmp    QWORD PTR [rsi],rdx
   10040db54: 48 3b b2 ff ff ff 7f  cmp    rsi,QWORD PTR [rdx+0x7fffffff]
   10040db5b: 48 39 96 ff ff ff 7f  cmp    QWORD PTR [rsi+0x7fffffff],rdx
   10040db62: 48 39 de              cmp    rsi,rbx
   10040db65: 48 3b 33              cmp    rsi,QWORD PTR [rbx]
   10040db68: 48 39 1e              cmp    QWORD PTR [rsi],rbx
   10040db6b: 48 3b b3 ff ff ff 7f  cmp    rsi,QWORD PTR [rbx+0x7fffffff]
   10040db72: 48 39 9e ff ff ff 7f  cmp    QWORD PTR [rsi+0x7fffffff],rbx
   10040db79: 48 39 e6              cmp    rsi,rsp
   10040db7c: 48 3b 34 24           cmp    rsi,QWORD PTR [rsp]
   10040db80: 48 39 26              cmp    QWORD PTR [rsi],rsp
   10040db83: 48 3b b4 24 ff ff ff 7f   cmp    rsi,QWORD PTR [rsp+0x7fffffff]
   10040db8b: 48 39 a6 ff ff ff 7f  cmp    QWORD PTR [rsi+0x7fffffff],rsp
   10040db92: 48 39 ee              cmp    rsi,rbp
   10040db95: 48 3b 75 00           cmp    rsi,QWORD PTR [rbp+0x0]
   10040db99: 48 39 2e              cmp    QWORD PTR [rsi],rbp
   10040db9c: 48 3b b5 ff ff ff 7f  cmp    rsi,QWORD PTR [rbp+0x7fffffff]
   10040dba3: 48 39 ae ff ff ff 7f  cmp    QWORD PTR [rsi+0x7fffffff],rbp
   10040dbaa: 48 39 f6              cmp    rsi,rsi
   10040dbad: 48 3b 36              cmp    rsi,QWORD PTR [rsi]
   10040dbb0: 48 39 36              cmp    QWORD PTR [rsi],rsi
   10040dbb3: 48 3b b6 ff ff ff 7f  cmp    rsi,QWORD PTR [rsi+0x7fffffff]
   10040dbba: 48 39 b6 ff ff ff 7f  cmp    QWORD PTR [rsi+0x7fffffff],rsi
   10040dbc1: 48 39 fe              cmp    rsi,rdi
   10040dbc4: 48 3b 37              cmp    rsi,QWORD PTR [rdi]
   10040dbc7: 48 39 3e              cmp    QWORD PTR [rsi],rdi
   10040dbca: 48 3b b7 ff ff ff 7f  cmp    rsi,QWORD PTR [rdi+0x7fffffff]
   10040dbd1: 48 39 be ff ff ff 7f  cmp    QWORD PTR [rsi+0x7fffffff],rdi
   10040dbd8: 4c 39 c6              cmp    rsi,r8
   10040dbdb: 49 3b 30              cmp    rsi,QWORD PTR [r8]
   10040dbde: 4c 39 06              cmp    QWORD PTR [rsi],r8
   10040dbe1: 49 3b b0 ff ff ff 7f  cmp    rsi,QWORD PTR [r8+0x7fffffff]
   10040dbe8: 4c 39 86 ff ff ff 7f  cmp    QWORD PTR [rsi+0x7fffffff],r8
   10040dbef: 4c 39 ce              cmp    rsi,r9
   10040dbf2: 49 3b 31              cmp    rsi,QWORD PTR [r9]
   10040dbf5: 4c 39 0e              cmp    QWORD PTR [rsi],r9
   10040dbf8: 49 3b b1 ff ff ff 7f  cmp    rsi,QWORD PTR [r9+0x7fffffff]
   10040dbff: 4c 39 8e ff ff ff 7f  cmp    QWORD PTR [rsi+0x7fffffff],r9
   10040dc06: 4c 39 d6              cmp    rsi,r10
   10040dc09: 49 3b 32              cmp    rsi,QWORD PTR [r10]
   10040dc0c: 4c 39 16              cmp    QWORD PTR [rsi],r10
   10040dc0f: 49 3b b2 ff ff ff 7f  cmp    rsi,QWORD PTR [r10+0x7fffffff]
   10040dc16: 4c 39 96 ff ff ff 7f  cmp    QWORD PTR [rsi+0x7fffffff],r10
   10040dc1d: 4c 39 de              cmp    rsi,r11
   10040dc20: 49 3b 33              cmp    rsi,QWORD PTR [r11]
   10040dc23: 4c 39 1e              cmp    QWORD PTR [rsi],r11
   10040dc26: 49 3b b3 ff ff ff 7f  cmp    rsi,QWORD PTR [r11+0x7fffffff]
   10040dc2d: 4c 39 9e ff ff ff 7f  cmp    QWORD PTR [rsi+0x7fffffff],r11
   10040dc34: 4c 39 e6              cmp    rsi,r12
   10040dc37: 49 3b 34 24           cmp    rsi,QWORD PTR [r12]
   10040dc3b: 4c 39 26              cmp    QWORD PTR [rsi],r12
   10040dc3e: 49 3b b4 24 ff ff ff 7f   cmp    rsi,QWORD PTR [r12+0x7fffffff]
   10040dc46: 4c 39 a6 ff ff ff 7f  cmp    QWORD PTR [rsi+0x7fffffff],r12
   10040dc4d: 4c 39 ee              cmp    rsi,r13
   10040dc50: 49 3b 75 00           cmp    rsi,QWORD PTR [r13+0x0]
   10040dc54: 4c 39 2e              cmp    QWORD PTR [rsi],r13
   10040dc57: 49 3b b5 ff ff ff 7f  cmp    rsi,QWORD PTR [r13+0x7fffffff]
   10040dc5e: 4c 39 ae ff ff ff 7f  cmp    QWORD PTR [rsi+0x7fffffff],r13
   10040dc65: 4c 39 f6              cmp    rsi,r14
   10040dc68: 49 3b 36              cmp    rsi,QWORD PTR [r14]
   10040dc6b: 4c 39 36              cmp    QWORD PTR [rsi],r14
   10040dc6e: 49 3b b6 ff ff ff 7f  cmp    rsi,QWORD PTR [r14+0x7fffffff]
   10040dc75: 4c 39 b6 ff ff ff 7f  cmp    QWORD PTR [rsi+0x7fffffff],r14
   10040dc7c: 4c 39 fe              cmp    rsi,r15
   10040dc7f: 49 3b 37              cmp    rsi,QWORD PTR [r15]
   10040dc82: 4c 39 3e              cmp    QWORD PTR [rsi],r15
   10040dc85: 49 3b b7 ff ff ff 7f  cmp    rsi,QWORD PTR [r15+0x7fffffff]
   10040dc8c: 4c 39 be ff ff ff 7f  cmp    QWORD PTR [rsi+0x7fffffff],r15
   10040dc93: 48 81 ff ff ff ff 7f  cmp    rdi,0x7fffffff
   10040dc9a: 48 39 c7              cmp    rdi,rax
   10040dc9d: 48 3b 38              cmp    rdi,QWORD PTR [rax]
   10040dca0: 48 39 07              cmp    QWORD PTR [rdi],rax
   10040dca3: 48 3b b8 ff ff ff 7f  cmp    rdi,QWORD PTR [rax+0x7fffffff]
   10040dcaa: 48 39 87 ff ff ff 7f  cmp    QWORD PTR [rdi+0x7fffffff],rax
   10040dcb1: 48 39 cf              cmp    rdi,rcx
   10040dcb4: 48 3b 39              cmp    rdi,QWORD PTR [rcx]
   10040dcb7: 48 39 0f              cmp    QWORD PTR [rdi],rcx
   10040dcba: 48 3b b9 ff ff ff 7f  cmp    rdi,QWORD PTR [rcx+0x7fffffff]
   10040dcc1: 48 39 8f ff ff ff 7f  cmp    QWORD PTR [rdi+0x7fffffff],rcx
   10040dcc8: 48 39 d7              cmp    rdi,rdx
   10040dccb: 48 3b 3a              cmp    rdi,QWORD PTR [rdx]
   10040dcce: 48 39 17              cmp    QWORD PTR [rdi],rdx
   10040dcd1: 48 3b ba ff ff ff 7f  cmp    rdi,QWORD PTR [rdx+0x7fffffff]
   10040dcd8: 48 39 97 ff ff ff 7f  cmp    QWORD PTR [rdi+0x7fffffff],rdx
   10040dcdf: 48 39 df              cmp    rdi,rbx
   10040dce2: 48 3b 3b              cmp    rdi,QWORD PTR [rbx]
   10040dce5: 48 39 1f              cmp    QWORD PTR [rdi],rbx
   10040dce8: 48 3b bb ff ff ff 7f  cmp    rdi,QWORD PTR [rbx+0x7fffffff]
   10040dcef: 48 39 9f ff ff ff 7f  cmp    QWORD PTR [rdi+0x7fffffff],rbx
   10040dcf6: 48 39 e7              cmp    rdi,rsp
   10040dcf9: 48 3b 3c 24           cmp    rdi,QWORD PTR [rsp]
   10040dcfd: 48 39 27              cmp    QWORD PTR [rdi],rsp
   10040dd00: 48 3b bc 24 ff ff ff 7f   cmp    rdi,QWORD PTR [rsp+0x7fffffff]
   10040dd08: 48 39 a7 ff ff ff 7f  cmp    QWORD PTR [rdi+0x7fffffff],rsp
   10040dd0f: 48 39 ef              cmp    rdi,rbp
   10040dd12: 48 3b 7d 00           cmp    rdi,QWORD PTR [rbp+0x0]
   10040dd16: 48 39 2f              cmp    QWORD PTR [rdi],rbp
   10040dd19: 48 3b bd ff ff ff 7f  cmp    rdi,QWORD PTR [rbp+0x7fffffff]
   10040dd20: 48 39 af ff ff ff 7f  cmp    QWORD PTR [rdi+0x7fffffff],rbp
   10040dd27: 48 39 f7              cmp    rdi,rsi
   10040dd2a: 48 3b 3e              cmp    rdi,QWORD PTR [rsi]
   10040dd2d: 48 39 37              cmp    QWORD PTR [rdi],rsi
   10040dd30: 48 3b be ff ff ff 7f  cmp    rdi,QWORD PTR [rsi+0x7fffffff]
   10040dd37: 48 39 b7 ff ff ff 7f  cmp    QWORD PTR [rdi+0x7fffffff],rsi
   10040dd3e: 48 39 ff              cmp    rdi,rdi
   10040dd41: 48 3b 3f              cmp    rdi,QWORD PTR [rdi]
   10040dd44: 48 39 3f              cmp    QWORD PTR [rdi],rdi
   10040dd47: 48 3b bf ff ff ff 7f  cmp    rdi,QWORD PTR [rdi+0x7fffffff]
   10040dd4e: 48 39 bf ff ff ff 7f  cmp    QWORD PTR [rdi+0x7fffffff],rdi
   10040dd55: 4c 39 c7              cmp    rdi,r8
   10040dd58: 49 3b 38              cmp    rdi,QWORD PTR [r8]
   10040dd5b: 4c 39 07              cmp    QWORD PTR [rdi],r8
   10040dd5e: 49 3b b8 ff ff ff 7f  cmp    rdi,QWORD PTR [r8+0x7fffffff]
   10040dd65: 4c 39 87 ff ff ff 7f  cmp    QWORD PTR [rdi+0x7fffffff],r8
   10040dd6c: 4c 39 cf              cmp    rdi,r9
   10040dd6f: 49 3b 39              cmp    rdi,QWORD PTR [r9]
   10040dd72: 4c 39 0f              cmp    QWORD PTR [rdi],r9
   10040dd75: 49 3b b9 ff ff ff 7f  cmp    rdi,QWORD PTR [r9+0x7fffffff]
   10040dd7c: 4c 39 8f ff ff ff 7f  cmp    QWORD PTR [rdi+0x7fffffff],r9
   10040dd83: 4c 39 d7              cmp    rdi,r10
   10040dd86: 49 3b 3a              cmp    rdi,QWORD PTR [r10]
   10040dd89: 4c 39 17              cmp    QWORD PTR [rdi],r10
   10040dd8c: 49 3b ba ff ff ff 7f  cmp    rdi,QWORD PTR [r10+0x7fffffff]
   10040dd93: 4c 39 97 ff ff ff 7f  cmp    QWORD PTR [rdi+0x7fffffff],r10
   10040dd9a: 4c 39 df              cmp    rdi,r11
   10040dd9d: 49 3b 3b              cmp    rdi,QWORD PTR [r11]
   10040dda0: 4c 39 1f              cmp    QWORD PTR [rdi],r11
   10040dda3: 49 3b bb ff ff ff 7f  cmp    rdi,QWORD PTR [r11+0x7fffffff]
   10040ddaa: 4c 39 9f ff ff ff 7f  cmp    QWORD PTR [rdi+0x7fffffff],r11
   10040ddb1: 4c 39 e7              cmp    rdi,r12
   10040ddb4: 49 3b 3c 24           cmp    rdi,QWORD PTR [r12]
   10040ddb8: 4c 39 27              cmp    QWORD PTR [rdi],r12
   10040ddbb: 49 3b bc 24 ff ff ff 7f   cmp    rdi,QWORD PTR [r12+0x7fffffff]
   10040ddc3: 4c 39 a7 ff ff ff 7f  cmp    QWORD PTR [rdi+0x7fffffff],r12
   10040ddca: 4c 39 ef              cmp    rdi,r13
   10040ddcd: 49 3b 7d 00           cmp    rdi,QWORD PTR [r13+0x0]
   10040ddd1: 4c 39 2f              cmp    QWORD PTR [rdi],r13
   10040ddd4: 49 3b bd ff ff ff 7f  cmp    rdi,QWORD PTR [r13+0x7fffffff]
   10040dddb: 4c 39 af ff ff ff 7f  cmp    QWORD PTR [rdi+0x7fffffff],r13
   10040dde2: 4c 39 f7              cmp    rdi,r14
   10040dde5: 49 3b 3e              cmp    rdi,QWORD PTR [r14]
   10040dde8: 4c 39 37              cmp    QWORD PTR [rdi],r14
   10040ddeb: 49 3b be ff ff ff 7f  cmp    rdi,QWORD PTR [r14+0x7fffffff]
   10040ddf2: 4c 39 b7 ff ff ff 7f  cmp    QWORD PTR [rdi+0x7fffffff],r14
   10040ddf9: 4c 39 ff              cmp    rdi,r15
   10040ddfc: 49 3b 3f              cmp    rdi,QWORD PTR [r15]
   10040ddff: 4c 39 3f              cmp    QWORD PTR [rdi],r15
   10040de02: 49 3b bf ff ff ff 7f  cmp    rdi,QWORD PTR [r15+0x7fffffff]
   10040de09: 4c 39 bf ff ff ff 7f  cmp    QWORD PTR [rdi+0x7fffffff],r15
   10040de10: 49 81 f8 ff ff ff 7f  cmp    r8,0x7fffffff
   10040de17: 49 39 c0              cmp    r8,rax
   10040de1a: 4c 3b 00              cmp    r8,QWORD PTR [rax]
   10040de1d: 49 39 00              cmp    QWORD PTR [r8],rax
   10040de20: 4c 3b 80 ff ff ff 7f  cmp    r8,QWORD PTR [rax+0x7fffffff]
   10040de27: 49 39 80 ff ff ff 7f  cmp    QWORD PTR [r8+0x7fffffff],rax
   10040de2e: 49 39 c8              cmp    r8,rcx
   10040de31: 4c 3b 01              cmp    r8,QWORD PTR [rcx]
   10040de34: 49 39 08              cmp    QWORD PTR [r8],rcx
   10040de37: 4c 3b 81 ff ff ff 7f  cmp    r8,QWORD PTR [rcx+0x7fffffff]
   10040de3e: 49 39 88 ff ff ff 7f  cmp    QWORD PTR [r8+0x7fffffff],rcx
   10040de45: 49 39 d0              cmp    r8,rdx
   10040de48: 4c 3b 02              cmp    r8,QWORD PTR [rdx]
   10040de4b: 49 39 10              cmp    QWORD PTR [r8],rdx
   10040de4e: 4c 3b 82 ff ff ff 7f  cmp    r8,QWORD PTR [rdx+0x7fffffff]
   10040de55: 49 39 90 ff ff ff 7f  cmp    QWORD PTR [r8+0x7fffffff],rdx
   10040de5c: 49 39 d8              cmp    r8,rbx
   10040de5f: 4c 3b 03              cmp    r8,QWORD PTR [rbx]
   10040de62: 49 39 18              cmp    QWORD PTR [r8],rbx
   10040de65: 4c 3b 83 ff ff ff 7f  cmp    r8,QWORD PTR [rbx+0x7fffffff]
   10040de6c: 49 39 98 ff ff ff 7f  cmp    QWORD PTR [r8+0x7fffffff],rbx
   10040de73: 49 39 e0              cmp    r8,rsp
   10040de76: 4c 3b 04 24           cmp    r8,QWORD PTR [rsp]
   10040de7a: 49 39 20              cmp    QWORD PTR [r8],rsp
   10040de7d: 4c 3b 84 24 ff ff ff 7f   cmp    r8,QWORD PTR [rsp+0x7fffffff]
   10040de85: 49 39 a0 ff ff ff 7f  cmp    QWORD PTR [r8+0x7fffffff],rsp
   10040de8c: 49 39 e8              cmp    r8,rbp
   10040de8f: 4c 3b 45 00           cmp    r8,QWORD PTR [rbp+0x0]
   10040de93: 49 39 28              cmp    QWORD PTR [r8],rbp
   10040de96: 4c 3b 85 ff ff ff 7f  cmp    r8,QWORD PTR [rbp+0x7fffffff]
   10040de9d: 49 39 a8 ff ff ff 7f  cmp    QWORD PTR [r8+0x7fffffff],rbp
   10040dea4: 49 39 f0              cmp    r8,rsi
   10040dea7: 4c 3b 06              cmp    r8,QWORD PTR [rsi]
   10040deaa: 49 39 30              cmp    QWORD PTR [r8],rsi
   10040dead: 4c 3b 86 ff ff ff 7f  cmp    r8,QWORD PTR [rsi+0x7fffffff]
   10040deb4: 49 39 b0 ff ff ff 7f  cmp    QWORD PTR [r8+0x7fffffff],rsi
   10040debb: 49 39 f8              cmp    r8,rdi
   10040debe: 4c 3b 07              cmp    r8,QWORD PTR [rdi]
   10040dec1: 49 39 38              cmp    QWORD PTR [r8],rdi
   10040dec4: 4c 3b 87 ff ff ff 7f  cmp    r8,QWORD PTR [rdi+0x7fffffff]
   10040decb: 49 39 b8 ff ff ff 7f  cmp    QWORD PTR [r8+0x7fffffff],rdi
   10040ded2: 4d 39 c0              cmp    r8,r8
   10040ded5: 4d 3b 00              cmp    r8,QWORD PTR [r8]
   10040ded8: 4d 39 00              cmp    QWORD PTR [r8],r8
   10040dedb: 4d 3b 80 ff ff ff 7f  cmp    r8,QWORD PTR [r8+0x7fffffff]
   10040dee2: 4d 39 80 ff ff ff 7f  cmp    QWORD PTR [r8+0x7fffffff],r8
   10040dee9: 4d 39 c8              cmp    r8,r9
   10040deec: 4d 3b 01              cmp    r8,QWORD PTR [r9]
   10040deef: 4d 39 08              cmp    QWORD PTR [r8],r9
   10040def2: 4d 3b 81 ff ff ff 7f  cmp    r8,QWORD PTR [r9+0x7fffffff]
   10040def9: 4d 39 88 ff ff ff 7f  cmp    QWORD PTR [r8+0x7fffffff],r9
   10040df00: 4d 39 d0              cmp    r8,r10
   10040df03: 4d 3b 02              cmp    r8,QWORD PTR [r10]
   10040df06: 4d 39 10              cmp    QWORD PTR [r8],r10
   10040df09: 4d 3b 82 ff ff ff 7f  cmp    r8,QWORD PTR [r10+0x7fffffff]
   10040df10: 4d 39 90 ff ff ff 7f  cmp    QWORD PTR [r8+0x7fffffff],r10
   10040df17: 4d 39 d8              cmp    r8,r11
   10040df1a: 4d 3b 03              cmp    r8,QWORD PTR [r11]
   10040df1d: 4d 39 18              cmp    QWORD PTR [r8],r11
   10040df20: 4d 3b 83 ff ff ff 7f  cmp    r8,QWORD PTR [r11+0x7fffffff]
   10040df27: 4d 39 98 ff ff ff 7f  cmp    QWORD PTR [r8+0x7fffffff],r11
   10040df2e: 4d 39 e0              cmp    r8,r12
   10040df31: 4d 3b 04 24           cmp    r8,QWORD PTR [r12]
   10040df35: 4d 39 20              cmp    QWORD PTR [r8],r12
   10040df38: 4d 3b 84 24 ff ff ff 7f   cmp    r8,QWORD PTR [r12+0x7fffffff]
   10040df40: 4d 39 a0 ff ff ff 7f  cmp    QWORD PTR [r8+0x7fffffff],r12
   10040df47: 4d 39 e8              cmp    r8,r13
   10040df4a: 4d 3b 45 00           cmp    r8,QWORD PTR [r13+0x0]
   10040df4e: 4d 39 28              cmp    QWORD PTR [r8],r13
   10040df51: 4d 3b 85 ff ff ff 7f  cmp    r8,QWORD PTR [r13+0x7fffffff]
   10040df58: 4d 39 a8 ff ff ff 7f  cmp    QWORD PTR [r8+0x7fffffff],r13
   10040df5f: 4d 39 f0              cmp    r8,r14
   10040df62: 4d 3b 06              cmp    r8,QWORD PTR [r14]
   10040df65: 4d 39 30              cmp    QWORD PTR [r8],r14
   10040df68: 4d 3b 86 ff ff ff 7f  cmp    r8,QWORD PTR [r14+0x7fffffff]
   10040df6f: 4d 39 b0 ff ff ff 7f  cmp    QWORD PTR [r8+0x7fffffff],r14
   10040df76: 4d 39 f8              cmp    r8,r15
   10040df79: 4d 3b 07              cmp    r8,QWORD PTR [r15]
   10040df7c: 4d 39 38              cmp    QWORD PTR [r8],r15
   10040df7f: 4d 3b 87 ff ff ff 7f  cmp    r8,QWORD PTR [r15+0x7fffffff]
   10040df86: 4d 39 b8 ff ff ff 7f  cmp    QWORD PTR [r8+0x7fffffff],r15
   10040df8d: 49 81 f9 ff ff ff 7f  cmp    r9,0x7fffffff
   10040df94: 49 39 c1              cmp    r9,rax
   10040df97: 4c 3b 08              cmp    r9,QWORD PTR [rax]
   10040df9a: 49 39 01              cmp    QWORD PTR [r9],rax
   10040df9d: 4c 3b 88 ff ff ff 7f  cmp    r9,QWORD PTR [rax+0x7fffffff]
   10040dfa4: 49 39 81 ff ff ff 7f  cmp    QWORD PTR [r9+0x7fffffff],rax
   10040dfab: 49 39 c9              cmp    r9,rcx
   10040dfae: 4c 3b 09              cmp    r9,QWORD PTR [rcx]
   10040dfb1: 49 39 09              cmp    QWORD PTR [r9],rcx
   10040dfb4: 4c 3b 89 ff ff ff 7f  cmp    r9,QWORD PTR [rcx+0x7fffffff]
   10040dfbb: 49 39 89 ff ff ff 7f  cmp    QWORD PTR [r9+0x7fffffff],rcx
   10040dfc2: 49 39 d1              cmp    r9,rdx
   10040dfc5: 4c 3b 0a              cmp    r9,QWORD PTR [rdx]
   10040dfc8: 49 39 11              cmp    QWORD PTR [r9],rdx
   10040dfcb: 4c 3b 8a ff ff ff 7f  cmp    r9,QWORD PTR [rdx+0x7fffffff]
   10040dfd2: 49 39 91 ff ff ff 7f  cmp    QWORD PTR [r9+0x7fffffff],rdx
   10040dfd9: 49 39 d9              cmp    r9,rbx
   10040dfdc: 4c 3b 0b              cmp    r9,QWORD PTR [rbx]
   10040dfdf: 49 39 19              cmp    QWORD PTR [r9],rbx
   10040dfe2: 4c 3b 8b ff ff ff 7f  cmp    r9,QWORD PTR [rbx+0x7fffffff]
   10040dfe9: 49 39 99 ff ff ff 7f  cmp    QWORD PTR [r9+0x7fffffff],rbx
   10040dff0: 49 39 e1              cmp    r9,rsp
   10040dff3: 4c 3b 0c 24           cmp    r9,QWORD PTR [rsp]
   10040dff7: 49 39 21              cmp    QWORD PTR [r9],rsp
   10040dffa: 4c 3b 8c 24 ff ff ff 7f   cmp    r9,QWORD PTR [rsp+0x7fffffff]
   10040e002: 49 39 a1 ff ff ff 7f  cmp    QWORD PTR [r9+0x7fffffff],rsp
   10040e009: 49 39 e9              cmp    r9,rbp
   10040e00c: 4c 3b 4d 00           cmp    r9,QWORD PTR [rbp+0x0]
   10040e010: 49 39 29              cmp    QWORD PTR [r9],rbp
   10040e013: 4c 3b 8d ff ff ff 7f  cmp    r9,QWORD PTR [rbp+0x7fffffff]
   10040e01a: 49 39 a9 ff ff ff 7f  cmp    QWORD PTR [r9+0x7fffffff],rbp
   10040e021: 49 39 f1              cmp    r9,rsi
   10040e024: 4c 3b 0e              cmp    r9,QWORD PTR [rsi]
   10040e027: 49 39 31              cmp    QWORD PTR [r9],rsi
   10040e02a: 4c 3b 8e ff ff ff 7f  cmp    r9,QWORD PTR [rsi+0x7fffffff]
   10040e031: 49 39 b1 ff ff ff 7f  cmp    QWORD PTR [r9+0x7fffffff],rsi
   10040e038: 49 39 f9              cmp    r9,rdi
   10040e03b: 4c 3b 0f              cmp    r9,QWORD PTR [rdi]
   10040e03e: 49 39 39              cmp    QWORD PTR [r9],rdi
   10040e041: 4c 3b 8f ff ff ff 7f  cmp    r9,QWORD PTR [rdi+0x7fffffff]
   10040e048: 49 39 b9 ff ff ff 7f  cmp    QWORD PTR [r9+0x7fffffff],rdi
   10040e04f: 4d 39 c1              cmp    r9,r8
   10040e052: 4d 3b 08              cmp    r9,QWORD PTR [r8]
   10040e055: 4d 39 01              cmp    QWORD PTR [r9],r8
   10040e058: 4d 3b 88 ff ff ff 7f  cmp    r9,QWORD PTR [r8+0x7fffffff]
   10040e05f: 4d 39 81 ff ff ff 7f  cmp    QWORD PTR [r9+0x7fffffff],r8
   10040e066: 4d 39 c9              cmp    r9,r9
   10040e069: 4d 3b 09              cmp    r9,QWORD PTR [r9]
   10040e06c: 4d 39 09              cmp    QWORD PTR [r9],r9
   10040e06f: 4d 3b 89 ff ff ff 7f  cmp    r9,QWORD PTR [r9+0x7fffffff]
   10040e076: 4d 39 89 ff ff ff 7f  cmp    QWORD PTR [r9+0x7fffffff],r9
   10040e07d: 4d 39 d1              cmp    r9,r10
   10040e080: 4d 3b 0a              cmp    r9,QWORD PTR [r10]
   10040e083: 4d 39 11              cmp    QWORD PTR [r9],r10
   10040e086: 4d 3b 8a ff ff ff 7f  cmp    r9,QWORD PTR [r10+0x7fffffff]
   10040e08d: 4d 39 91 ff ff ff 7f  cmp    QWORD PTR [r9+0x7fffffff],r10
   10040e094: 4d 39 d9              cmp    r9,r11
   10040e097: 4d 3b 0b              cmp    r9,QWORD PTR [r11]
   10040e09a: 4d 39 19              cmp    QWORD PTR [r9],r11
   10040e09d: 4d 3b 8b ff ff ff 7f  cmp    r9,QWORD PTR [r11+0x7fffffff]
   10040e0a4: 4d 39 99 ff ff ff 7f  cmp    QWORD PTR [r9+0x7fffffff],r11
   10040e0ab: 4d 39 e1              cmp    r9,r12
   10040e0ae: 4d 3b 0c 24           cmp    r9,QWORD PTR [r12]
   10040e0b2: 4d 39 21              cmp    QWORD PTR [r9],r12
   10040e0b5: 4d 3b 8c 24 ff ff ff 7f   cmp    r9,QWORD PTR [r12+0x7fffffff]
   10040e0bd: 4d 39 a1 ff ff ff 7f  cmp    QWORD PTR [r9+0x7fffffff],r12
   10040e0c4: 4d 39 e9              cmp    r9,r13
   10040e0c7: 4d 3b 4d 00           cmp    r9,QWORD PTR [r13+0x0]
   10040e0cb: 4d 39 29              cmp    QWORD PTR [r9],r13
   10040e0ce: 4d 3b 8d ff ff ff 7f  cmp    r9,QWORD PTR [r13+0x7fffffff]
   10040e0d5: 4d 39 a9 ff ff ff 7f  cmp    QWORD PTR [r9+0x7fffffff],r13
   10040e0dc: 4d 39 f1              cmp    r9,r14
   10040e0df: 4d 3b 0e              cmp    r9,QWORD PTR [r14]
   10040e0e2: 4d 39 31              cmp    QWORD PTR [r9],r14
   10040e0e5: 4d 3b 8e ff ff ff 7f  cmp    r9,QWORD PTR [r14+0x7fffffff]
   10040e0ec: 4d 39 b1 ff ff ff 7f  cmp    QWORD PTR [r9+0x7fffffff],r14
   10040e0f3: 4d 39 f9              cmp    r9,r15
   10040e0f6: 4d 3b 0f              cmp    r9,QWORD PTR [r15]
   10040e0f9: 4d 39 39              cmp    QWORD PTR [r9],r15
   10040e0fc: 4d 3b 8f ff ff ff 7f  cmp    r9,QWORD PTR [r15+0x7fffffff]
   10040e103: 4d 39 b9 ff ff ff 7f  cmp    QWORD PTR [r9+0x7fffffff],r15
   10040e10a: 49 81 fa ff ff ff 7f  cmp    r10,0x7fffffff
   10040e111: 49 39 c2              cmp    r10,rax
   10040e114: 4c 3b 10              cmp    r10,QWORD PTR [rax]
   10040e117: 49 39 02              cmp    QWORD PTR [r10],rax
   10040e11a: 4c 3b 90 ff ff ff 7f  cmp    r10,QWORD PTR [rax+0x7fffffff]
   10040e121: 49 39 82 ff ff ff 7f  cmp    QWORD PTR [r10+0x7fffffff],rax
   10040e128: 49 39 ca              cmp    r10,rcx
   10040e12b: 4c 3b 11              cmp    r10,QWORD PTR [rcx]
   10040e12e: 49 39 0a              cmp    QWORD PTR [r10],rcx
   10040e131: 4c 3b 91 ff ff ff 7f  cmp    r10,QWORD PTR [rcx+0x7fffffff]
   10040e138: 49 39 8a ff ff ff 7f  cmp    QWORD PTR [r10+0x7fffffff],rcx
   10040e13f: 49 39 d2              cmp    r10,rdx
   10040e142: 4c 3b 12              cmp    r10,QWORD PTR [rdx]
   10040e145: 49 39 12              cmp    QWORD PTR [r10],rdx
   10040e148: 4c 3b 92 ff ff ff 7f  cmp    r10,QWORD PTR [rdx+0x7fffffff]
   10040e14f: 49 39 92 ff ff ff 7f  cmp    QWORD PTR [r10+0x7fffffff],rdx
   10040e156: 49 39 da              cmp    r10,rbx
   10040e159: 4c 3b 13              cmp    r10,QWORD PTR [rbx]
   10040e15c: 49 39 1a              cmp    QWORD PTR [r10],rbx
   10040e15f: 4c 3b 93 ff ff ff 7f  cmp    r10,QWORD PTR [rbx+0x7fffffff]
   10040e166: 49 39 9a ff ff ff 7f  cmp    QWORD PTR [r10+0x7fffffff],rbx
   10040e16d: 49 39 e2              cmp    r10,rsp
   10040e170: 4c 3b 14 24           cmp    r10,QWORD PTR [rsp]
   10040e174: 49 39 22              cmp    QWORD PTR [r10],rsp
   10040e177: 4c 3b 94 24 ff ff ff 7f   cmp    r10,QWORD PTR [rsp+0x7fffffff]
   10040e17f: 49 39 a2 ff ff ff 7f  cmp    QWORD PTR [r10+0x7fffffff],rsp
   10040e186: 49 39 ea              cmp    r10,rbp
   10040e189: 4c 3b 55 00           cmp    r10,QWORD PTR [rbp+0x0]
   10040e18d: 49 39 2a              cmp    QWORD PTR [r10],rbp
   10040e190: 4c 3b 95 ff ff ff 7f  cmp    r10,QWORD PTR [rbp+0x7fffffff]
   10040e197: 49 39 aa ff ff ff 7f  cmp    QWORD PTR [r10+0x7fffffff],rbp
   10040e19e: 49 39 f2              cmp    r10,rsi
   10040e1a1: 4c 3b 16              cmp    r10,QWORD PTR [rsi]
   10040e1a4: 49 39 32              cmp    QWORD PTR [r10],rsi
   10040e1a7: 4c 3b 96 ff ff ff 7f  cmp    r10,QWORD PTR [rsi+0x7fffffff]
   10040e1ae: 49 39 b2 ff ff ff 7f  cmp    QWORD PTR [r10+0x7fffffff],rsi
   10040e1b5: 49 39 fa              cmp    r10,rdi
   10040e1b8: 4c 3b 17              cmp    r10,QWORD PTR [rdi]
   10040e1bb: 49 39 3a              cmp    QWORD PTR [r10],rdi
   10040e1be: 4c 3b 97 ff ff ff 7f  cmp    r10,QWORD PTR [rdi+0x7fffffff]
   10040e1c5: 49 39 ba ff ff ff 7f  cmp    QWORD PTR [r10+0x7fffffff],rdi
   10040e1cc: 4d 39 c2              cmp    r10,r8
   10040e1cf: 4d 3b 10              cmp    r10,QWORD PTR [r8]
   10040e1d2: 4d 39 02              cmp    QWORD PTR [r10],r8
   10040e1d5: 4d 3b 90 ff ff ff 7f  cmp    r10,QWORD PTR [r8+0x7fffffff]
   10040e1dc: 4d 39 82 ff ff ff 7f  cmp    QWORD PTR [r10+0x7fffffff],r8
   10040e1e3: 4d 39 ca              cmp    r10,r9
   10040e1e6: 4d 3b 11              cmp    r10,QWORD PTR [r9]
   10040e1e9: 4d 39 0a              cmp    QWORD PTR [r10],r9
   10040e1ec: 4d 3b 91 ff ff ff 7f  cmp    r10,QWORD PTR [r9+0x7fffffff]
   10040e1f3: 4d 39 8a ff ff ff 7f  cmp    QWORD PTR [r10+0x7fffffff],r9
   10040e1fa: 4d 39 d2              cmp    r10,r10
   10040e1fd: 4d 3b 12              cmp    r10,QWORD PTR [r10]
   10040e200: 4d 39 12              cmp    QWORD PTR [r10],r10
   10040e203: 4d 3b 92 ff ff ff 7f  cmp    r10,QWORD PTR [r10+0x7fffffff]
   10040e20a: 4d 39 92 ff ff ff 7f  cmp    QWORD PTR [r10+0x7fffffff],r10
   10040e211: 4d 39 da              cmp    r10,r11
   10040e214: 4d 3b 13              cmp    r10,QWORD PTR [r11]
   10040e217: 4d 39 1a              cmp    QWORD PTR [r10],r11
   10040e21a: 4d 3b 93 ff ff ff 7f  cmp    r10,QWORD PTR [r11+0x7fffffff]
   10040e221: 4d 39 9a ff ff ff 7f  cmp    QWORD PTR [r10+0x7fffffff],r11
   10040e228: 4d 39 e2              cmp    r10,r12
   10040e22b: 4d 3b 14 24           cmp    r10,QWORD PTR [r12]
   10040e22f: 4d 39 22              cmp    QWORD PTR [r10],r12
   10040e232: 4d 3b 94 24 ff ff ff 7f   cmp    r10,QWORD PTR [r12+0x7fffffff]
   10040e23a: 4d 39 a2 ff ff ff 7f  cmp    QWORD PTR [r10+0x7fffffff],r12
   10040e241: 4d 39 ea              cmp    r10,r13
   10040e244: 4d 3b 55 00           cmp    r10,QWORD PTR [r13+0x0]
   10040e248: 4d 39 2a              cmp    QWORD PTR [r10],r13
   10040e24b: 4d 3b 95 ff ff ff 7f  cmp    r10,QWORD PTR [r13+0x7fffffff]
   10040e252: 4d 39 aa ff ff ff 7f  cmp    QWORD PTR [r10+0x7fffffff],r13
   10040e259: 4d 39 f2              cmp    r10,r14
   10040e25c: 4d 3b 16              cmp    r10,QWORD PTR [r14]
   10040e25f: 4d 39 32              cmp    QWORD PTR [r10],r14
   10040e262: 4d 3b 96 ff ff ff 7f  cmp    r10,QWORD PTR [r14+0x7fffffff]
   10040e269: 4d 39 b2 ff ff ff 7f  cmp    QWORD PTR [r10+0x7fffffff],r14
   10040e270: 4d 39 fa              cmp    r10,r15
   10040e273: 4d 3b 17              cmp    r10,QWORD PTR [r15]
   10040e276: 4d 39 3a              cmp    QWORD PTR [r10],r15
   10040e279: 4d 3b 97 ff ff ff 7f  cmp    r10,QWORD PTR [r15+0x7fffffff]
   10040e280: 4d 39 ba ff ff ff 7f  cmp    QWORD PTR [r10+0x7fffffff],r15
   10040e287: 49 81 fb ff ff ff 7f  cmp    r11,0x7fffffff
   10040e28e: 49 39 c3              cmp    r11,rax
   10040e291: 4c 3b 18              cmp    r11,QWORD PTR [rax]
   10040e294: 49 39 03              cmp    QWORD PTR [r11],rax
   10040e297: 4c 3b 98 ff ff ff 7f  cmp    r11,QWORD PTR [rax+0x7fffffff]
   10040e29e: 49 39 83 ff ff ff 7f  cmp    QWORD PTR [r11+0x7fffffff],rax
   10040e2a5: 49 39 cb              cmp    r11,rcx
   10040e2a8: 4c 3b 19              cmp    r11,QWORD PTR [rcx]
   10040e2ab: 49 39 0b              cmp    QWORD PTR [r11],rcx
   10040e2ae: 4c 3b 99 ff ff ff 7f  cmp    r11,QWORD PTR [rcx+0x7fffffff]
   10040e2b5: 49 39 8b ff ff ff 7f  cmp    QWORD PTR [r11+0x7fffffff],rcx
   10040e2bc: 49 39 d3              cmp    r11,rdx
   10040e2bf: 4c 3b 1a              cmp    r11,QWORD PTR [rdx]
   10040e2c2: 49 39 13              cmp    QWORD PTR [r11],rdx
   10040e2c5: 4c 3b 9a ff ff ff 7f  cmp    r11,QWORD PTR [rdx+0x7fffffff]
   10040e2cc: 49 39 93 ff ff ff 7f  cmp    QWORD PTR [r11+0x7fffffff],rdx
   10040e2d3: 49 39 db              cmp    r11,rbx
   10040e2d6: 4c 3b 1b              cmp    r11,QWORD PTR [rbx]
   10040e2d9: 49 39 1b              cmp    QWORD PTR [r11],rbx
   10040e2dc: 4c 3b 9b ff ff ff 7f  cmp    r11,QWORD PTR [rbx+0x7fffffff]
   10040e2e3: 49 39 9b ff ff ff 7f  cmp    QWORD PTR [r11+0x7fffffff],rbx
   10040e2ea: 49 39 e3              cmp    r11,rsp
   10040e2ed: 4c 3b 1c 24           cmp    r11,QWORD PTR [rsp]
   10040e2f1: 49 39 23              cmp    QWORD PTR [r11],rsp
   10040e2f4: 4c 3b 9c 24 ff ff ff 7f   cmp    r11,QWORD PTR [rsp+0x7fffffff]
   10040e2fc: 49 39 a3 ff ff ff 7f  cmp    QWORD PTR [r11+0x7fffffff],rsp
   10040e303: 49 39 eb              cmp    r11,rbp
   10040e306: 4c 3b 5d 00           cmp    r11,QWORD PTR [rbp+0x0]
   10040e30a: 49 39 2b              cmp    QWORD PTR [r11],rbp
   10040e30d: 4c 3b 9d ff ff ff 7f  cmp    r11,QWORD PTR [rbp+0x7fffffff]
   10040e314: 49 39 ab ff ff ff 7f  cmp    QWORD PTR [r11+0x7fffffff],rbp
   10040e31b: 49 39 f3              cmp    r11,rsi
   10040e31e: 4c 3b 1e              cmp    r11,QWORD PTR [rsi]
   10040e321: 49 39 33              cmp    QWORD PTR [r11],rsi
   10040e324: 4c 3b 9e ff ff ff 7f  cmp    r11,QWORD PTR [rsi+0x7fffffff]
   10040e32b: 49 39 b3 ff ff ff 7f  cmp    QWORD PTR [r11+0x7fffffff],rsi
   10040e332: 49 39 fb              cmp    r11,rdi
   10040e335: 4c 3b 1f              cmp    r11,QWORD PTR [rdi]
   10040e338: 49 39 3b              cmp    QWORD PTR [r11],rdi
   10040e33b: 4c 3b 9f ff ff ff 7f  cmp    r11,QWORD PTR [rdi+0x7fffffff]
   10040e342: 49 39 bb ff ff ff 7f  cmp    QWORD PTR [r11+0x7fffffff],rdi
   10040e349: 4d 39 c3              cmp    r11,r8
   10040e34c: 4d 3b 18              cmp    r11,QWORD PTR [r8]
   10040e34f: 4d 39 03              cmp    QWORD PTR [r11],r8
   10040e352: 4d 3b 98 ff ff ff 7f  cmp    r11,QWORD PTR [r8+0x7fffffff]
   10040e359: 4d 39 83 ff ff ff 7f  cmp    QWORD PTR [r11+0x7fffffff],r8
   10040e360: 4d 39 cb              cmp    r11,r9
   10040e363: 4d 3b 19              cmp    r11,QWORD PTR [r9]
   10040e366: 4d 39 0b              cmp    QWORD PTR [r11],r9
   10040e369: 4d 3b 99 ff ff ff 7f  cmp    r11,QWORD PTR [r9+0x7fffffff]
   10040e370: 4d 39 8b ff ff ff 7f  cmp    QWORD PTR [r11+0x7fffffff],r9
   10040e377: 4d 39 d3              cmp    r11,r10
   10040e37a: 4d 3b 1a              cmp    r11,QWORD PTR [r10]
   10040e37d: 4d 39 13              cmp    QWORD PTR [r11],r10
   10040e380: 4d 3b 9a ff ff ff 7f  cmp    r11,QWORD PTR [r10+0x7fffffff]
   10040e387: 4d 39 93 ff ff ff 7f  cmp    QWORD PTR [r11+0x7fffffff],r10
   10040e38e: 4d 39 db              cmp    r11,r11
   10040e391: 4d 3b 1b              cmp    r11,QWORD PTR [r11]
   10040e394: 4d 39 1b              cmp    QWORD PTR [r11],r11
   10040e397: 4d 3b 9b ff ff ff 7f  cmp    r11,QWORD PTR [r11+0x7fffffff]
   10040e39e: 4d 39 9b ff ff ff 7f  cmp    QWORD PTR [r11+0x7fffffff],r11
   10040e3a5: 4d 39 e3              cmp    r11,r12
   10040e3a8: 4d 3b 1c 24           cmp    r11,QWORD PTR [r12]
   10040e3ac: 4d 39 23              cmp    QWORD PTR [r11],r12
   10040e3af: 4d 3b 9c 24 ff ff ff 7f   cmp    r11,QWORD PTR [r12+0x7fffffff]
   10040e3b7: 4d 39 a3 ff ff ff 7f  cmp    QWORD PTR [r11+0x7fffffff],r12
   10040e3be: 4d 39 eb              cmp    r11,r13
   10040e3c1: 4d 3b 5d 00           cmp    r11,QWORD PTR [r13+0x0]
   10040e3c5: 4d 39 2b              cmp    QWORD PTR [r11],r13
   10040e3c8: 4d 3b 9d ff ff ff 7f  cmp    r11,QWORD PTR [r13+0x7fffffff]
   10040e3cf: 4d 39 ab ff ff ff 7f  cmp    QWORD PTR [r11+0x7fffffff],r13
   10040e3d6: 4d 39 f3              cmp    r11,r14
   10040e3d9: 4d 3b 1e              cmp    r11,QWORD PTR [r14]
   10040e3dc: 4d 39 33              cmp    QWORD PTR [r11],r14
   10040e3df: 4d 3b 9e ff ff ff 7f  cmp    r11,QWORD PTR [r14+0x7fffffff]
   10040e3e6: 4d 39 b3 ff ff ff 7f  cmp    QWORD PTR [r11+0x7fffffff],r14
   10040e3ed: 4d 39 fb              cmp    r11,r15
   10040e3f0: 4d 3b 1f              cmp    r11,QWORD PTR [r15]
   10040e3f3: 4d 39 3b              cmp    QWORD PTR [r11],r15
   10040e3f6: 4d 3b 9f ff ff ff 7f  cmp    r11,QWORD PTR [r15+0x7fffffff]
   10040e3fd: 4d 39 bb ff ff ff 7f  cmp    QWORD PTR [r11+0x7fffffff],r15
   10040e404: 49 81 fc ff ff ff 7f  cmp    r12,0x7fffffff
   10040e40b: 49 39 c4              cmp    r12,rax
   10040e40e: 4c 3b 20              cmp    r12,QWORD PTR [rax]
   10040e411: 49 39 04 24           cmp    QWORD PTR [r12],rax
   10040e415: 4c 3b a0 ff ff ff 7f  cmp    r12,QWORD PTR [rax+0x7fffffff]
   10040e41c: 49 39 84 24 ff ff ff 7f   cmp    QWORD PTR [r12+0x7fffffff],rax
   10040e424: 49 39 cc              cmp    r12,rcx
   10040e427: 4c 3b 21              cmp    r12,QWORD PTR [rcx]
   10040e42a: 49 39 0c 24           cmp    QWORD PTR [r12],rcx
   10040e42e: 4c 3b a1 ff ff ff 7f  cmp    r12,QWORD PTR [rcx+0x7fffffff]
   10040e435: 49 39 8c 24 ff ff ff 7f   cmp    QWORD PTR [r12+0x7fffffff],rcx
   10040e43d: 49 39 d4              cmp    r12,rdx
   10040e440: 4c 3b 22              cmp    r12,QWORD PTR [rdx]
   10040e443: 49 39 14 24           cmp    QWORD PTR [r12],rdx
   10040e447: 4c 3b a2 ff ff ff 7f  cmp    r12,QWORD PTR [rdx+0x7fffffff]
   10040e44e: 49 39 94 24 ff ff ff 7f   cmp    QWORD PTR [r12+0x7fffffff],rdx
   10040e456: 49 39 dc              cmp    r12,rbx
   10040e459: 4c 3b 23              cmp    r12,QWORD PTR [rbx]
   10040e45c: 49 39 1c 24           cmp    QWORD PTR [r12],rbx
   10040e460: 4c 3b a3 ff ff ff 7f  cmp    r12,QWORD PTR [rbx+0x7fffffff]
   10040e467: 49 39 9c 24 ff ff ff 7f   cmp    QWORD PTR [r12+0x7fffffff],rbx
   10040e46f: 49 39 e4              cmp    r12,rsp
   10040e472: 4c 3b 24 24           cmp    r12,QWORD PTR [rsp]
   10040e476: 49 39 24 24           cmp    QWORD PTR [r12],rsp
   10040e47a: 4c 3b a4 24 ff ff ff 7f   cmp    r12,QWORD PTR [rsp+0x7fffffff]
   10040e482: 49 39 a4 24 ff ff ff 7f   cmp    QWORD PTR [r12+0x7fffffff],rsp
   10040e48a: 49 39 ec              cmp    r12,rbp
   10040e48d: 4c 3b 65 00           cmp    r12,QWORD PTR [rbp+0x0]
   10040e491: 49 39 2c 24           cmp    QWORD PTR [r12],rbp
   10040e495: 4c 3b a5 ff ff ff 7f  cmp    r12,QWORD PTR [rbp+0x7fffffff]
   10040e49c: 49 39 ac 24 ff ff ff 7f   cmp    QWORD PTR [r12+0x7fffffff],rbp
   10040e4a4: 49 39 f4              cmp    r12,rsi
   10040e4a7: 4c 3b 26              cmp    r12,QWORD PTR [rsi]
   10040e4aa: 49 39 34 24           cmp    QWORD PTR [r12],rsi
   10040e4ae: 4c 3b a6 ff ff ff 7f  cmp    r12,QWORD PTR [rsi+0x7fffffff]
   10040e4b5: 49 39 b4 24 ff ff ff 7f   cmp    QWORD PTR [r12+0x7fffffff],rsi
   10040e4bd: 49 39 fc              cmp    r12,rdi
   10040e4c0: 4c 3b 27              cmp    r12,QWORD PTR [rdi]
   10040e4c3: 49 39 3c 24           cmp    QWORD PTR [r12],rdi
   10040e4c7: 4c 3b a7 ff ff ff 7f  cmp    r12,QWORD PTR [rdi+0x7fffffff]
   10040e4ce: 49 39 bc 24 ff ff ff 7f   cmp    QWORD PTR [r12+0x7fffffff],rdi
   10040e4d6: 4d 39 c4              cmp    r12,r8
   10040e4d9: 4d 3b 20              cmp    r12,QWORD PTR [r8]
   10040e4dc: 4d 39 04 24           cmp    QWORD PTR [r12],r8
   10040e4e0: 4d 3b a0 ff ff ff 7f  cmp    r12,QWORD PTR [r8+0x7fffffff]
   10040e4e7: 4d 39 84 24 ff ff ff 7f   cmp    QWORD PTR [r12+0x7fffffff],r8
   10040e4ef: 4d 39 cc              cmp    r12,r9
   10040e4f2: 4d 3b 21              cmp    r12,QWORD PTR [r9]
   10040e4f5: 4d 39 0c 24           cmp    QWORD PTR [r12],r9
   10040e4f9: 4d 3b a1 ff ff ff 7f  cmp    r12,QWORD PTR [r9+0x7fffffff]
   10040e500: 4d 39 8c 24 ff ff ff 7f   cmp    QWORD PTR [r12+0x7fffffff],r9
   10040e508: 4d 39 d4              cmp    r12,r10
   10040e50b: 4d 3b 22              cmp    r12,QWORD PTR [r10]
   10040e50e: 4d 39 14 24           cmp    QWORD PTR [r12],r10
   10040e512: 4d 3b a2 ff ff ff 7f  cmp    r12,QWORD PTR [r10+0x7fffffff]
   10040e519: 4d 39 94 24 ff ff ff 7f   cmp    QWORD PTR [r12+0x7fffffff],r10
   10040e521: 4d 39 dc              cmp    r12,r11
   10040e524: 4d 3b 23              cmp    r12,QWORD PTR [r11]
   10040e527: 4d 39 1c 24           cmp    QWORD PTR [r12],r11
   10040e52b: 4d 3b a3 ff ff ff 7f  cmp    r12,QWORD PTR [r11+0x7fffffff]
   10040e532: 4d 39 9c 24 ff ff ff 7f   cmp    QWORD PTR [r12+0x7fffffff],r11
   10040e53a: 4d 39 e4              cmp    r12,r12
   10040e53d: 4d 3b 24 24           cmp    r12,QWORD PTR [r12]
   10040e541: 4d 39 24 24           cmp    QWORD PTR [r12],r12
   10040e545: 4d 3b a4 24 ff ff ff 7f   cmp    r12,QWORD PTR [r12+0x7fffffff]
   10040e54d: 4d 39 a4 24 ff ff ff 7f   cmp    QWORD PTR [r12+0x7fffffff],r12
   10040e555: 4d 39 ec              cmp    r12,r13
   10040e558: 4d 3b 65 00           cmp    r12,QWORD PTR [r13+0x0]
   10040e55c: 4d 39 2c 24           cmp    QWORD PTR [r12],r13
   10040e560: 4d 3b a5 ff ff ff 7f  cmp    r12,QWORD PTR [r13+0x7fffffff]
   10040e567: 4d 39 ac 24 ff ff ff 7f   cmp    QWORD PTR [r12+0x7fffffff],r13
   10040e56f: 4d 39 f4              cmp    r12,r14
   10040e572: 4d 3b 26              cmp    r12,QWORD PTR [r14]
   10040e575: 4d 39 34 24           cmp    QWORD PTR [r12],r14
   10040e579: 4d 3b a6 ff ff ff 7f  cmp    r12,QWORD PTR [r14+0x7fffffff]
   10040e580: 4d 39 b4 24 ff ff ff 7f   cmp    QWORD PTR [r12+0x7fffffff],r14
   10040e588: 4d 39 fc              cmp    r12,r15
   10040e58b: 4d 3b 27              cmp    r12,QWORD PTR [r15]
   10040e58e: 4d 39 3c 24           cmp    QWORD PTR [r12],r15
   10040e592: 4d 3b a7 ff ff ff 7f  cmp    r12,QWORD PTR [r15+0x7fffffff]
   10040e599: 4d 39 bc 24 ff ff ff 7f   cmp    QWORD PTR [r12+0x7fffffff],r15
   10040e5a1: 49 81 fd ff ff ff 7f  cmp    r13,0x7fffffff
   10040e5a8: 49 39 c5              cmp    r13,rax
   10040e5ab: 4c 3b 28              cmp    r13,QWORD PTR [rax]
   10040e5ae: 49 39 45 00           cmp    QWORD PTR [r13+0x0],rax
   10040e5b2: 4c 3b a8 ff ff ff 7f  cmp    r13,QWORD PTR [rax+0x7fffffff]
   10040e5b9: 49 39 85 ff ff ff 7f  cmp    QWORD PTR [r13+0x7fffffff],rax
   10040e5c0: 49 39 cd              cmp    r13,rcx
   10040e5c3: 4c 3b 29              cmp    r13,QWORD PTR [rcx]
   10040e5c6: 49 39 4d 00           cmp    QWORD PTR [r13+0x0],rcx
   10040e5ca: 4c 3b a9 ff ff ff 7f  cmp    r13,QWORD PTR [rcx+0x7fffffff]
   10040e5d1: 49 39 8d ff ff ff 7f  cmp    QWORD PTR [r13+0x7fffffff],rcx
   10040e5d8: 49 39 d5              cmp    r13,rdx
   10040e5db: 4c 3b 2a              cmp    r13,QWORD PTR [rdx]
   10040e5de: 49 39 55 00           cmp    QWORD PTR [r13+0x0],rdx
   10040e5e2: 4c 3b aa ff ff ff 7f  cmp    r13,QWORD PTR [rdx+0x7fffffff]
   10040e5e9: 49 39 95 ff ff ff 7f  cmp    QWORD PTR [r13+0x7fffffff],rdx
   10040e5f0: 49 39 dd              cmp    r13,rbx
   10040e5f3: 4c 3b 2b              cmp    r13,QWORD PTR [rbx]
   10040e5f6: 49 39 5d 00           cmp    QWORD PTR [r13+0x0],rbx
   10040e5fa: 4c 3b ab ff ff ff 7f  cmp    r13,QWORD PTR [rbx+0x7fffffff]
   10040e601: 49 39 9d ff ff ff 7f  cmp    QWORD PTR [r13+0x7fffffff],rbx
   10040e608: 49 39 e5              cmp    r13,rsp
   10040e60b: 4c 3b 2c 24           cmp    r13,QWORD PTR [rsp]
   10040e60f: 49 39 65 00           cmp    QWORD PTR [r13+0x0],rsp
   10040e613: 4c 3b ac 24 ff ff ff 7f   cmp    r13,QWORD PTR [rsp+0x7fffffff]
   10040e61b: 49 39 a5 ff ff ff 7f  cmp    QWORD PTR [r13+0x7fffffff],rsp
   10040e622: 49 39 ed              cmp    r13,rbp
   10040e625: 4c 3b 6d 00           cmp    r13,QWORD PTR [rbp+0x0]
   10040e629: 49 39 6d 00           cmp    QWORD PTR [r13+0x0],rbp
   10040e62d: 4c 3b ad ff ff ff 7f  cmp    r13,QWORD PTR [rbp+0x7fffffff]
   10040e634: 49 39 ad ff ff ff 7f  cmp    QWORD PTR [r13+0x7fffffff],rbp
   10040e63b: 49 39 f5              cmp    r13,rsi
   10040e63e: 4c 3b 2e              cmp    r13,QWORD PTR [rsi]
   10040e641: 49 39 75 00           cmp    QWORD PTR [r13+0x0],rsi
   10040e645: 4c 3b ae ff ff ff 7f  cmp    r13,QWORD PTR [rsi+0x7fffffff]
   10040e64c: 49 39 b5 ff ff ff 7f  cmp    QWORD PTR [r13+0x7fffffff],rsi
   10040e653: 49 39 fd              cmp    r13,rdi
   10040e656: 4c 3b 2f              cmp    r13,QWORD PTR [rdi]
   10040e659: 49 39 7d 00           cmp    QWORD PTR [r13+0x0],rdi
   10040e65d: 4c 3b af ff ff ff 7f  cmp    r13,QWORD PTR [rdi+0x7fffffff]
   10040e664: 49 39 bd ff ff ff 7f  cmp    QWORD PTR [r13+0x7fffffff],rdi
   10040e66b: 4d 39 c5              cmp    r13,r8
   10040e66e: 4d 3b 28              cmp    r13,QWORD PTR [r8]
   10040e671: 4d 39 45 00           cmp    QWORD PTR [r13+0x0],r8
   10040e675: 4d 3b a8 ff ff ff 7f  cmp    r13,QWORD PTR [r8+0x7fffffff]
   10040e67c: 4d 39 85 ff ff ff 7f  cmp    QWORD PTR [r13+0x7fffffff],r8
   10040e683: 4d 39 cd              cmp    r13,r9
   10040e686: 4d 3b 29              cmp    r13,QWORD PTR [r9]
   10040e689: 4d 39 4d 00           cmp    QWORD PTR [r13+0x0],r9
   10040e68d: 4d 3b a9 ff ff ff 7f  cmp    r13,QWORD PTR [r9+0x7fffffff]
   10040e694: 4d 39 8d ff ff ff 7f  cmp    QWORD PTR [r13+0x7fffffff],r9
   10040e69b: 4d 39 d5              cmp    r13,r10
   10040e69e: 4d 3b 2a              cmp    r13,QWORD PTR [r10]
   10040e6a1: 4d 39 55 00           cmp    QWORD PTR [r13+0x0],r10
   10040e6a5: 4d 3b aa ff ff ff 7f  cmp    r13,QWORD PTR [r10+0x7fffffff]
   10040e6ac: 4d 39 95 ff ff ff 7f  cmp    QWORD PTR [r13+0x7fffffff],r10
   10040e6b3: 4d 39 dd              cmp    r13,r11
   10040e6b6: 4d 3b 2b              cmp    r13,QWORD PTR [r11]
   10040e6b9: 4d 39 5d 00           cmp    QWORD PTR [r13+0x0],r11
   10040e6bd: 4d 3b ab ff ff ff 7f  cmp    r13,QWORD PTR [r11+0x7fffffff]
   10040e6c4: 4d 39 9d ff ff ff 7f  cmp    QWORD PTR [r13+0x7fffffff],r11
   10040e6cb: 4d 39 e5              cmp    r13,r12
   10040e6ce: 4d 3b 2c 24           cmp    r13,QWORD PTR [r12]
   10040e6d2: 4d 39 65 00           cmp    QWORD PTR [r13+0x0],r12
   10040e6d6: 4d 3b ac 24 ff ff ff 7f   cmp    r13,QWORD PTR [r12+0x7fffffff]
   10040e6de: 4d 39 a5 ff ff ff 7f  cmp    QWORD PTR [r13+0x7fffffff],r12
   10040e6e5: 4d 39 ed              cmp    r13,r13
   10040e6e8: 4d 3b 6d 00           cmp    r13,QWORD PTR [r13+0x0]
   10040e6ec: 4d 39 6d 00           cmp    QWORD PTR [r13+0x0],r13
   10040e6f0: 4d 3b ad ff ff ff 7f  cmp    r13,QWORD PTR [r13+0x7fffffff]
   10040e6f7: 4d 39 ad ff ff ff 7f  cmp    QWORD PTR [r13+0x7fffffff],r13
   10040e6fe: 4d 39 f5              cmp    r13,r14
   10040e701: 4d 3b 2e              cmp    r13,QWORD PTR [r14]
   10040e704: 4d 39 75 00           cmp    QWORD PTR [r13+0x0],r14
   10040e708: 4d 3b ae ff ff ff 7f  cmp    r13,QWORD PTR [r14+0x7fffffff]
   10040e70f: 4d 39 b5 ff ff ff 7f  cmp    QWORD PTR [r13+0x7fffffff],r14
   10040e716: 4d 39 fd              cmp    r13,r15
   10040e719: 4d 3b 2f              cmp    r13,QWORD PTR [r15]
   10040e71c: 4d 39 7d 00           cmp    QWORD PTR [r13+0x0],r15
   10040e720: 4d 3b af ff ff ff 7f  cmp    r13,QWORD PTR [r15+0x7fffffff]
   10040e727: 4d 39 bd ff ff ff 7f  cmp    QWORD PTR [r13+0x7fffffff],r15
   10040e72e: 49 81 fe ff ff ff 7f  cmp    r14,0x7fffffff
   10040e735: 49 39 c6              cmp    r14,rax
   10040e738: 4c 3b 30              cmp    r14,QWORD PTR [rax]
   10040e73b: 49 39 06              cmp    QWORD PTR [r14],rax
   10040e73e: 4c 3b b0 ff ff ff 7f  cmp    r14,QWORD PTR [rax+0x7fffffff]
   10040e745: 49 39 86 ff ff ff 7f  cmp    QWORD PTR [r14+0x7fffffff],rax
   10040e74c: 49 39 ce              cmp    r14,rcx
   10040e74f: 4c 3b 31              cmp    r14,QWORD PTR [rcx]
   10040e752: 49 39 0e              cmp    QWORD PTR [r14],rcx
   10040e755: 4c 3b b1 ff ff ff 7f  cmp    r14,QWORD PTR [rcx+0x7fffffff]
   10040e75c: 49 39 8e ff ff ff 7f  cmp    QWORD PTR [r14+0x7fffffff],rcx
   10040e763: 49 39 d6              cmp    r14,rdx
   10040e766: 4c 3b 32              cmp    r14,QWORD PTR [rdx]
   10040e769: 49 39 16              cmp    QWORD PTR [r14],rdx
   10040e76c: 4c 3b b2 ff ff ff 7f  cmp    r14,QWORD PTR [rdx+0x7fffffff]
   10040e773: 49 39 96 ff ff ff 7f  cmp    QWORD PTR [r14+0x7fffffff],rdx
   10040e77a: 49 39 de              cmp    r14,rbx
   10040e77d: 4c 3b 33              cmp    r14,QWORD PTR [rbx]
   10040e780: 49 39 1e              cmp    QWORD PTR [r14],rbx
   10040e783: 4c 3b b3 ff ff ff 7f  cmp    r14,QWORD PTR [rbx+0x7fffffff]
   10040e78a: 49 39 9e ff ff ff 7f  cmp    QWORD PTR [r14+0x7fffffff],rbx
   10040e791: 49 39 e6              cmp    r14,rsp
   10040e794: 4c 3b 34 24           cmp    r14,QWORD PTR [rsp]
   10040e798: 49 39 26              cmp    QWORD PTR [r14],rsp
   10040e79b: 4c 3b b4 24 ff ff ff 7f   cmp    r14,QWORD PTR [rsp+0x7fffffff]
   10040e7a3: 49 39 a6 ff ff ff 7f  cmp    QWORD PTR [r14+0x7fffffff],rsp
   10040e7aa: 49 39 ee              cmp    r14,rbp
   10040e7ad: 4c 3b 75 00           cmp    r14,QWORD PTR [rbp+0x0]
   10040e7b1: 49 39 2e              cmp    QWORD PTR [r14],rbp
   10040e7b4: 4c 3b b5 ff ff ff 7f  cmp    r14,QWORD PTR [rbp+0x7fffffff]
   10040e7bb: 49 39 ae ff ff ff 7f  cmp    QWORD PTR [r14+0x7fffffff],rbp
   10040e7c2: 49 39 f6              cmp    r14,rsi
   10040e7c5: 4c 3b 36              cmp    r14,QWORD PTR [rsi]
   10040e7c8: 49 39 36              cmp    QWORD PTR [r14],rsi
   10040e7cb: 4c 3b b6 ff ff ff 7f  cmp    r14,QWORD PTR [rsi+0x7fffffff]
   10040e7d2: 49 39 b6 ff ff ff 7f  cmp    QWORD PTR [r14+0x7fffffff],rsi
   10040e7d9: 49 39 fe              cmp    r14,rdi
   10040e7dc: 4c 3b 37              cmp    r14,QWORD PTR [rdi]
   10040e7df: 49 39 3e              cmp    QWORD PTR [r14],rdi
   10040e7e2: 4c 3b b7 ff ff ff 7f  cmp    r14,QWORD PTR [rdi+0x7fffffff]
   10040e7e9: 49 39 be ff ff ff 7f  cmp    QWORD PTR [r14+0x7fffffff],rdi
   10040e7f0: 4d 39 c6              cmp    r14,r8
   10040e7f3: 4d 3b 30              cmp    r14,QWORD PTR [r8]
   10040e7f6: 4d 39 06              cmp    QWORD PTR [r14],r8
   10040e7f9: 4d 3b b0 ff ff ff 7f  cmp    r14,QWORD PTR [r8+0x7fffffff]
   10040e800: 4d 39 86 ff ff ff 7f  cmp    QWORD PTR [r14+0x7fffffff],r8
   10040e807: 4d 39 ce              cmp    r14,r9
   10040e80a: 4d 3b 31              cmp    r14,QWORD PTR [r9]
   10040e80d: 4d 39 0e              cmp    QWORD PTR [r14],r9
   10040e810: 4d 3b b1 ff ff ff 7f  cmp    r14,QWORD PTR [r9+0x7fffffff]
   10040e817: 4d 39 8e ff ff ff 7f  cmp    QWORD PTR [r14+0x7fffffff],r9
   10040e81e: 4d 39 d6              cmp    r14,r10
   10040e821: 4d 3b 32              cmp    r14,QWORD PTR [r10]
   10040e824: 4d 39 16              cmp    QWORD PTR [r14],r10
   10040e827: 4d 3b b2 ff ff ff 7f  cmp    r14,QWORD PTR [r10+0x7fffffff]
   10040e82e: 4d 39 96 ff ff ff 7f  cmp    QWORD PTR [r14+0x7fffffff],r10
   10040e835: 4d 39 de              cmp    r14,r11
   10040e838: 4d 3b 33              cmp    r14,QWORD PTR [r11]
   10040e83b: 4d 39 1e              cmp    QWORD PTR [r14],r11
   10040e83e: 4d 3b b3 ff ff ff 7f  cmp    r14,QWORD PTR [r11+0x7fffffff]
   10040e845: 4d 39 9e ff ff ff 7f  cmp    QWORD PTR [r14+0x7fffffff],r11
   10040e84c: 4d 39 e6              cmp    r14,r12
   10040e84f: 4d 3b 34 24           cmp    r14,QWORD PTR [r12]
   10040e853: 4d 39 26              cmp    QWORD PTR [r14],r12
   10040e856: 4d 3b b4 24 ff ff ff 7f   cmp    r14,QWORD PTR [r12+0x7fffffff]
   10040e85e: 4d 39 a6 ff ff ff 7f  cmp    QWORD PTR [r14+0x7fffffff],r12
   10040e865: 4d 39 ee              cmp    r14,r13
   10040e868: 4d 3b 75 00           cmp    r14,QWORD PTR [r13+0x0]
   10040e86c: 4d 39 2e              cmp    QWORD PTR [r14],r13
   10040e86f: 4d 3b b5 ff ff ff 7f  cmp    r14,QWORD PTR [r13+0x7fffffff]
   10040e876: 4d 39 ae ff ff ff 7f  cmp    QWORD PTR [r14+0x7fffffff],r13
   10040e87d: 4d 39 f6              cmp    r14,r14
   10040e880: 4d 3b 36              cmp    r14,QWORD PTR [r14]
   10040e883: 4d 39 36              cmp    QWORD PTR [r14],r14
   10040e886: 4d 3b b6 ff ff ff 7f  cmp    r14,QWORD PTR [r14+0x7fffffff]
   10040e88d: 4d 39 b6 ff ff ff 7f  cmp    QWORD PTR [r14+0x7fffffff],r14
   10040e894: 4d 39 fe              cmp    r14,r15
   10040e897: 4d 3b 37              cmp    r14,QWORD PTR [r15]
   10040e89a: 4d 39 3e              cmp    QWORD PTR [r14],r15
   10040e89d: 4d 3b b7 ff ff ff 7f  cmp    r14,QWORD PTR [r15+0x7fffffff]
   10040e8a4: 4d 39 be ff ff ff 7f  cmp    QWORD PTR [r14+0x7fffffff],r15
   10040e8ab: 49 81 ff ff ff ff 7f  cmp    r15,0x7fffffff
   10040e8b2: 49 39 c7              cmp    r15,rax
   10040e8b5: 4c 3b 38              cmp    r15,QWORD PTR [rax]
   10040e8b8: 49 39 07              cmp    QWORD PTR [r15],rax
   10040e8bb: 4c 3b b8 ff ff ff 7f  cmp    r15,QWORD PTR [rax+0x7fffffff]
   10040e8c2: 49 39 87 ff ff ff 7f  cmp    QWORD PTR [r15+0x7fffffff],rax
   10040e8c9: 49 39 cf              cmp    r15,rcx
   10040e8cc: 4c 3b 39              cmp    r15,QWORD PTR [rcx]
   10040e8cf: 49 39 0f              cmp    QWORD PTR [r15],rcx
   10040e8d2: 4c 3b b9 ff ff ff 7f  cmp    r15,QWORD PTR [rcx+0x7fffffff]
   10040e8d9: 49 39 8f ff ff ff 7f  cmp    QWORD PTR [r15+0x7fffffff],rcx
   10040e8e0: 49 39 d7              cmp    r15,rdx
   10040e8e3: 4c 3b 3a              cmp    r15,QWORD PTR [rdx]
   10040e8e6: 49 39 17              cmp    QWORD PTR [r15],rdx
   10040e8e9: 4c 3b ba ff ff ff 7f  cmp    r15,QWORD PTR [rdx+0x7fffffff]
   10040e8f0: 49 39 97 ff ff ff 7f  cmp    QWORD PTR [r15+0x7fffffff],rdx
   10040e8f7: 49 39 df              cmp    r15,rbx
   10040e8fa: 4c 3b 3b              cmp    r15,QWORD PTR [rbx]
   10040e8fd: 49 39 1f              cmp    QWORD PTR [r15],rbx
   10040e900: 4c 3b bb ff ff ff 7f  cmp    r15,QWORD PTR [rbx+0x7fffffff]
   10040e907: 49 39 9f ff ff ff 7f  cmp    QWORD PTR [r15+0x7fffffff],rbx
   10040e90e: 49 39 e7              cmp    r15,rsp
   10040e911: 4c 3b 3c 24           cmp    r15,QWORD PTR [rsp]
   10040e915: 49 39 27              cmp    QWORD PTR [r15],rsp
   10040e918: 4c 3b bc 24 ff ff ff 7f   cmp    r15,QWORD PTR [rsp+0x7fffffff]
   10040e920: 49 39 a7 ff ff ff 7f  cmp    QWORD PTR [r15+0x7fffffff],rsp
   10040e927: 49 39 ef              cmp    r15,rbp
   10040e92a: 4c 3b 7d 00           cmp    r15,QWORD PTR [rbp+0x0]
   10040e92e: 49 39 2f              cmp    QWORD PTR [r15],rbp
   10040e931: 4c 3b bd ff ff ff 7f  cmp    r15,QWORD PTR [rbp+0x7fffffff]
   10040e938: 49 39 af ff ff ff 7f  cmp    QWORD PTR [r15+0x7fffffff],rbp
   10040e93f: 49 39 f7              cmp    r15,rsi
   10040e942: 4c 3b 3e              cmp    r15,QWORD PTR [rsi]
   10040e945: 49 39 37              cmp    QWORD PTR [r15],rsi
   10040e948: 4c 3b be ff ff ff 7f  cmp    r15,QWORD PTR [rsi+0x7fffffff]
   10040e94f: 49 39 b7 ff ff ff 7f  cmp    QWORD PTR [r15+0x7fffffff],rsi
   10040e956: 49 39 ff              cmp    r15,rdi
   10040e959: 4c 3b 3f              cmp    r15,QWORD PTR [rdi]
   10040e95c: 49 39 3f              cmp    QWORD PTR [r15],rdi
   10040e95f: 4c 3b bf ff ff ff 7f  cmp    r15,QWORD PTR [rdi+0x7fffffff]
   10040e966: 49 39 bf ff ff ff 7f  cmp    QWORD PTR [r15+0x7fffffff],rdi
   10040e96d: 4d 39 c7              cmp    r15,r8
   10040e970: 4d 3b 38              cmp    r15,QWORD PTR [r8]
   10040e973: 4d 39 07              cmp    QWORD PTR [r15],r8
   10040e976: 4d 3b b8 ff ff ff 7f  cmp    r15,QWORD PTR [r8+0x7fffffff]
   10040e97d: 4d 39 87 ff ff ff 7f  cmp    QWORD PTR [r15+0x7fffffff],r8
   10040e984: 4d 39 cf              cmp    r15,r9
   10040e987: 4d 3b 39              cmp    r15,QWORD PTR [r9]
   10040e98a: 4d 39 0f              cmp    QWORD PTR [r15],r9
   10040e98d: 4d 3b b9 ff ff ff 7f  cmp    r15,QWORD PTR [r9+0x7fffffff]
   10040e994: 4d 39 8f ff ff ff 7f  cmp    QWORD PTR [r15+0x7fffffff],r9
   10040e99b: 4d 39 d7              cmp    r15,r10
   10040e99e: 4d 3b 3a              cmp    r15,QWORD PTR [r10]
   10040e9a1: 4d 39 17              cmp    QWORD PTR [r15],r10
   10040e9a4: 4d 3b ba ff ff ff 7f  cmp    r15,QWORD PTR [r10+0x7fffffff]
   10040e9ab: 4d 39 97 ff ff ff 7f  cmp    QWORD PTR [r15+0x7fffffff],r10
   10040e9b2: 4d 39 df              cmp    r15,r11
   10040e9b5: 4d 3b 3b              cmp    r15,QWORD PTR [r11]
   10040e9b8: 4d 39 1f              cmp    QWORD PTR [r15],r11
   10040e9bb: 4d 3b bb ff ff ff 7f  cmp    r15,QWORD PTR [r11+0x7fffffff]
   10040e9c2: 4d 39 9f ff ff ff 7f  cmp    QWORD PTR [r15+0x7fffffff],r11
   10040e9c9: 4d 39 e7              cmp    r15,r12
   10040e9cc: 4d 3b 3c 24           cmp    r15,QWORD PTR [r12]
   10040e9d0: 4d 39 27              cmp    QWORD PTR [r15],r12
   10040e9d3: 4d 3b bc 24 ff ff ff 7f   cmp    r15,QWORD PTR [r12+0x7fffffff]
   10040e9db: 4d 39 a7 ff ff ff 7f  cmp    QWORD PTR [r15+0x7fffffff],r12
   10040e9e2: 4d 39 ef              cmp    r15,r13
   10040e9e5: 4d 3b 7d 00           cmp    r15,QWORD PTR [r13+0x0]
   10040e9e9: 4d 39 2f              cmp    QWORD PTR [r15],r13
   10040e9ec: 4d 3b bd ff ff ff 7f  cmp    r15,QWORD PTR [r13+0x7fffffff]
   10040e9f3: 4d 39 af ff ff ff 7f  cmp    QWORD PTR [r15+0x7fffffff],r13
   10040e9fa: 4d 39 f7              cmp    r15,r14
   10040e9fd: 4d 3b 3e              cmp    r15,QWORD PTR [r14]
   10040ea00: 4d 39 37              cmp    QWORD PTR [r15],r14
   10040ea03: 4d 3b be ff ff ff 7f  cmp    r15,QWORD PTR [r14+0x7fffffff]
   10040ea0a: 4d 39 b7 ff ff ff 7f  cmp    QWORD PTR [r15+0x7fffffff],r14
   10040ea11: 4d 39 ff              cmp    r15,r15
   10040ea14: 4d 3b 3f              cmp    r15,QWORD PTR [r15]
   10040ea17: 4d 39 3f              cmp    QWORD PTR [r15],r15
   10040ea1a: 4d 3b bf ff ff ff 7f  cmp    r15,QWORD PTR [r15+0x7fffffff]
   10040ea21: 4d 39 bf ff ff ff 7f  cmp    QWORD PTR [r15+0x7fffffff],r15
   10040ea28: 48 0f be c0           movsx  rax,al
   10040ea2c: 48 0f be c1           movsx  rax,cl
   10040ea30: 48 0f be c2           movsx  rax,dl
   10040ea34: 48 0f be c3           movsx  rax,bl
   10040ea38: 48 0f be c4           movsx  rax,spl
   10040ea3c: 48 0f be c5           movsx  rax,bpl
   10040ea40: 48 0f be c6           movsx  rax,sil
   10040ea44: 48 0f be c7           movsx  rax,dil
   10040ea48: 49 0f be c0           movsx  rax,r8b
   10040ea4c: 49 0f be c1           movsx  rax,r9b
   10040ea50: 49 0f be c2           movsx  rax,r10b
   10040ea54: 49 0f be c3           movsx  rax,r11b
   10040ea58: 49 0f be c4           movsx  rax,r12b
   10040ea5c: 49 0f be c5           movsx  rax,r13b
   10040ea60: 49 0f be c6           movsx  rax,r14b
   10040ea64: 49 0f be c7           movsx  rax,r15b
   10040ea68: 48 0f be c8           movsx  rcx,al
   10040ea6c: 48 0f be c9           movsx  rcx,cl
   10040ea70: 48 0f be ca           movsx  rcx,dl
   10040ea74: 48 0f be cb           movsx  rcx,bl
   10040ea78: 48 0f be cc           movsx  rcx,spl
   10040ea7c: 48 0f be cd           movsx  rcx,bpl
   10040ea80: 48 0f be ce           movsx  rcx,sil
   10040ea84: 48 0f be cf           movsx  rcx,dil
   10040ea88: 49 0f be c8           movsx  rcx,r8b
   10040ea8c: 49 0f be c9           movsx  rcx,r9b
   10040ea90: 49 0f be ca           movsx  rcx,r10b
   10040ea94: 49 0f be cb           movsx  rcx,r11b
   10040ea98: 49 0f be cc           movsx  rcx,r12b
   10040ea9c: 49 0f be cd           movsx  rcx,r13b
   10040eaa0: 49 0f be ce           movsx  rcx,r14b
   10040eaa4: 49 0f be cf           movsx  rcx,r15b
   10040eaa8: 48 0f be d0           movsx  rdx,al
   10040eaac: 48 0f be d1           movsx  rdx,cl
   10040eab0: 48 0f be d2           movsx  rdx,dl
   10040eab4: 48 0f be d3           movsx  rdx,bl
   10040eab8: 48 0f be d4           movsx  rdx,spl
   10040eabc: 48 0f be d5           movsx  rdx,bpl
   10040eac0: 48 0f be d6           movsx  rdx,sil
   10040eac4: 48 0f be d7           movsx  rdx,dil
   10040eac8: 49 0f be d0           movsx  rdx,r8b
   10040eacc: 49 0f be d1           movsx  rdx,r9b
   10040ead0: 49 0f be d2           movsx  rdx,r10b
   10040ead4: 49 0f be d3           movsx  rdx,r11b
   10040ead8: 49 0f be d4           movsx  rdx,r12b
   10040eadc: 49 0f be d5           movsx  rdx,r13b
   10040eae0: 49 0f be d6           movsx  rdx,r14b
   10040eae4: 49 0f be d7           movsx  rdx,r15b
   10040eae8: 48 0f be d8           movsx  rbx,al
   10040eaec: 48 0f be d9           movsx  rbx,cl
   10040eaf0: 48 0f be da           movsx  rbx,dl
   10040eaf4: 48 0f be db           movsx  rbx,bl
   10040eaf8: 48 0f be dc           movsx  rbx,spl
   10040eafc: 48 0f be dd           movsx  rbx,bpl
   10040eb00: 48 0f be de           movsx  rbx,sil
   10040eb04: 48 0f be df           movsx  rbx,dil
   10040eb08: 49 0f be d8           movsx  rbx,r8b
   10040eb0c: 49 0f be d9           movsx  rbx,r9b
   10040eb10: 49 0f be da           movsx  rbx,r10b
   10040eb14: 49 0f be db           movsx  rbx,r11b
   10040eb18: 49 0f be dc           movsx  rbx,r12b
   10040eb1c: 49 0f be dd           movsx  rbx,r13b
   10040eb20: 49 0f be de           movsx  rbx,r14b
   10040eb24: 49 0f be df           movsx  rbx,r15b
   10040eb28: 48 0f be e0           movsx  rsp,al
   10040eb2c: 48 0f be e1           movsx  rsp,cl
   10040eb30: 48 0f be e2           movsx  rsp,dl
   10040eb34: 48 0f be e3           movsx  rsp,bl
   10040eb38: 48 0f be e4           movsx  rsp,spl
   10040eb3c: 48 0f be e5           movsx  rsp,bpl
   10040eb40: 48 0f be e6           movsx  rsp,sil
   10040eb44: 48 0f be e7           movsx  rsp,dil
   10040eb48: 49 0f be e0           movsx  rsp,r8b
   10040eb4c: 49 0f be e1           movsx  rsp,r9b
   10040eb50: 49 0f be e2           movsx  rsp,r10b
   10040eb54: 49 0f be e3           movsx  rsp,r11b
   10040eb58: 49 0f be e4           movsx  rsp,r12b
   10040eb5c: 49 0f be e5           movsx  rsp,r13b
   10040eb60: 49 0f be e6           movsx  rsp,r14b
   10040eb64: 49 0f be e7           movsx  rsp,r15b
   10040eb68: 48 0f be e8           movsx  rbp,al
   10040eb6c: 48 0f be e9           movsx  rbp,cl
   10040eb70: 48 0f be ea           movsx  rbp,dl
   10040eb74: 48 0f be eb           movsx  rbp,bl
   10040eb78: 48 0f be ec           movsx  rbp,spl
   10040eb7c: 48 0f be ed           movsx  rbp,bpl
   10040eb80: 48 0f be ee           movsx  rbp,sil
   10040eb84: 48 0f be ef           movsx  rbp,dil
   10040eb88: 49 0f be e8           movsx  rbp,r8b
   10040eb8c: 49 0f be e9           movsx  rbp,r9b
   10040eb90: 49 0f be ea           movsx  rbp,r10b
   10040eb94: 49 0f be eb           movsx  rbp,r11b
   10040eb98: 49 0f be ec           movsx  rbp,r12b
   10040eb9c: 49 0f be ed           movsx  rbp,r13b
   10040eba0: 49 0f be ee           movsx  rbp,r14b
   10040eba4: 49 0f be ef           movsx  rbp,r15b
   10040eba8: 48 0f be f0           movsx  rsi,al
   10040ebac: 48 0f be f1           movsx  rsi,cl
   10040ebb0: 48 0f be f2           movsx  rsi,dl
   10040ebb4: 48 0f be f3           movsx  rsi,bl
   10040ebb8: 48 0f be f4           movsx  rsi,spl
   10040ebbc: 48 0f be f5           movsx  rsi,bpl
   10040ebc0: 48 0f be f6           movsx  rsi,sil
   10040ebc4: 48 0f be f7           movsx  rsi,dil
   10040ebc8: 49 0f be f0           movsx  rsi,r8b
   10040ebcc: 49 0f be f1           movsx  rsi,r9b
   10040ebd0: 49 0f be f2           movsx  rsi,r10b
   10040ebd4: 49 0f be f3           movsx  rsi,r11b
   10040ebd8: 49 0f be f4           movsx  rsi,r12b
   10040ebdc: 49 0f be f5           movsx  rsi,r13b
   10040ebe0: 49 0f be f6           movsx  rsi,r14b
   10040ebe4: 49 0f be f7           movsx  rsi,r15b
   10040ebe8: 48 0f be f8           movsx  rdi,al
   10040ebec: 48 0f be f9           movsx  rdi,cl
   10040ebf0: 48 0f be fa           movsx  rdi,dl
   10040ebf4: 48 0f be fb           movsx  rdi,bl
   10040ebf8: 48 0f be fc           movsx  rdi,spl
   10040ebfc: 48 0f be fd           movsx  rdi,bpl
   10040ec00: 48 0f be fe           movsx  rdi,sil
   10040ec04: 48 0f be ff           movsx  rdi,dil
   10040ec08: 49 0f be f8           movsx  rdi,r8b
   10040ec0c: 49 0f be f9           movsx  rdi,r9b
   10040ec10: 49 0f be fa           movsx  rdi,r10b
   10040ec14: 49 0f be fb           movsx  rdi,r11b
   10040ec18: 49 0f be fc           movsx  rdi,r12b
   10040ec1c: 49 0f be fd           movsx  rdi,r13b
   10040ec20: 49 0f be fe           movsx  rdi,r14b
   10040ec24: 49 0f be ff           movsx  rdi,r15b
   10040ec28: 4c 0f be c0           movsx  r8,al
   10040ec2c: 4c 0f be c1           movsx  r8,cl
   10040ec30: 4c 0f be c2           movsx  r8,dl
   10040ec34: 4c 0f be c3           movsx  r8,bl
   10040ec38: 4c 0f be c4           movsx  r8,spl
   10040ec3c: 4c 0f be c5           movsx  r8,bpl
   10040ec40: 4c 0f be c6           movsx  r8,sil
   10040ec44: 4c 0f be c7           movsx  r8,dil
   10040ec48: 4d 0f be c0           movsx  r8,r8b
   10040ec4c: 4d 0f be c1           movsx  r8,r9b
   10040ec50: 4d 0f be c2           movsx  r8,r10b
   10040ec54: 4d 0f be c3           movsx  r8,r11b
   10040ec58: 4d 0f be c4           movsx  r8,r12b
   10040ec5c: 4d 0f be c5           movsx  r8,r13b
   10040ec60: 4d 0f be c6           movsx  r8,r14b
   10040ec64: 4d 0f be c7           movsx  r8,r15b
   10040ec68: 4c 0f be c8           movsx  r9,al
   10040ec6c: 4c 0f be c9           movsx  r9,cl
   10040ec70: 4c 0f be ca           movsx  r9,dl
   10040ec74: 4c 0f be cb           movsx  r9,bl
   10040ec78: 4c 0f be cc           movsx  r9,spl
   10040ec7c: 4c 0f be cd           movsx  r9,bpl
   10040ec80: 4c 0f be ce           movsx  r9,sil
   10040ec84: 4c 0f be cf           movsx  r9,dil
   10040ec88: 4d 0f be c8           movsx  r9,r8b
   10040ec8c: 4d 0f be c9           movsx  r9,r9b
   10040ec90: 4d 0f be ca           movsx  r9,r10b
   10040ec94: 4d 0f be cb           movsx  r9,r11b
   10040ec98: 4d 0f be cc           movsx  r9,r12b
   10040ec9c: 4d 0f be cd           movsx  r9,r13b
   10040eca0: 4d 0f be ce           movsx  r9,r14b
   10040eca4: 4d 0f be cf           movsx  r9,r15b
   10040eca8: 4c 0f be d0           movsx  r10,al
   10040ecac: 4c 0f be d1           movsx  r10,cl
   10040ecb0: 4c 0f be d2           movsx  r10,dl
   10040ecb4: 4c 0f be d3           movsx  r10,bl
   10040ecb8: 4c 0f be d4           movsx  r10,spl
   10040ecbc: 4c 0f be d5           movsx  r10,bpl
   10040ecc0: 4c 0f be d6           movsx  r10,sil
   10040ecc4: 4c 0f be d7           movsx  r10,dil
   10040ecc8: 4d 0f be d0           movsx  r10,r8b
   10040eccc: 4d 0f be d1           movsx  r10,r9b
   10040ecd0: 4d 0f be d2           movsx  r10,r10b
   10040ecd4: 4d 0f be d3           movsx  r10,r11b
   10040ecd8: 4d 0f be d4           movsx  r10,r12b
   10040ecdc: 4d 0f be d5           movsx  r10,r13b
   10040ece0: 4d 0f be d6           movsx  r10,r14b
   10040ece4: 4d 0f be d7           movsx  r10,r15b
   10040ece8: 4c 0f be d8           movsx  r11,al
   10040ecec: 4c 0f be d9           movsx  r11,cl
   10040ecf0: 4c 0f be da           movsx  r11,dl
   10040ecf4: 4c 0f be db           movsx  r11,bl
   10040ecf8: 4c 0f be dc           movsx  r11,spl
   10040ecfc: 4c 0f be dd           movsx  r11,bpl
   10040ed00: 4c 0f be de           movsx  r11,sil
   10040ed04: 4c 0f be df           movsx  r11,dil
   10040ed08: 4d 0f be d8           movsx  r11,r8b
   10040ed0c: 4d 0f be d9           movsx  r11,r9b
   10040ed10: 4d 0f be da           movsx  r11,r10b
   10040ed14: 4d 0f be db           movsx  r11,r11b
   10040ed18: 4d 0f be dc           movsx  r11,r12b
   10040ed1c: 4d 0f be dd           movsx  r11,r13b
   10040ed20: 4d 0f be de           movsx  r11,r14b
   10040ed24: 4d 0f be df           movsx  r11,r15b
   10040ed28: 4c 0f be e0           movsx  r12,al
   10040ed2c: 4c 0f be e1           movsx  r12,cl
   10040ed30: 4c 0f be e2           movsx  r12,dl
   10040ed34: 4c 0f be e3           movsx  r12,bl
   10040ed38: 4c 0f be e4           movsx  r12,spl
   10040ed3c: 4c 0f be e5           movsx  r12,bpl
   10040ed40: 4c 0f be e6           movsx  r12,sil
   10040ed44: 4c 0f be e7           movsx  r12,dil
   10040ed48: 4d 0f be e0           movsx  r12,r8b
   10040ed4c: 4d 0f be e1           movsx  r12,r9b
   10040ed50: 4d 0f be e2           movsx  r12,r10b
   10040ed54: 4d 0f be e3           movsx  r12,r11b
   10040ed58: 4d 0f be e4           movsx  r12,r12b
   10040ed5c: 4d 0f be e5           movsx  r12,r13b
   10040ed60: 4d 0f be e6           movsx  r12,r14b
   10040ed64: 4d 0f be e7           movsx  r12,r15b
   10040ed68: 4c 0f be e8           movsx  r13,al
   10040ed6c: 4c 0f be e9           movsx  r13,cl
   10040ed70: 4c 0f be ea           movsx  r13,dl
   10040ed74: 4c 0f be eb           movsx  r13,bl
   10040ed78: 4c 0f be ec           movsx  r13,spl
   10040ed7c: 4c 0f be ed           movsx  r13,bpl
   10040ed80: 4c 0f be ee           movsx  r13,sil
   10040ed84: 4c 0f be ef           movsx  r13,dil
   10040ed88: 4d 0f be e8           movsx  r13,r8b
   10040ed8c: 4d 0f be e9           movsx  r13,r9b
   10040ed90: 4d 0f be ea           movsx  r13,r10b
   10040ed94: 4d 0f be eb           movsx  r13,r11b
   10040ed98: 4d 0f be ec           movsx  r13,r12b
   10040ed9c: 4d 0f be ed           movsx  r13,r13b
   10040eda0: 4d 0f be ee           movsx  r13,r14b
   10040eda4: 4d 0f be ef           movsx  r13,r15b
   10040eda8: 4c 0f be f0           movsx  r14,al
   10040edac: 4c 0f be f1           movsx  r14,cl
   10040edb0: 4c 0f be f2           movsx  r14,dl
   10040edb4: 4c 0f be f3           movsx  r14,bl
   10040edb8: 4c 0f be f4           movsx  r14,spl
   10040edbc: 4c 0f be f5           movsx  r14,bpl
   10040edc0: 4c 0f be f6           movsx  r14,sil
   10040edc4: 4c 0f be f7           movsx  r14,dil
   10040edc8: 4d 0f be f0           movsx  r14,r8b
   10040edcc: 4d 0f be f1           movsx  r14,r9b
   10040edd0: 4d 0f be f2           movsx  r14,r10b
   10040edd4: 4d 0f be f3           movsx  r14,r11b
   10040edd8: 4d 0f be f4           movsx  r14,r12b
   10040eddc: 4d 0f be f5           movsx  r14,r13b
   10040ede0: 4d 0f be f6           movsx  r14,r14b
   10040ede4: 4d 0f be f7           movsx  r14,r15b
   10040ede8: 4c 0f be f8           movsx  r15,al
   10040edec: 4c 0f be f9           movsx  r15,cl
   10040edf0: 4c 0f be fa           movsx  r15,dl
   10040edf4: 4c 0f be fb           movsx  r15,bl
   10040edf8: 4c 0f be fc           movsx  r15,spl
   10040edfc: 4c 0f be fd           movsx  r15,bpl
   10040ee00: 4c 0f be fe           movsx  r15,sil
   10040ee04: 4c 0f be ff           movsx  r15,dil
   10040ee08: 4d 0f be f8           movsx  r15,r8b
   10040ee0c: 4d 0f be f9           movsx  r15,r9b
   10040ee10: 4d 0f be fa           movsx  r15,r10b
   10040ee14: 4d 0f be fb           movsx  r15,r11b
   10040ee18: 4d 0f be fc           movsx  r15,r12b
   10040ee1c: 4d 0f be fd           movsx  r15,r13b
   10040ee20: 4d 0f be fe           movsx  r15,r14b
   10040ee24: 4d 0f be ff           movsx  r15,r15b
   10040ee28: 48 0f bf c0           movsx  rax,ax
   10040ee2c: 48 0f bf c1           movsx  rax,cx
   10040ee30: 48 0f bf c2           movsx  rax,dx
   10040ee34: 48 0f bf c3           movsx  rax,bx
   10040ee38: 48 0f bf c4           movsx  rax,sp
   10040ee3c: 48 0f bf c5           movsx  rax,bp
   10040ee40: 48 0f bf c6           movsx  rax,si
   10040ee44: 48 0f bf c7           movsx  rax,di
   10040ee48: 49 0f bf c0           movsx  rax,r8w
   10040ee4c: 49 0f bf c1           movsx  rax,r9w
   10040ee50: 49 0f bf c2           movsx  rax,r10w
   10040ee54: 49 0f bf c3           movsx  rax,r11w
   10040ee58: 49 0f bf c4           movsx  rax,r12w
   10040ee5c: 49 0f bf c5           movsx  rax,r13w
   10040ee60: 49 0f bf c6           movsx  rax,r14w
   10040ee64: 49 0f bf c7           movsx  rax,r15w
   10040ee68: 48 0f bf c8           movsx  rcx,ax
   10040ee6c: 48 0f bf c9           movsx  rcx,cx
   10040ee70: 48 0f bf ca           movsx  rcx,dx
   10040ee74: 48 0f bf cb           movsx  rcx,bx
   10040ee78: 48 0f bf cc           movsx  rcx,sp
   10040ee7c: 48 0f bf cd           movsx  rcx,bp
   10040ee80: 48 0f bf ce           movsx  rcx,si
   10040ee84: 48 0f bf cf           movsx  rcx,di
   10040ee88: 49 0f bf c8           movsx  rcx,r8w
   10040ee8c: 49 0f bf c9           movsx  rcx,r9w
   10040ee90: 49 0f bf ca           movsx  rcx,r10w
   10040ee94: 49 0f bf cb           movsx  rcx,r11w
   10040ee98: 49 0f bf cc           movsx  rcx,r12w
   10040ee9c: 49 0f bf cd           movsx  rcx,r13w
   10040eea0: 49 0f bf ce           movsx  rcx,r14w
   10040eea4: 49 0f bf cf           movsx  rcx,r15w
   10040eea8: 48 0f bf d0           movsx  rdx,ax
   10040eeac: 48 0f bf d1           movsx  rdx,cx
   10040eeb0: 48 0f bf d2           movsx  rdx,dx
   10040eeb4: 48 0f bf d3           movsx  rdx,bx
   10040eeb8: 48 0f bf d4           movsx  rdx,sp
   10040eebc: 48 0f bf d5           movsx  rdx,bp
   10040eec0: 48 0f bf d6           movsx  rdx,si
   10040eec4: 48 0f bf d7           movsx  rdx,di
   10040eec8: 49 0f bf d0           movsx  rdx,r8w
   10040eecc: 49 0f bf d1           movsx  rdx,r9w
   10040eed0: 49 0f bf d2           movsx  rdx,r10w
   10040eed4: 49 0f bf d3           movsx  rdx,r11w
   10040eed8: 49 0f bf d4           movsx  rdx,r12w
   10040eedc: 49 0f bf d5           movsx  rdx,r13w
   10040eee0: 49 0f bf d6           movsx  rdx,r14w
   10040eee4: 49 0f bf d7           movsx  rdx,r15w
   10040eee8: 48 0f bf d8           movsx  rbx,ax
   10040eeec: 48 0f bf d9           movsx  rbx,cx
   10040eef0: 48 0f bf da           movsx  rbx,dx
   10040eef4: 48 0f bf db           movsx  rbx,bx
   10040eef8: 48 0f bf dc           movsx  rbx,sp
   10040eefc: 48 0f bf dd           movsx  rbx,bp
   10040ef00: 48 0f bf de           movsx  rbx,si
   10040ef04: 48 0f bf df           movsx  rbx,di
   10040ef08: 49 0f bf d8           movsx  rbx,r8w
   10040ef0c: 49 0f bf d9           movsx  rbx,r9w
   10040ef10: 49 0f bf da           movsx  rbx,r10w
   10040ef14: 49 0f bf db           movsx  rbx,r11w
   10040ef18: 49 0f bf dc           movsx  rbx,r12w
   10040ef1c: 49 0f bf dd           movsx  rbx,r13w
   10040ef20: 49 0f bf de           movsx  rbx,r14w
   10040ef24: 49 0f bf df           movsx  rbx,r15w
   10040ef28: 48 0f bf e0           movsx  rsp,ax
   10040ef2c: 48 0f bf e1           movsx  rsp,cx
   10040ef30: 48 0f bf e2           movsx  rsp,dx
   10040ef34: 48 0f bf e3           movsx  rsp,bx
   10040ef38: 48 0f bf e4           movsx  rsp,sp
   10040ef3c: 48 0f bf e5           movsx  rsp,bp
   10040ef40: 48 0f bf e6           movsx  rsp,si
   10040ef44: 48 0f bf e7           movsx  rsp,di
   10040ef48: 49 0f bf e0           movsx  rsp,r8w
   10040ef4c: 49 0f bf e1           movsx  rsp,r9w
   10040ef50: 49 0f bf e2           movsx  rsp,r10w
   10040ef54: 49 0f bf e3           movsx  rsp,r11w
   10040ef58: 49 0f bf e4           movsx  rsp,r12w
   10040ef5c: 49 0f bf e5           movsx  rsp,r13w
   10040ef60: 49 0f bf e6           movsx  rsp,r14w
   10040ef64: 49 0f bf e7           movsx  rsp,r15w
   10040ef68: 48 0f bf e8           movsx  rbp,ax
   10040ef6c: 48 0f bf e9           movsx  rbp,cx
   10040ef70: 48 0f bf ea           movsx  rbp,dx
   10040ef74: 48 0f bf eb           movsx  rbp,bx
   10040ef78: 48 0f bf ec           movsx  rbp,sp
   10040ef7c: 48 0f bf ed           movsx  rbp,bp
   10040ef80: 48 0f bf ee           movsx  rbp,si
   10040ef84: 48 0f bf ef           movsx  rbp,di
   10040ef88: 49 0f bf e8           movsx  rbp,r8w
   10040ef8c: 49 0f bf e9           movsx  rbp,r9w
   10040ef90: 49 0f bf ea           movsx  rbp,r10w
   10040ef94: 49 0f bf eb           movsx  rbp,r11w
   10040ef98: 49 0f bf ec           movsx  rbp,r12w
   10040ef9c: 49 0f bf ed           movsx  rbp,r13w
   10040efa0: 49 0f bf ee           movsx  rbp,r14w
   10040efa4: 49 0f bf ef           movsx  rbp,r15w
   10040efa8: 48 0f bf f0           movsx  rsi,ax
   10040efac: 48 0f bf f1           movsx  rsi,cx
   10040efb0: 48 0f bf f2           movsx  rsi,dx
   10040efb4: 48 0f bf f3           movsx  rsi,bx
   10040efb8: 48 0f bf f4           movsx  rsi,sp
   10040efbc: 48 0f bf f5           movsx  rsi,bp
   10040efc0: 48 0f bf f6           movsx  rsi,si
   10040efc4: 48 0f bf f7           movsx  rsi,di
   10040efc8: 49 0f bf f0           movsx  rsi,r8w
   10040efcc: 49 0f bf f1           movsx  rsi,r9w
   10040efd0: 49 0f bf f2           movsx  rsi,r10w
   10040efd4: 49 0f bf f3           movsx  rsi,r11w
   10040efd8: 49 0f bf f4           movsx  rsi,r12w
   10040efdc: 49 0f bf f5           movsx  rsi,r13w
   10040efe0: 49 0f bf f6           movsx  rsi,r14w
   10040efe4: 49 0f bf f7           movsx  rsi,r15w
   10040efe8: 48 0f bf f8           movsx  rdi,ax
   10040efec: 48 0f bf f9           movsx  rdi,cx
   10040eff0: 48 0f bf fa           movsx  rdi,dx
   10040eff4: 48 0f bf fb           movsx  rdi,bx
   10040eff8: 48 0f bf fc           movsx  rdi,sp
   10040effc: 48 0f bf fd           movsx  rdi,bp
   10040f000: 48 0f bf fe           movsx  rdi,si
   10040f004: 48 0f bf ff           movsx  rdi,di
   10040f008: 49 0f bf f8           movsx  rdi,r8w
   10040f00c: 49 0f bf f9           movsx  rdi,r9w
   10040f010: 49 0f bf fa           movsx  rdi,r10w
   10040f014: 49 0f bf fb           movsx  rdi,r11w
   10040f018: 49 0f bf fc           movsx  rdi,r12w
   10040f01c: 49 0f bf fd           movsx  rdi,r13w
   10040f020: 49 0f bf fe           movsx  rdi,r14w
   10040f024: 49 0f bf ff           movsx  rdi,r15w
   10040f028: 4c 0f bf c0           movsx  r8,ax
   10040f02c: 4c 0f bf c1           movsx  r8,cx
   10040f030: 4c 0f bf c2           movsx  r8,dx
   10040f034: 4c 0f bf c3           movsx  r8,bx
   10040f038: 4c 0f bf c4           movsx  r8,sp
   10040f03c: 4c 0f bf c5           movsx  r8,bp
   10040f040: 4c 0f bf c6           movsx  r8,si
   10040f044: 4c 0f bf c7           movsx  r8,di
   10040f048: 4d 0f bf c0           movsx  r8,r8w
   10040f04c: 4d 0f bf c1           movsx  r8,r9w
   10040f050: 4d 0f bf c2           movsx  r8,r10w
   10040f054: 4d 0f bf c3           movsx  r8,r11w
   10040f058: 4d 0f bf c4           movsx  r8,r12w
   10040f05c: 4d 0f bf c5           movsx  r8,r13w
   10040f060: 4d 0f bf c6           movsx  r8,r14w
   10040f064: 4d 0f bf c7           movsx  r8,r15w
   10040f068: 4c 0f bf c8           movsx  r9,ax
   10040f06c: 4c 0f bf c9           movsx  r9,cx
   10040f070: 4c 0f bf ca           movsx  r9,dx
   10040f074: 4c 0f bf cb           movsx  r9,bx
   10040f078: 4c 0f bf cc           movsx  r9,sp
   10040f07c: 4c 0f bf cd           movsx  r9,bp
   10040f080: 4c 0f bf ce           movsx  r9,si
   10040f084: 4c 0f bf cf           movsx  r9,di
   10040f088: 4d 0f bf c8           movsx  r9,r8w
   10040f08c: 4d 0f bf c9           movsx  r9,r9w
   10040f090: 4d 0f bf ca           movsx  r9,r10w
   10040f094: 4d 0f bf cb           movsx  r9,r11w
   10040f098: 4d 0f bf cc           movsx  r9,r12w
   10040f09c: 4d 0f bf cd           movsx  r9,r13w
   10040f0a0: 4d 0f bf ce           movsx  r9,r14w
   10040f0a4: 4d 0f bf cf           movsx  r9,r15w
   10040f0a8: 4c 0f bf d0           movsx  r10,ax
   10040f0ac: 4c 0f bf d1           movsx  r10,cx
   10040f0b0: 4c 0f bf d2           movsx  r10,dx
   10040f0b4: 4c 0f bf d3           movsx  r10,bx
   10040f0b8: 4c 0f bf d4           movsx  r10,sp
   10040f0bc: 4c 0f bf d5           movsx  r10,bp
   10040f0c0: 4c 0f bf d6           movsx  r10,si
   10040f0c4: 4c 0f bf d7           movsx  r10,di
   10040f0c8: 4d 0f bf d0           movsx  r10,r8w
   10040f0cc: 4d 0f bf d1           movsx  r10,r9w
   10040f0d0: 4d 0f bf d2           movsx  r10,r10w
   10040f0d4: 4d 0f bf d3           movsx  r10,r11w
   10040f0d8: 4d 0f bf d4           movsx  r10,r12w
   10040f0dc: 4d 0f bf d5           movsx  r10,r13w
   10040f0e0: 4d 0f bf d6           movsx  r10,r14w
   10040f0e4: 4d 0f bf d7           movsx  r10,r15w
   10040f0e8: 4c 0f bf d8           movsx  r11,ax
   10040f0ec: 4c 0f bf d9           movsx  r11,cx
   10040f0f0: 4c 0f bf da           movsx  r11,dx
   10040f0f4: 4c 0f bf db           movsx  r11,bx
   10040f0f8: 4c 0f bf dc           movsx  r11,sp
   10040f0fc: 4c 0f bf dd           movsx  r11,bp
   10040f100: 4c 0f bf de           movsx  r11,si
   10040f104: 4c 0f bf df           movsx  r11,di
   10040f108: 4d 0f bf d8           movsx  r11,r8w
   10040f10c: 4d 0f bf d9           movsx  r11,r9w
   10040f110: 4d 0f bf da           movsx  r11,r10w
   10040f114: 4d 0f bf db           movsx  r11,r11w
   10040f118: 4d 0f bf dc           movsx  r11,r12w
   10040f11c: 4d 0f bf dd           movsx  r11,r13w
   10040f120: 4d 0f bf de           movsx  r11,r14w
   10040f124: 4d 0f bf df           movsx  r11,r15w
   10040f128: 4c 0f bf e0           movsx  r12,ax
   10040f12c: 4c 0f bf e1           movsx  r12,cx
   10040f130: 4c 0f bf e2           movsx  r12,dx
   10040f134: 4c 0f bf e3           movsx  r12,bx
   10040f138: 4c 0f bf e4           movsx  r12,sp
   10040f13c: 4c 0f bf e5           movsx  r12,bp
   10040f140: 4c 0f bf e6           movsx  r12,si
   10040f144: 4c 0f bf e7           movsx  r12,di
   10040f148: 4d 0f bf e0           movsx  r12,r8w
   10040f14c: 4d 0f bf e1           movsx  r12,r9w
   10040f150: 4d 0f bf e2           movsx  r12,r10w
   10040f154: 4d 0f bf e3           movsx  r12,r11w
   10040f158: 4d 0f bf e4           movsx  r12,r12w
   10040f15c: 4d 0f bf e5           movsx  r12,r13w
   10040f160: 4d 0f bf e6           movsx  r12,r14w
   10040f164: 4d 0f bf e7           movsx  r12,r15w
   10040f168: 4c 0f bf e8           movsx  r13,ax
   10040f16c: 4c 0f bf e9           movsx  r13,cx
   10040f170: 4c 0f bf ea           movsx  r13,dx
   10040f174: 4c 0f bf eb           movsx  r13,bx
   10040f178: 4c 0f bf ec           movsx  r13,sp
   10040f17c: 4c 0f bf ed           movsx  r13,bp
   10040f180: 4c 0f bf ee           movsx  r13,si
   10040f184: 4c 0f bf ef           movsx  r13,di
   10040f188: 4d 0f bf e8           movsx  r13,r8w
   10040f18c: 4d 0f bf e9           movsx  r13,r9w
   10040f190: 4d 0f bf ea           movsx  r13,r10w
   10040f194: 4d 0f bf eb           movsx  r13,r11w
   10040f198: 4d 0f bf ec           movsx  r13,r12w
   10040f19c: 4d 0f bf ed           movsx  r13,r13w
   10040f1a0: 4d 0f bf ee           movsx  r13,r14w
   10040f1a4: 4d 0f bf ef           movsx  r13,r15w
   10040f1a8: 4c 0f bf f0           movsx  r14,ax
   10040f1ac: 4c 0f bf f1           movsx  r14,cx
   10040f1b0: 4c 0f bf f2           movsx  r14,dx
   10040f1b4: 4c 0f bf f3           movsx  r14,bx
   10040f1b8: 4c 0f bf f4           movsx  r14,sp
   10040f1bc: 4c 0f bf f5           movsx  r14,bp
   10040f1c0: 4c 0f bf f6           movsx  r14,si
   10040f1c4: 4c 0f bf f7           movsx  r14,di
   10040f1c8: 4d 0f bf f0           movsx  r14,r8w
   10040f1cc: 4d 0f bf f1           movsx  r14,r9w
   10040f1d0: 4d 0f bf f2           movsx  r14,r10w
   10040f1d4: 4d 0f bf f3           movsx  r14,r11w
   10040f1d8: 4d 0f bf f4           movsx  r14,r12w
   10040f1dc: 4d 0f bf f5           movsx  r14,r13w
   10040f1e0: 4d 0f bf f6           movsx  r14,r14w
   10040f1e4: 4d 0f bf f7           movsx  r14,r15w
   10040f1e8: 4c 0f bf f8           movsx  r15,ax
   10040f1ec: 4c 0f bf f9           movsx  r15,cx
   10040f1f0: 4c 0f bf fa           movsx  r15,dx
   10040f1f4: 4c 0f bf fb           movsx  r15,bx
   10040f1f8: 4c 0f bf fc           movsx  r15,sp
   10040f1fc: 4c 0f bf fd           movsx  r15,bp
   10040f200: 4c 0f bf fe           movsx  r15,si
   10040f204: 4c 0f bf ff           movsx  r15,di
   10040f208: 4d 0f bf f8           movsx  r15,r8w
   10040f20c: 4d 0f bf f9           movsx  r15,r9w
   10040f210: 4d 0f bf fa           movsx  r15,r10w
   10040f214: 4d 0f bf fb           movsx  r15,r11w
   10040f218: 4d 0f bf fc           movsx  r15,r12w
   10040f21c: 4d 0f bf fd           movsx  r15,r13w
   10040f220: 4d 0f bf fe           movsx  r15,r14w
   10040f224: 4d 0f bf ff           movsx  r15,r15w
   10040f228: 48 0f b6 c0           movzx  rax,al
   10040f22c: 48 0f b6 c1           movzx  rax,cl
   10040f230: 48 0f b6 c2           movzx  rax,dl
   10040f234: 48 0f b6 c3           movzx  rax,bl
   10040f238: 48 0f b6 c4           movzx  rax,spl
   10040f23c: 48 0f b6 c5           movzx  rax,bpl
   10040f240: 48 0f b6 c6           movzx  rax,sil
   10040f244: 48 0f b6 c7           movzx  rax,dil
   10040f248: 49 0f b6 c0           movzx  rax,r8b
   10040f24c: 49 0f b6 c1           movzx  rax,r9b
   10040f250: 49 0f b6 c2           movzx  rax,r10b
   10040f254: 49 0f b6 c3           movzx  rax,r11b
   10040f258: 49 0f b6 c4           movzx  rax,r12b
   10040f25c: 49 0f b6 c5           movzx  rax,r13b
   10040f260: 49 0f b6 c6           movzx  rax,r14b
   10040f264: 49 0f b6 c7           movzx  rax,r15b
   10040f268: 48 0f b6 c8           movzx  rcx,al
   10040f26c: 48 0f b6 c9           movzx  rcx,cl
   10040f270: 48 0f b6 ca           movzx  rcx,dl
   10040f274: 48 0f b6 cb           movzx  rcx,bl
   10040f278: 48 0f b6 cc           movzx  rcx,spl
   10040f27c: 48 0f b6 cd           movzx  rcx,bpl
   10040f280: 48 0f b6 ce           movzx  rcx,sil
   10040f284: 48 0f b6 cf           movzx  rcx,dil
   10040f288: 49 0f b6 c8           movzx  rcx,r8b
   10040f28c: 49 0f b6 c9           movzx  rcx,r9b
   10040f290: 49 0f b6 ca           movzx  rcx,r10b
   10040f294: 49 0f b6 cb           movzx  rcx,r11b
   10040f298: 49 0f b6 cc           movzx  rcx,r12b
   10040f29c: 49 0f b6 cd           movzx  rcx,r13b
   10040f2a0: 49 0f b6 ce           movzx  rcx,r14b
   10040f2a4: 49 0f b6 cf           movzx  rcx,r15b
   10040f2a8: 48 0f b6 d0           movzx  rdx,al
   10040f2ac: 48 0f b6 d1           movzx  rdx,cl
   10040f2b0: 48 0f b6 d2           movzx  rdx,dl
   10040f2b4: 48 0f b6 d3           movzx  rdx,bl
   10040f2b8: 48 0f b6 d4           movzx  rdx,spl
   10040f2bc: 48 0f b6 d5           movzx  rdx,bpl
   10040f2c0: 48 0f b6 d6           movzx  rdx,sil
   10040f2c4: 48 0f b6 d7           movzx  rdx,dil
   10040f2c8: 49 0f b6 d0           movzx  rdx,r8b
   10040f2cc: 49 0f b6 d1           movzx  rdx,r9b
   10040f2d0: 49 0f b6 d2           movzx  rdx,r10b
   10040f2d4: 49 0f b6 d3           movzx  rdx,r11b
   10040f2d8: 49 0f b6 d4           movzx  rdx,r12b
   10040f2dc: 49 0f b6 d5           movzx  rdx,r13b
   10040f2e0: 49 0f b6 d6           movzx  rdx,r14b
   10040f2e4: 49 0f b6 d7           movzx  rdx,r15b
   10040f2e8: 48 0f b6 d8           movzx  rbx,al
   10040f2ec: 48 0f b6 d9           movzx  rbx,cl
   10040f2f0: 48 0f b6 da           movzx  rbx,dl
   10040f2f4: 48 0f b6 db           movzx  rbx,bl
   10040f2f8: 48 0f b6 dc           movzx  rbx,spl
   10040f2fc: 48 0f b6 dd           movzx  rbx,bpl
   10040f300: 48 0f b6 de           movzx  rbx,sil
   10040f304: 48 0f b6 df           movzx  rbx,dil
   10040f308: 49 0f b6 d8           movzx  rbx,r8b
   10040f30c: 49 0f b6 d9           movzx  rbx,r9b
   10040f310: 49 0f b6 da           movzx  rbx,r10b
   10040f314: 49 0f b6 db           movzx  rbx,r11b
   10040f318: 49 0f b6 dc           movzx  rbx,r12b
   10040f31c: 49 0f b6 dd           movzx  rbx,r13b
   10040f320: 49 0f b6 de           movzx  rbx,r14b
   10040f324: 49 0f b6 df           movzx  rbx,r15b
   10040f328: 48 0f b6 e0           movzx  rsp,al
   10040f32c: 48 0f b6 e1           movzx  rsp,cl
   10040f330: 48 0f b6 e2           movzx  rsp,dl
   10040f334: 48 0f b6 e3           movzx  rsp,bl
   10040f338: 48 0f b6 e4           movzx  rsp,spl
   10040f33c: 48 0f b6 e5           movzx  rsp,bpl
   10040f340: 48 0f b6 e6           movzx  rsp,sil
   10040f344: 48 0f b6 e7           movzx  rsp,dil
   10040f348: 49 0f b6 e0           movzx  rsp,r8b
   10040f34c: 49 0f b6 e1           movzx  rsp,r9b
   10040f350: 49 0f b6 e2           movzx  rsp,r10b
   10040f354: 49 0f b6 e3           movzx  rsp,r11b
   10040f358: 49 0f b6 e4           movzx  rsp,r12b
   10040f35c: 49 0f b6 e5           movzx  rsp,r13b
   10040f360: 49 0f b6 e6           movzx  rsp,r14b
   10040f364: 49 0f b6 e7           movzx  rsp,r15b
   10040f368: 48 0f b6 e8           movzx  rbp,al
   10040f36c: 48 0f b6 e9           movzx  rbp,cl
   10040f370: 48 0f b6 ea           movzx  rbp,dl
   10040f374: 48 0f b6 eb           movzx  rbp,bl
   10040f378: 48 0f b6 ec           movzx  rbp,spl
   10040f37c: 48 0f b6 ed           movzx  rbp,bpl
   10040f380: 48 0f b6 ee           movzx  rbp,sil
   10040f384: 48 0f b6 ef           movzx  rbp,dil
   10040f388: 49 0f b6 e8           movzx  rbp,r8b
   10040f38c: 49 0f b6 e9           movzx  rbp,r9b
   10040f390: 49 0f b6 ea           movzx  rbp,r10b
   10040f394: 49 0f b6 eb           movzx  rbp,r11b
   10040f398: 49 0f b6 ec           movzx  rbp,r12b
   10040f39c: 49 0f b6 ed           movzx  rbp,r13b
   10040f3a0: 49 0f b6 ee           movzx  rbp,r14b
   10040f3a4: 49 0f b6 ef           movzx  rbp,r15b
   10040f3a8: 48 0f b6 f0           movzx  rsi,al
   10040f3ac: 48 0f b6 f1           movzx  rsi,cl
   10040f3b0: 48 0f b6 f2           movzx  rsi,dl
   10040f3b4: 48 0f b6 f3           movzx  rsi,bl
   10040f3b8: 48 0f b6 f4           movzx  rsi,spl
   10040f3bc: 48 0f b6 f5           movzx  rsi,bpl
   10040f3c0: 48 0f b6 f6           movzx  rsi,sil
   10040f3c4: 48 0f b6 f7           movzx  rsi,dil
   10040f3c8: 49 0f b6 f0           movzx  rsi,r8b
   10040f3cc: 49 0f b6 f1           movzx  rsi,r9b
   10040f3d0: 49 0f b6 f2           movzx  rsi,r10b
   10040f3d4: 49 0f b6 f3           movzx  rsi,r11b
   10040f3d8: 49 0f b6 f4           movzx  rsi,r12b
   10040f3dc: 49 0f b6 f5           movzx  rsi,r13b
   10040f3e0: 49 0f b6 f6           movzx  rsi,r14b
   10040f3e4: 49 0f b6 f7           movzx  rsi,r15b
   10040f3e8: 48 0f b6 f8           movzx  rdi,al
   10040f3ec: 48 0f b6 f9           movzx  rdi,cl
   10040f3f0: 48 0f b6 fa           movzx  rdi,dl
   10040f3f4: 48 0f b6 fb           movzx  rdi,bl
   10040f3f8: 48 0f b6 fc           movzx  rdi,spl
   10040f3fc: 48 0f b6 fd           movzx  rdi,bpl
   10040f400: 48 0f b6 fe           movzx  rdi,sil
   10040f404: 48 0f b6 ff           movzx  rdi,dil
   10040f408: 49 0f b6 f8           movzx  rdi,r8b
   10040f40c: 49 0f b6 f9           movzx  rdi,r9b
   10040f410: 49 0f b6 fa           movzx  rdi,r10b
   10040f414: 49 0f b6 fb           movzx  rdi,r11b
   10040f418: 49 0f b6 fc           movzx  rdi,r12b
   10040f41c: 49 0f b6 fd           movzx  rdi,r13b
   10040f420: 49 0f b6 fe           movzx  rdi,r14b
   10040f424: 49 0f b6 ff           movzx  rdi,r15b
   10040f428: 4c 0f b6 c0           movzx  r8,al
   10040f42c: 4c 0f b6 c1           movzx  r8,cl
   10040f430: 4c 0f b6 c2           movzx  r8,dl
   10040f434: 4c 0f b6 c3           movzx  r8,bl
   10040f438: 4c 0f b6 c4           movzx  r8,spl
   10040f43c: 4c 0f b6 c5           movzx  r8,bpl
   10040f440: 4c 0f b6 c6           movzx  r8,sil
   10040f444: 4c 0f b6 c7           movzx  r8,dil
   10040f448: 4d 0f b6 c0           movzx  r8,r8b
   10040f44c: 4d 0f b6 c1           movzx  r8,r9b
   10040f450: 4d 0f b6 c2           movzx  r8,r10b
   10040f454: 4d 0f b6 c3           movzx  r8,r11b
   10040f458: 4d 0f b6 c4           movzx  r8,r12b
   10040f45c: 4d 0f b6 c5           movzx  r8,r13b
   10040f460: 4d 0f b6 c6           movzx  r8,r14b
   10040f464: 4d 0f b6 c7           movzx  r8,r15b
   10040f468: 4c 0f b6 c8           movzx  r9,al
   10040f46c: 4c 0f b6 c9           movzx  r9,cl
   10040f470: 4c 0f b6 ca           movzx  r9,dl
   10040f474: 4c 0f b6 cb           movzx  r9,bl
   10040f478: 4c 0f b6 cc           movzx  r9,spl
   10040f47c: 4c 0f b6 cd           movzx  r9,bpl
   10040f480: 4c 0f b6 ce           movzx  r9,sil
   10040f484: 4c 0f b6 cf           movzx  r9,dil
   10040f488: 4d 0f b6 c8           movzx  r9,r8b
   10040f48c: 4d 0f b6 c9           movzx  r9,r9b
   10040f490: 4d 0f b6 ca           movzx  r9,r10b
   10040f494: 4d 0f b6 cb           movzx  r9,r11b
   10040f498: 4d 0f b6 cc           movzx  r9,r12b
   10040f49c: 4d 0f b6 cd           movzx  r9,r13b
   10040f4a0: 4d 0f b6 ce           movzx  r9,r14b
   10040f4a4: 4d 0f b6 cf           movzx  r9,r15b
   10040f4a8: 4c 0f b6 d0           movzx  r10,al
   10040f4ac: 4c 0f b6 d1           movzx  r10,cl
   10040f4b0: 4c 0f b6 d2           movzx  r10,dl
   10040f4b4: 4c 0f b6 d3           movzx  r10,bl
   10040f4b8: 4c 0f b6 d4           movzx  r10,spl
   10040f4bc: 4c 0f b6 d5           movzx  r10,bpl
   10040f4c0: 4c 0f b6 d6           movzx  r10,sil
   10040f4c4: 4c 0f b6 d7           movzx  r10,dil
   10040f4c8: 4d 0f b6 d0           movzx  r10,r8b
   10040f4cc: 4d 0f b6 d1           movzx  r10,r9b
   10040f4d0: 4d 0f b6 d2           movzx  r10,r10b
   10040f4d4: 4d 0f b6 d3           movzx  r10,r11b
   10040f4d8: 4d 0f b6 d4           movzx  r10,r12b
   10040f4dc: 4d 0f b6 d5           movzx  r10,r13b
   10040f4e0: 4d 0f b6 d6           movzx  r10,r14b
   10040f4e4: 4d 0f b6 d7           movzx  r10,r15b
   10040f4e8: 4c 0f b6 d8           movzx  r11,al
   10040f4ec: 4c 0f b6 d9           movzx  r11,cl
   10040f4f0: 4c 0f b6 da           movzx  r11,dl
   10040f4f4: 4c 0f b6 db           movzx  r11,bl
   10040f4f8: 4c 0f b6 dc           movzx  r11,spl
   10040f4fc: 4c 0f b6 dd           movzx  r11,bpl
   10040f500: 4c 0f b6 de           movzx  r11,sil
   10040f504: 4c 0f b6 df           movzx  r11,dil
   10040f508: 4d 0f b6 d8           movzx  r11,r8b
   10040f50c: 4d 0f b6 d9           movzx  r11,r9b
   10040f510: 4d 0f b6 da           movzx  r11,r10b
   10040f514: 4d 0f b6 db           movzx  r11,r11b
   10040f518: 4d 0f b6 dc           movzx  r11,r12b
   10040f51c: 4d 0f b6 dd           movzx  r11,r13b
   10040f520: 4d 0f b6 de           movzx  r11,r14b
   10040f524: 4d 0f b6 df           movzx  r11,r15b
   10040f528: 4c 0f b6 e0           movzx  r12,al
   10040f52c: 4c 0f b6 e1           movzx  r12,cl
   10040f530: 4c 0f b6 e2           movzx  r12,dl
   10040f534: 4c 0f b6 e3           movzx  r12,bl
   10040f538: 4c 0f b6 e4           movzx  r12,spl
   10040f53c: 4c 0f b6 e5           movzx  r12,bpl
   10040f540: 4c 0f b6 e6           movzx  r12,sil
   10040f544: 4c 0f b6 e7           movzx  r12,dil
   10040f548: 4d 0f b6 e0           movzx  r12,r8b
   10040f54c: 4d 0f b6 e1           movzx  r12,r9b
   10040f550: 4d 0f b6 e2           movzx  r12,r10b
   10040f554: 4d 0f b6 e3           movzx  r12,r11b
   10040f558: 4d 0f b6 e4           movzx  r12,r12b
   10040f55c: 4d 0f b6 e5           movzx  r12,r13b
   10040f560: 4d 0f b6 e6           movzx  r12,r14b
   10040f564: 4d 0f b6 e7           movzx  r12,r15b
   10040f568: 4c 0f b6 e8           movzx  r13,al
   10040f56c: 4c 0f b6 e9           movzx  r13,cl
   10040f570: 4c 0f b6 ea           movzx  r13,dl
   10040f574: 4c 0f b6 eb           movzx  r13,bl
   10040f578: 4c 0f b6 ec           movzx  r13,spl
   10040f57c: 4c 0f b6 ed           movzx  r13,bpl
   10040f580: 4c 0f b6 ee           movzx  r13,sil
   10040f584: 4c 0f b6 ef           movzx  r13,dil
   10040f588: 4d 0f b6 e8           movzx  r13,r8b
   10040f58c: 4d 0f b6 e9           movzx  r13,r9b
   10040f590: 4d 0f b6 ea           movzx  r13,r10b
   10040f594: 4d 0f b6 eb           movzx  r13,r11b
   10040f598: 4d 0f b6 ec           movzx  r13,r12b
   10040f59c: 4d 0f b6 ed           movzx  r13,r13b
   10040f5a0: 4d 0f b6 ee           movzx  r13,r14b
   10040f5a4: 4d 0f b6 ef           movzx  r13,r15b
   10040f5a8: 4c 0f b6 f0           movzx  r14,al
   10040f5ac: 4c 0f b6 f1           movzx  r14,cl
   10040f5b0: 4c 0f b6 f2           movzx  r14,dl
   10040f5b4: 4c 0f b6 f3           movzx  r14,bl
   10040f5b8: 4c 0f b6 f4           movzx  r14,spl
   10040f5bc: 4c 0f b6 f5           movzx  r14,bpl
   10040f5c0: 4c 0f b6 f6           movzx  r14,sil
   10040f5c4: 4c 0f b6 f7           movzx  r14,dil
   10040f5c8: 4d 0f b6 f0           movzx  r14,r8b
   10040f5cc: 4d 0f b6 f1           movzx  r14,r9b
   10040f5d0: 4d 0f b6 f2           movzx  r14,r10b
   10040f5d4: 4d 0f b6 f3           movzx  r14,r11b
   10040f5d8: 4d 0f b6 f4           movzx  r14,r12b
   10040f5dc: 4d 0f b6 f5           movzx  r14,r13b
   10040f5e0: 4d 0f b6 f6           movzx  r14,r14b
   10040f5e4: 4d 0f b6 f7           movzx  r14,r15b
   10040f5e8: 4c 0f b6 f8           movzx  r15,al
   10040f5ec: 4c 0f b6 f9           movzx  r15,cl
   10040f5f0: 4c 0f b6 fa           movzx  r15,dl
   10040f5f4: 4c 0f b6 fb           movzx  r15,bl
   10040f5f8: 4c 0f b6 fc           movzx  r15,spl
   10040f5fc: 4c 0f b6 fd           movzx  r15,bpl
   10040f600: 4c 0f b6 fe           movzx  r15,sil
   10040f604: 4c 0f b6 ff           movzx  r15,dil
   10040f608: 4d 0f b6 f8           movzx  r15,r8b
   10040f60c: 4d 0f b6 f9           movzx  r15,r9b
   10040f610: 4d 0f b6 fa           movzx  r15,r10b
   10040f614: 4d 0f b6 fb           movzx  r15,r11b
   10040f618: 4d 0f b6 fc           movzx  r15,r12b
   10040f61c: 4d 0f b6 fd           movzx  r15,r13b
   10040f620: 4d 0f b6 fe           movzx  r15,r14b
   10040f624: 4d 0f b6 ff           movzx  r15,r15b
   10040f628: 48 0f b7 c0           movzx  rax,ax
   10040f62c: 48 0f b7 c1           movzx  rax,cx
   10040f630: 48 0f b7 c2           movzx  rax,dx
   10040f634: 48 0f b7 c3           movzx  rax,bx
   10040f638: 48 0f b7 c4           movzx  rax,sp
   10040f63c: 48 0f b7 c5           movzx  rax,bp
   10040f640: 48 0f b7 c6           movzx  rax,si
   10040f644: 48 0f b7 c7           movzx  rax,di
   10040f648: 49 0f b7 c0           movzx  rax,r8w
   10040f64c: 49 0f b7 c1           movzx  rax,r9w
   10040f650: 49 0f b7 c2           movzx  rax,r10w
   10040f654: 49 0f b7 c3           movzx  rax,r11w
   10040f658: 49 0f b7 c4           movzx  rax,r12w
   10040f65c: 49 0f b7 c5           movzx  rax,r13w
   10040f660: 49 0f b7 c6           movzx  rax,r14w
   10040f664: 49 0f b7 c7           movzx  rax,r15w
   10040f668: 48 0f b7 c8           movzx  rcx,ax
   10040f66c: 48 0f b7 c9           movzx  rcx,cx
   10040f670: 48 0f b7 ca           movzx  rcx,dx
   10040f674: 48 0f b7 cb           movzx  rcx,bx
   10040f678: 48 0f b7 cc           movzx  rcx,sp
   10040f67c: 48 0f b7 cd           movzx  rcx,bp
   10040f680: 48 0f b7 ce           movzx  rcx,si
   10040f684: 48 0f b7 cf           movzx  rcx,di
   10040f688: 49 0f b7 c8           movzx  rcx,r8w
   10040f68c: 49 0f b7 c9           movzx  rcx,r9w
   10040f690: 49 0f b7 ca           movzx  rcx,r10w
   10040f694: 49 0f b7 cb           movzx  rcx,r11w
   10040f698: 49 0f b7 cc           movzx  rcx,r12w
   10040f69c: 49 0f b7 cd           movzx  rcx,r13w
   10040f6a0: 49 0f b7 ce           movzx  rcx,r14w
   10040f6a4: 49 0f b7 cf           movzx  rcx,r15w
   10040f6a8: 48 0f b7 d0           movzx  rdx,ax
   10040f6ac: 48 0f b7 d1           movzx  rdx,cx
   10040f6b0: 48 0f b7 d2           movzx  rdx,dx
   10040f6b4: 48 0f b7 d3           movzx  rdx,bx
   10040f6b8: 48 0f b7 d4           movzx  rdx,sp
   10040f6bc: 48 0f b7 d5           movzx  rdx,bp
   10040f6c0: 48 0f b7 d6           movzx  rdx,si
   10040f6c4: 48 0f b7 d7           movzx  rdx,di
   10040f6c8: 49 0f b7 d0           movzx  rdx,r8w
   10040f6cc: 49 0f b7 d1           movzx  rdx,r9w
   10040f6d0: 49 0f b7 d2           movzx  rdx,r10w
   10040f6d4: 49 0f b7 d3           movzx  rdx,r11w
   10040f6d8: 49 0f b7 d4           movzx  rdx,r12w
   10040f6dc: 49 0f b7 d5           movzx  rdx,r13w
   10040f6e0: 49 0f b7 d6           movzx  rdx,r14w
   10040f6e4: 49 0f b7 d7           movzx  rdx,r15w
   10040f6e8: 48 0f b7 d8           movzx  rbx,ax
   10040f6ec: 48 0f b7 d9           movzx  rbx,cx
   10040f6f0: 48 0f b7 da           movzx  rbx,dx
   10040f6f4: 48 0f b7 db           movzx  rbx,bx
   10040f6f8: 48 0f b7 dc           movzx  rbx,sp
   10040f6fc: 48 0f b7 dd           movzx  rbx,bp
   10040f700: 48 0f b7 de           movzx  rbx,si
   10040f704: 48 0f b7 df           movzx  rbx,di
   10040f708: 49 0f b7 d8           movzx  rbx,r8w
   10040f70c: 49 0f b7 d9           movzx  rbx,r9w
   10040f710: 49 0f b7 da           movzx  rbx,r10w
   10040f714: 49 0f b7 db           movzx  rbx,r11w
   10040f718: 49 0f b7 dc           movzx  rbx,r12w
   10040f71c: 49 0f b7 dd           movzx  rbx,r13w
   10040f720: 49 0f b7 de           movzx  rbx,r14w
   10040f724: 49 0f b7 df           movzx  rbx,r15w
   10040f728: 48 0f b7 e0           movzx  rsp,ax
   10040f72c: 48 0f b7 e1           movzx  rsp,cx
   10040f730: 48 0f b7 e2           movzx  rsp,dx
   10040f734: 48 0f b7 e3           movzx  rsp,bx
   10040f738: 48 0f b7 e4           movzx  rsp,sp
   10040f73c: 48 0f b7 e5           movzx  rsp,bp
   10040f740: 48 0f b7 e6           movzx  rsp,si
   10040f744: 48 0f b7 e7           movzx  rsp,di
   10040f748: 49 0f b7 e0           movzx  rsp,r8w
   10040f74c: 49 0f b7 e1           movzx  rsp,r9w
   10040f750: 49 0f b7 e2           movzx  rsp,r10w
   10040f754: 49 0f b7 e3           movzx  rsp,r11w
   10040f758: 49 0f b7 e4           movzx  rsp,r12w
   10040f75c: 49 0f b7 e5           movzx  rsp,r13w
   10040f760: 49 0f b7 e6           movzx  rsp,r14w
   10040f764: 49 0f b7 e7           movzx  rsp,r15w
   10040f768: 48 0f b7 e8           movzx  rbp,ax
   10040f76c: 48 0f b7 e9           movzx  rbp,cx
   10040f770: 48 0f b7 ea           movzx  rbp,dx
   10040f774: 48 0f b7 eb           movzx  rbp,bx
   10040f778: 48 0f b7 ec           movzx  rbp,sp
   10040f77c: 48 0f b7 ed           movzx  rbp,bp
   10040f780: 48 0f b7 ee           movzx  rbp,si
   10040f784: 48 0f b7 ef           movzx  rbp,di
   10040f788: 49 0f b7 e8           movzx  rbp,r8w
   10040f78c: 49 0f b7 e9           movzx  rbp,r9w
   10040f790: 49 0f b7 ea           movzx  rbp,r10w
   10040f794: 49 0f b7 eb           movzx  rbp,r11w
   10040f798: 49 0f b7 ec           movzx  rbp,r12w
   10040f79c: 49 0f b7 ed           movzx  rbp,r13w
   10040f7a0: 49 0f b7 ee           movzx  rbp,r14w
   10040f7a4: 49 0f b7 ef           movzx  rbp,r15w
   10040f7a8: 48 0f b7 f0           movzx  rsi,ax
   10040f7ac: 48 0f b7 f1           movzx  rsi,cx
   10040f7b0: 48 0f b7 f2           movzx  rsi,dx
   10040f7b4: 48 0f b7 f3           movzx  rsi,bx
   10040f7b8: 48 0f b7 f4           movzx  rsi,sp
   10040f7bc: 48 0f b7 f5           movzx  rsi,bp
   10040f7c0: 48 0f b7 f6           movzx  rsi,si
   10040f7c4: 48 0f b7 f7           movzx  rsi,di
   10040f7c8: 49 0f b7 f0           movzx  rsi,r8w
   10040f7cc: 49 0f b7 f1           movzx  rsi,r9w
   10040f7d0: 49 0f b7 f2           movzx  rsi,r10w
   10040f7d4: 49 0f b7 f3           movzx  rsi,r11w
   10040f7d8: 49 0f b7 f4           movzx  rsi,r12w
   10040f7dc: 49 0f b7 f5           movzx  rsi,r13w
   10040f7e0: 49 0f b7 f6           movzx  rsi,r14w
   10040f7e4: 49 0f b7 f7           movzx  rsi,r15w
   10040f7e8: 48 0f b7 f8           movzx  rdi,ax
   10040f7ec: 48 0f b7 f9           movzx  rdi,cx
   10040f7f0: 48 0f b7 fa           movzx  rdi,dx
   10040f7f4: 48 0f b7 fb           movzx  rdi,bx
   10040f7f8: 48 0f b7 fc           movzx  rdi,sp
   10040f7fc: 48 0f b7 fd           movzx  rdi,bp
   10040f800: 48 0f b7 fe           movzx  rdi,si
   10040f804: 48 0f b7 ff           movzx  rdi,di
   10040f808: 49 0f b7 f8           movzx  rdi,r8w
   10040f80c: 49 0f b7 f9           movzx  rdi,r9w
   10040f810: 49 0f b7 fa           movzx  rdi,r10w
   10040f814: 49 0f b7 fb           movzx  rdi,r11w
   10040f818: 49 0f b7 fc           movzx  rdi,r12w
   10040f81c: 49 0f b7 fd           movzx  rdi,r13w
   10040f820: 49 0f b7 fe           movzx  rdi,r14w
   10040f824: 49 0f b7 ff           movzx  rdi,r15w
   10040f828: 4c 0f b7 c0           movzx  r8,ax
   10040f82c: 4c 0f b7 c1           movzx  r8,cx
   10040f830: 4c 0f b7 c2           movzx  r8,dx
   10040f834: 4c 0f b7 c3           movzx  r8,bx
   10040f838: 4c 0f b7 c4           movzx  r8,sp
   10040f83c: 4c 0f b7 c5           movzx  r8,bp
   10040f840: 4c 0f b7 c6           movzx  r8,si
   10040f844: 4c 0f b7 c7           movzx  r8,di
   10040f848: 4d 0f b7 c0           movzx  r8,r8w
   10040f84c: 4d 0f b7 c1           movzx  r8,r9w
   10040f850: 4d 0f b7 c2           movzx  r8,r10w
   10040f854: 4d 0f b7 c3           movzx  r8,r11w
   10040f858: 4d 0f b7 c4           movzx  r8,r12w
   10040f85c: 4d 0f b7 c5           movzx  r8,r13w
   10040f860: 4d 0f b7 c6           movzx  r8,r14w
   10040f864: 4d 0f b7 c7           movzx  r8,r15w
   10040f868: 4c 0f b7 c8           movzx  r9,ax
   10040f86c: 4c 0f b7 c9           movzx  r9,cx
   10040f870: 4c 0f b7 ca           movzx  r9,dx
   10040f874: 4c 0f b7 cb           movzx  r9,bx
   10040f878: 4c 0f b7 cc           movzx  r9,sp
   10040f87c: 4c 0f b7 cd           movzx  r9,bp
   10040f880: 4c 0f b7 ce           movzx  r9,si
   10040f884: 4c 0f b7 cf           movzx  r9,di
   10040f888: 4d 0f b7 c8           movzx  r9,r8w
   10040f88c: 4d 0f b7 c9           movzx  r9,r9w
   10040f890: 4d 0f b7 ca           movzx  r9,r10w
   10040f894: 4d 0f b7 cb           movzx  r9,r11w
   10040f898: 4d 0f b7 cc           movzx  r9,r12w
   10040f89c: 4d 0f b7 cd           movzx  r9,r13w
   10040f8a0: 4d 0f b7 ce           movzx  r9,r14w
   10040f8a4: 4d 0f b7 cf           movzx  r9,r15w
   10040f8a8: 4c 0f b7 d0           movzx  r10,ax
   10040f8ac: 4c 0f b7 d1           movzx  r10,cx
   10040f8b0: 4c 0f b7 d2           movzx  r10,dx
   10040f8b4: 4c 0f b7 d3           movzx  r10,bx
   10040f8b8: 4c 0f b7 d4           movzx  r10,sp
   10040f8bc: 4c 0f b7 d5           movzx  r10,bp
   10040f8c0: 4c 0f b7 d6           movzx  r10,si
   10040f8c4: 4c 0f b7 d7           movzx  r10,di
   10040f8c8: 4d 0f b7 d0           movzx  r10,r8w
   10040f8cc: 4d 0f b7 d1           movzx  r10,r9w
   10040f8d0: 4d 0f b7 d2           movzx  r10,r10w
   10040f8d4: 4d 0f b7 d3           movzx  r10,r11w
   10040f8d8: 4d 0f b7 d4           movzx  r10,r12w
   10040f8dc: 4d 0f b7 d5           movzx  r10,r13w
   10040f8e0: 4d 0f b7 d6           movzx  r10,r14w
   10040f8e4: 4d 0f b7 d7           movzx  r10,r15w
   10040f8e8: 4c 0f b7 d8           movzx  r11,ax
   10040f8ec: 4c 0f b7 d9           movzx  r11,cx
   10040f8f0: 4c 0f b7 da           movzx  r11,dx
   10040f8f4: 4c 0f b7 db           movzx  r11,bx
   10040f8f8: 4c 0f b7 dc           movzx  r11,sp
   10040f8fc: 4c 0f b7 dd           movzx  r11,bp
   10040f900: 4c 0f b7 de           movzx  r11,si
   10040f904: 4c 0f b7 df           movzx  r11,di
   10040f908: 4d 0f b7 d8           movzx  r11,r8w
   10040f90c: 4d 0f b7 d9           movzx  r11,r9w
   10040f910: 4d 0f b7 da           movzx  r11,r10w
   10040f914: 4d 0f b7 db           movzx  r11,r11w
   10040f918: 4d 0f b7 dc           movzx  r11,r12w
   10040f91c: 4d 0f b7 dd           movzx  r11,r13w
   10040f920: 4d 0f b7 de           movzx  r11,r14w
   10040f924: 4d 0f b7 df           movzx  r11,r15w
   10040f928: 4c 0f b7 e0           movzx  r12,ax
   10040f92c: 4c 0f b7 e1           movzx  r12,cx
   10040f930: 4c 0f b7 e2           movzx  r12,dx
   10040f934: 4c 0f b7 e3           movzx  r12,bx
   10040f938: 4c 0f b7 e4           movzx  r12,sp
   10040f93c: 4c 0f b7 e5           movzx  r12,bp
   10040f940: 4c 0f b7 e6           movzx  r12,si
   10040f944: 4c 0f b7 e7           movzx  r12,di
   10040f948: 4d 0f b7 e0           movzx  r12,r8w
   10040f94c: 4d 0f b7 e1           movzx  r12,r9w
   10040f950: 4d 0f b7 e2           movzx  r12,r10w
   10040f954: 4d 0f b7 e3           movzx  r12,r11w
   10040f958: 4d 0f b7 e4           movzx  r12,r12w
   10040f95c: 4d 0f b7 e5           movzx  r12,r13w
   10040f960: 4d 0f b7 e6           movzx  r12,r14w
   10040f964: 4d 0f b7 e7           movzx  r12,r15w
   10040f968: 4c 0f b7 e8           movzx  r13,ax
   10040f96c: 4c 0f b7 e9           movzx  r13,cx
   10040f970: 4c 0f b7 ea           movzx  r13,dx
   10040f974: 4c 0f b7 eb           movzx  r13,bx
   10040f978: 4c 0f b7 ec           movzx  r13,sp
   10040f97c: 4c 0f b7 ed           movzx  r13,bp
   10040f980: 4c 0f b7 ee           movzx  r13,si
   10040f984: 4c 0f b7 ef           movzx  r13,di
   10040f988: 4d 0f b7 e8           movzx  r13,r8w
   10040f98c: 4d 0f b7 e9           movzx  r13,r9w
   10040f990: 4d 0f b7 ea           movzx  r13,r10w
   10040f994: 4d 0f b7 eb           movzx  r13,r11w
   10040f998: 4d 0f b7 ec           movzx  r13,r12w
   10040f99c: 4d 0f b7 ed           movzx  r13,r13w
   10040f9a0: 4d 0f b7 ee           movzx  r13,r14w
   10040f9a4: 4d 0f b7 ef           movzx  r13,r15w
   10040f9a8: 4c 0f b7 f0           movzx  r14,ax
   10040f9ac: 4c 0f b7 f1           movzx  r14,cx
   10040f9b0: 4c 0f b7 f2           movzx  r14,dx
   10040f9b4: 4c 0f b7 f3           movzx  r14,bx
   10040f9b8: 4c 0f b7 f4           movzx  r14,sp
   10040f9bc: 4c 0f b7 f5           movzx  r14,bp
   10040f9c0: 4c 0f b7 f6           movzx  r14,si
   10040f9c4: 4c 0f b7 f7           movzx  r14,di
   10040f9c8: 4d 0f b7 f0           movzx  r14,r8w
   10040f9cc: 4d 0f b7 f1           movzx  r14,r9w
   10040f9d0: 4d 0f b7 f2           movzx  r14,r10w
   10040f9d4: 4d 0f b7 f3           movzx  r14,r11w
   10040f9d8: 4d 0f b7 f4           movzx  r14,r12w
   10040f9dc: 4d 0f b7 f5           movzx  r14,r13w
   10040f9e0: 4d 0f b7 f6           movzx  r14,r14w
   10040f9e4: 4d 0f b7 f7           movzx  r14,r15w
   10040f9e8: 4c 0f b7 f8           movzx  r15,ax
   10040f9ec: 4c 0f b7 f9           movzx  r15,cx
   10040f9f0: 4c 0f b7 fa           movzx  r15,dx
   10040f9f4: 4c 0f b7 fb           movzx  r15,bx
   10040f9f8: 4c 0f b7 fc           movzx  r15,sp
   10040f9fc: 4c 0f b7 fd           movzx  r15,bp
   10040fa00: 4c 0f b7 fe           movzx  r15,si
   10040fa04: 4c 0f b7 ff           movzx  r15,di
   10040fa08: 4d 0f b7 f8           movzx  r15,r8w
   10040fa0c: 4d 0f b7 f9           movzx  r15,r9w
   10040fa10: 4d 0f b7 fa           movzx  r15,r10w
   10040fa14: 4d 0f b7 fb           movzx  r15,r11w
   10040fa18: 4d 0f b7 fc           movzx  r15,r12w
   10040fa1c: 4d 0f b7 fd           movzx  r15,r13w
   10040fa20: 4d 0f b7 fe           movzx  r15,r14w
   10040fa24: 4d 0f b7 ff           movzx  r15,r15w
   10040fa28: 50                    push   rax
   10040fa29: 51                    push   rcx
   10040fa2a: 52                    push   rdx
   10040fa2b: 53                    push   rbx
   10040fa2c: 54                    push   rsp
   10040fa2d: 55                    push   rbp
   10040fa2e: 56                    push   rsi
   10040fa2f: 57                    push   rdi
   10040fa30: 41 50                 push   r8
   10040fa32: 41 51                 push   r9
   10040fa34: 41 52                 push   r10
   10040fa36: 41 53                 push   r11
   10040fa38: 41 54                 push   r12
   10040fa3a: 41 55                 push   r13
   10040fa3c: 41 56                 push   r14
   10040fa3e: 41 57                 push   r15
   10040fa40: 58                    pop    rax
   10040fa41: 59                    pop    rcx
   10040fa42: 5a                    pop    rdx
   10040fa43: 5b                    pop    rbx
   10040fa44: 5c                    pop    rsp
   10040fa45: 5d                    pop    rbp
   10040fa46: 5e                    pop    rsi
   10040fa47: 5f                    pop    rdi
   10040fa48: 41 58                 pop    r8
   10040fa4a: 41 59                 pop    r9
   10040fa4c: 41 5a                 pop    r10
   10040fa4e: 41 5b                 pop    r11
   10040fa50: 41 5c                 pop    r12
   10040fa52: 41 5d                 pop    r13
   10040fa54: 41 5e                 pop    r14
   10040fa56: 41 5f                 pop    r15
   10040fa58: 48 ff c0              inc    rax
   10040fa5b: 48 ff c1              inc    rcx
   10040fa5e: 48 ff c2              inc    rdx
   10040fa61: 48 ff c3              inc    rbx
   10040fa64: 48 ff c4              inc    rsp
   10040fa67: 48 ff c5              inc    rbp
   10040fa6a: 48 ff c6              inc    rsi
   10040fa6d: 48 ff c7              inc    rdi
   10040fa70: 49 ff c0              inc    r8
   10040fa73: 49 ff c1              inc    r9
   10040fa76: 49 ff c2              inc    r10
   10040fa79: 49 ff c3              inc    r11
   10040fa7c: 49 ff c4              inc    r12
   10040fa7f: 49 ff c5              inc    r13
   10040fa82: 49 ff c6              inc    r14
   10040fa85: 49 ff c7              inc    r15
   10040fa88: 48 ff c8              dec    rax
   10040fa8b: 48 ff c9              dec    rcx
   10040fa8e: 48 ff ca              dec    rdx
   10040fa91: 48 ff cb              dec    rbx
   10040fa94: 48 ff cc              dec    rsp
   10040fa97: 48 ff cd              dec    rbp
   10040fa9a: 48 ff ce              dec    rsi
   10040fa9d: 48 ff cf              dec    rdi
   10040faa0: 49 ff c8              dec    r8
   10040faa3: 49 ff c9              dec    r9
   10040faa6: 49 ff ca              dec    r10
   10040faa9: 49 ff cb              dec    r11
   10040faac: 49 ff cc              dec    r12
   10040faaf: 49 ff cd              dec    r13
   10040fab2: 49 ff ce              dec    r14
   10040fab5: 49 ff cf              dec    r15
   10040fab8: 48 f7 d8              neg    rax
   10040fabb: 48 f7 d9              neg    rcx
   10040fabe: 48 f7 da              neg    rdx
   10040fac1: 48 f7 db              neg    rbx
   10040fac4: 48 f7 dc              neg    rsp
   10040fac7: 48 f7 dd              neg    rbp
   10040faca: 48 f7 de              neg    rsi
   10040facd: 48 f7 df              neg    rdi
   10040fad0: 49 f7 d8              neg    r8
   10040fad3: 49 f7 d9              neg    r9
   10040fad6: 49 f7 da              neg    r10
   10040fad9: 49 f7 db              neg    r11
   10040fadc: 49 f7 dc              neg    r12
   10040fadf: 49 f7 dd              neg    r13
   10040fae2: 49 f7 de              neg    r14
   10040fae5: 49 f7 df              neg    r15
   10040fae8: 48 f7 d0              not    rax
   10040faeb: 48 f7 d1              not    rcx
   10040faee: 48 f7 d2              not    rdx
   10040faf1: 48 f7 d3              not    rbx
   10040faf4: 48 f7 d4              not    rsp
   10040faf7: 48 f7 d5              not    rbp
   10040fafa: 48 f7 d6              not    rsi
   10040fafd: 48 f7 d7              not    rdi
   10040fb00: 49 f7 d0              not    r8
   10040fb03: 49 f7 d1              not    r9
   10040fb06: 49 f7 d2              not    r10
   10040fb09: 49 f7 d3              not    r11
   10040fb0c: 49 f7 d4              not    r12
   10040fb0f: 49 f7 d5              not    r13
   10040fb12: 49 f7 d6              not    r14
   10040fb15: 49 f7 d7              not    r15
   10040fb18: 0f 94 c0              sete   al
   10040fb1b: 0f 94 c1              sete   cl
   10040fb1e: 0f 94 c2              sete   dl
   10040fb21: 0f 94 c3              sete   bl
   10040fb24: 40 0f 94 c4           sete   spl
   10040fb28: 40 0f 94 c5           sete   bpl
   10040fb2c: 40 0f 94 c6           sete   sil
   10040fb30: 40 0f 94 c7           sete   dil
   10040fb34: 41 0f 94 c0           sete   r8b
   10040fb38: 41 0f 94 c1           sete   r9b
   10040fb3c: 41 0f 94 c2           sete   r10b
   10040fb40: 41 0f 94 c3           sete   r11b
   10040fb44: 41 0f 94 c4           sete   r12b
   10040fb48: 41 0f 94 c5           sete   r13b
   10040fb4c: 41 0f 94 c6           sete   r14b
   10040fb50: 41 0f 94 c7           sete   r15b
   10040fb54: 0f 95 c0              setne  al
   10040fb57: 0f 95 c1              setne  cl
   10040fb5a: 0f 95 c2              setne  dl
   10040fb5d: 0f 95 c3              setne  bl
   10040fb60: 40 0f 95 c4           setne  spl
   10040fb64: 40 0f 95 c5           setne  bpl
   10040fb68: 40 0f 95 c6           setne  sil
   10040fb6c: 40 0f 95 c7           setne  dil
   10040fb70: 41 0f 95 c0           setne  r8b
   10040fb74: 41 0f 95 c1           setne  r9b
   10040fb78: 41 0f 95 c2           setne  r10b
   10040fb7c: 41 0f 95 c3           setne  r11b
   10040fb80: 41 0f 95 c4           setne  r12b
   10040fb84: 41 0f 95 c5           setne  r13b
   10040fb88: 41 0f 95 c6           setne  r14b
   10040fb8c: 41 0f 95 c7           setne  r15b
   10040fb90: c3                    ret    
   10040fb91: 66 99                 cwd    
   10040fb93: 99                    cdq    
   10040fb94: 48 99                 cqo    
   10040fb96: 48 8d 00              lea    rax,[rax]
   10040fb99: 48 8d 80 ff ff ff 7f  lea    rax,[rax+0x7fffffff]
   10040fba0: 48 8d 01              lea    rax,[rcx]
   10040fba3: 48 8d 81 ff ff ff 7f  lea    rax,[rcx+0x7fffffff]
   10040fbaa: 48 8d 02              lea    rax,[rdx]
   10040fbad: 48 8d 82 ff ff ff 7f  lea    rax,[rdx+0x7fffffff]
   10040fbb4: 48 8d 03              lea    rax,[rbx]
   10040fbb7: 48 8d 83 ff ff ff 7f  lea    rax,[rbx+0x7fffffff]
   10040fbbe: 48 8d 04 24           lea    rax,[rsp]
   10040fbc2: 48 8d 84 24 ff ff ff 7f   lea    rax,[rsp+0x7fffffff]
   10040fbca: 48 8d 45 00           lea    rax,[rbp+0x0]
   10040fbce: 48 8d 85 ff ff ff 7f  lea    rax,[rbp+0x7fffffff]
   10040fbd5: 48 8d 06              lea    rax,[rsi]
   10040fbd8: 48 8d 86 ff ff ff 7f  lea    rax,[rsi+0x7fffffff]
   10040fbdf: 48 8d 07              lea    rax,[rdi]
   10040fbe2: 48 8d 87 ff ff ff 7f  lea    rax,[rdi+0x7fffffff]
   10040fbe9: 49 8d 00              lea    rax,[r8]
   10040fbec: 49 8d 80 ff ff ff 7f  lea    rax,[r8+0x7fffffff]
   10040fbf3: 49 8d 01              lea    rax,[r9]
   10040fbf6: 49 8d 81 ff ff ff 7f  lea    rax,[r9+0x7fffffff]
   10040fbfd: 49 8d 02              lea    rax,[r10]
   10040fc00: 49 8d 82 ff ff ff 7f  lea    rax,[r10+0x7fffffff]
   10040fc07: 49 8d 03              lea    rax,[r11]
   10040fc0a: 49 8d 83 ff ff ff 7f  lea    rax,[r11+0x7fffffff]
   10040fc11: 49 8d 04 24           lea    rax,[r12]
   10040fc15: 49 8d 84 24 ff ff ff 7f   lea    rax,[r12+0x7fffffff]
   10040fc1d: 49 8d 45 00           lea    rax,[r13+0x0]
   10040fc21: 49 8d 85 ff ff ff 7f  lea    rax,[r13+0x7fffffff]
   10040fc28: 49 8d 06              lea    rax,[r14]
   10040fc2b: 49 8d 86 ff ff ff 7f  lea    rax,[r14+0x7fffffff]
   10040fc32: 49 8d 07              lea    rax,[r15]
   10040fc35: 49 8d 87 ff ff ff 7f  lea    rax,[r15+0x7fffffff]
   10040fc3c: 48 8d 05 00 00 00 00  lea    rax,[rip+0x0]        # 10040fc43 <main+0xebc3>
   10040fc43: 48 8d 05 ff ff ff 7f  lea    rax,[rip+0x7fffffff]        # 18040fc49 <.debug_loc+0x7ffd25d5>
   10040fc4a: 48 8d 08              lea    rcx,[rax]
   10040fc4d: 48 8d 88 ff ff ff 7f  lea    rcx,[rax+0x7fffffff]
   10040fc54: 48 8d 09              lea    rcx,[rcx]
   10040fc57: 48 8d 89 ff ff ff 7f  lea    rcx,[rcx+0x7fffffff]
   10040fc5e: 48 8d 0a              lea    rcx,[rdx]
   10040fc61: 48 8d 8a ff ff ff 7f  lea    rcx,[rdx+0x7fffffff]
   10040fc68: 48 8d 0b              lea    rcx,[rbx]
   10040fc6b: 48 8d 8b ff ff ff 7f  lea    rcx,[rbx+0x7fffffff]
   10040fc72: 48 8d 0c 24           lea    rcx,[rsp]
   10040fc76: 48 8d 8c 24 ff ff ff 7f   lea    rcx,[rsp+0x7fffffff]
   10040fc7e: 48 8d 4d 00           lea    rcx,[rbp+0x0]
   10040fc82: 48 8d 8d ff ff ff 7f  lea    rcx,[rbp+0x7fffffff]
   10040fc89: 48 8d 0e              lea    rcx,[rsi]
   10040fc8c: 48 8d 8e ff ff ff 7f  lea    rcx,[rsi+0x7fffffff]
   10040fc93: 48 8d 0f              lea    rcx,[rdi]
   10040fc96: 48 8d 8f ff ff ff 7f  lea    rcx,[rdi+0x7fffffff]
   10040fc9d: 49 8d 08              lea    rcx,[r8]
   10040fca0: 49 8d 88 ff ff ff 7f  lea    rcx,[r8+0x7fffffff]
   10040fca7: 49 8d 09              lea    rcx,[r9]
   10040fcaa: 49 8d 89 ff ff ff 7f  lea    rcx,[r9+0x7fffffff]
   10040fcb1: 49 8d 0a              lea    rcx,[r10]
   10040fcb4: 49 8d 8a ff ff ff 7f  lea    rcx,[r10+0x7fffffff]
   10040fcbb: 49 8d 0b              lea    rcx,[r11]
   10040fcbe: 49 8d 8b ff ff ff 7f  lea    rcx,[r11+0x7fffffff]
   10040fcc5: 49 8d 0c 24           lea    rcx,[r12]
   10040fcc9: 49 8d 8c 24 ff ff ff 7f   lea    rcx,[r12+0x7fffffff]
   10040fcd1: 49 8d 4d 00           lea    rcx,[r13+0x0]
   10040fcd5: 49 8d 8d ff ff ff 7f  lea    rcx,[r13+0x7fffffff]
   10040fcdc: 49 8d 0e              lea    rcx,[r14]
   10040fcdf: 49 8d 8e ff ff ff 7f  lea    rcx,[r14+0x7fffffff]
   10040fce6: 49 8d 0f              lea    rcx,[r15]
   10040fce9: 49 8d 8f ff ff ff 7f  lea    rcx,[r15+0x7fffffff]
   10040fcf0: 48 8d 0d 00 00 00 00  lea    rcx,[rip+0x0]        # 10040fcf7 <main+0xec77>
   10040fcf7: 48 8d 0d ff ff ff 7f  lea    rcx,[rip+0x7fffffff]        # 18040fcfd <.debug_loc+0x7ffd2689>
   10040fcfe: 48 8d 10              lea    rdx,[rax]
   10040fd01: 48 8d 90 ff ff ff 7f  lea    rdx,[rax+0x7fffffff]
   10040fd08: 48 8d 11              lea    rdx,[rcx]
   10040fd0b: 48 8d 91 ff ff ff 7f  lea    rdx,[rcx+0x7fffffff]
   10040fd12: 48 8d 12              lea    rdx,[rdx]
   10040fd15: 48 8d 92 ff ff ff 7f  lea    rdx,[rdx+0x7fffffff]
   10040fd1c: 48 8d 13              lea    rdx,[rbx]
   10040fd1f: 48 8d 93 ff ff ff 7f  lea    rdx,[rbx+0x7fffffff]
   10040fd26: 48 8d 14 24           lea    rdx,[rsp]
   10040fd2a: 48 8d 94 24 ff ff ff 7f   lea    rdx,[rsp+0x7fffffff]
   10040fd32: 48 8d 55 00           lea    rdx,[rbp+0x0]
   10040fd36: 48 8d 95 ff ff ff 7f  lea    rdx,[rbp+0x7fffffff]
   10040fd3d: 48 8d 16              lea    rdx,[rsi]
   10040fd40: 48 8d 96 ff ff ff 7f  lea    rdx,[rsi+0x7fffffff]
   10040fd47: 48 8d 17              lea    rdx,[rdi]
   10040fd4a: 48 8d 97 ff ff ff 7f  lea    rdx,[rdi+0x7fffffff]
   10040fd51: 49 8d 10              lea    rdx,[r8]
   10040fd54: 49 8d 90 ff ff ff 7f  lea    rdx,[r8+0x7fffffff]
   10040fd5b: 49 8d 11              lea    rdx,[r9]
   10040fd5e: 49 8d 91 ff ff ff 7f  lea    rdx,[r9+0x7fffffff]
   10040fd65: 49 8d 12              lea    rdx,[r10]
   10040fd68: 49 8d 92 ff ff ff 7f  lea    rdx,[r10+0x7fffffff]
   10040fd6f: 49 8d 13              lea    rdx,[r11]
   10040fd72: 49 8d 93 ff ff ff 7f  lea    rdx,[r11+0x7fffffff]
   10040fd79: 49 8d 14 24           lea    rdx,[r12]
   10040fd7d: 49 8d 94 24 ff ff ff 7f   lea    rdx,[r12+0x7fffffff]
   10040fd85: 49 8d 55 00           lea    rdx,[r13+0x0]
   10040fd89: 49 8d 95 ff ff ff 7f  lea    rdx,[r13+0x7fffffff]
   10040fd90: 49 8d 16              lea    rdx,[r14]
   10040fd93: 49 8d 96 ff ff ff 7f  lea    rdx,[r14+0x7fffffff]
   10040fd9a: 49 8d 17              lea    rdx,[r15]
   10040fd9d: 49 8d 97 ff ff ff 7f  lea    rdx,[r15+0x7fffffff]
   10040fda4: 48 8d 15 00 00 00 00  lea    rdx,[rip+0x0]        # 10040fdab <main+0xed2b>
   10040fdab: 48 8d 15 ff ff ff 7f  lea    rdx,[rip+0x7fffffff]        # 18040fdb1 <.debug_loc+0x7ffd273d>
   10040fdb2: 48 8d 18              lea    rbx,[rax]
   10040fdb5: 48 8d 98 ff ff ff 7f  lea    rbx,[rax+0x7fffffff]
   10040fdbc: 48 8d 19              lea    rbx,[rcx]
   10040fdbf: 48 8d 99 ff ff ff 7f  lea    rbx,[rcx+0x7fffffff]
   10040fdc6: 48 8d 1a              lea    rbx,[rdx]
   10040fdc9: 48 8d 9a ff ff ff 7f  lea    rbx,[rdx+0x7fffffff]
   10040fdd0: 48 8d 1b              lea    rbx,[rbx]
   10040fdd3: 48 8d 9b ff ff ff 7f  lea    rbx,[rbx+0x7fffffff]
   10040fdda: 48 8d 1c 24           lea    rbx,[rsp]
   10040fdde: 48 8d 9c 24 ff ff ff 7f   lea    rbx,[rsp+0x7fffffff]
   10040fde6: 48 8d 5d 00           lea    rbx,[rbp+0x0]
   10040fdea: 48 8d 9d ff ff ff 7f  lea    rbx,[rbp+0x7fffffff]
   10040fdf1: 48 8d 1e              lea    rbx,[rsi]
   10040fdf4: 48 8d 9e ff ff ff 7f  lea    rbx,[rsi+0x7fffffff]
   10040fdfb: 48 8d 1f              lea    rbx,[rdi]
   10040fdfe: 48 8d 9f ff ff ff 7f  lea    rbx,[rdi+0x7fffffff]
   10040fe05: 49 8d 18              lea    rbx,[r8]
   10040fe08: 49 8d 98 ff ff ff 7f  lea    rbx,[r8+0x7fffffff]
   10040fe0f: 49 8d 19              lea    rbx,[r9]
   10040fe12: 49 8d 99 ff ff ff 7f  lea    rbx,[r9+0x7fffffff]
   10040fe19: 49 8d 1a              lea    rbx,[r10]
   10040fe1c: 49 8d 9a ff ff ff 7f  lea    rbx,[r10+0x7fffffff]
   10040fe23: 49 8d 1b              lea    rbx,[r11]
   10040fe26: 49 8d 9b ff ff ff 7f  lea    rbx,[r11+0x7fffffff]
   10040fe2d: 49 8d 1c 24           lea    rbx,[r12]
   10040fe31: 49 8d 9c 24 ff ff ff 7f   lea    rbx,[r12+0x7fffffff]
   10040fe39: 49 8d 5d 00           lea    rbx,[r13+0x0]
   10040fe3d: 49 8d 9d ff ff ff 7f  lea    rbx,[r13+0x7fffffff]
   10040fe44: 49 8d 1e              lea    rbx,[r14]
   10040fe47: 49 8d 9e ff ff ff 7f  lea    rbx,[r14+0x7fffffff]
   10040fe4e: 49 8d 1f              lea    rbx,[r15]
   10040fe51: 49 8d 9f ff ff ff 7f  lea    rbx,[r15+0x7fffffff]
   10040fe58: 48 8d 1d 00 00 00 00  lea    rbx,[rip+0x0]        # 10040fe5f <main+0xeddf>
   10040fe5f: 48 8d 1d ff ff ff 7f  lea    rbx,[rip+0x7fffffff]        # 18040fe65 <.debug_loc+0x7ffd27f1>
   10040fe66: 48 8d 20              lea    rsp,[rax]
   10040fe69: 48 8d a0 ff ff ff 7f  lea    rsp,[rax+0x7fffffff]
   10040fe70: 48 8d 21              lea    rsp,[rcx]
   10040fe73: 48 8d a1 ff ff ff 7f  lea    rsp,[rcx+0x7fffffff]
   10040fe7a: 48 8d 22              lea    rsp,[rdx]
   10040fe7d: 48 8d a2 ff ff ff 7f  lea    rsp,[rdx+0x7fffffff]
   10040fe84: 48 8d 23              lea    rsp,[rbx]
   10040fe87: 48 8d a3 ff ff ff 7f  lea    rsp,[rbx+0x7fffffff]
   10040fe8e: 48 8d 24 24           lea    rsp,[rsp]
   10040fe92: 48 8d a4 24 ff ff ff 7f   lea    rsp,[rsp+0x7fffffff]
   10040fe9a: 48 8d 65 00           lea    rsp,[rbp+0x0]
   10040fe9e: 48 8d a5 ff ff ff 7f  lea    rsp,[rbp+0x7fffffff]
   10040fea5: 48 8d 26              lea    rsp,[rsi]
   10040fea8: 48 8d a6 ff ff ff 7f  lea    rsp,[rsi+0x7fffffff]
   10040feaf: 48 8d 27              lea    rsp,[rdi]
   10040feb2: 48 8d a7 ff ff ff 7f  lea    rsp,[rdi+0x7fffffff]
   10040feb9: 49 8d 20              lea    rsp,[r8]
   10040febc: 49 8d a0 ff ff ff 7f  lea    rsp,[r8+0x7fffffff]
   10040fec3: 49 8d 21              lea    rsp,[r9]
   10040fec6: 49 8d a1 ff ff ff 7f  lea    rsp,[r9+0x7fffffff]
   10040fecd: 49 8d 22              lea    rsp,[r10]
   10040fed0: 49 8d a2 ff ff ff 7f  lea    rsp,[r10+0x7fffffff]
   10040fed7: 49 8d 23              lea    rsp,[r11]
   10040feda: 49 8d a3 ff ff ff 7f  lea    rsp,[r11+0x7fffffff]
   10040fee1: 49 8d 24 24           lea    rsp,[r12]
   10040fee5: 49 8d a4 24 ff ff ff 7f   lea    rsp,[r12+0x7fffffff]
   10040feed: 49 8d 65 00           lea    rsp,[r13+0x0]
   10040fef1: 49 8d a5 ff ff ff 7f  lea    rsp,[r13+0x7fffffff]
   10040fef8: 49 8d 26              lea    rsp,[r14]
   10040fefb: 49 8d a6 ff ff ff 7f  lea    rsp,[r14+0x7fffffff]
   10040ff02: 49 8d 27              lea    rsp,[r15]
   10040ff05: 49 8d a7 ff ff ff 7f  lea    rsp,[r15+0x7fffffff]
   10040ff0c: 48 8d 25 00 00 00 00  lea    rsp,[rip+0x0]        # 10040ff13 <main+0xee93>
   10040ff13: 48 8d 25 ff ff ff 7f  lea    rsp,[rip+0x7fffffff]        # 18040ff19 <.debug_loc+0x7ffd28a5>
   10040ff1a: 48 8d 28              lea    rbp,[rax]
   10040ff1d: 48 8d a8 ff ff ff 7f  lea    rbp,[rax+0x7fffffff]
   10040ff24: 48 8d 29              lea    rbp,[rcx]
   10040ff27: 48 8d a9 ff ff ff 7f  lea    rbp,[rcx+0x7fffffff]
   10040ff2e: 48 8d 2a              lea    rbp,[rdx]
   10040ff31: 48 8d aa ff ff ff 7f  lea    rbp,[rdx+0x7fffffff]
   10040ff38: 48 8d 2b              lea    rbp,[rbx]
   10040ff3b: 48 8d ab ff ff ff 7f  lea    rbp,[rbx+0x7fffffff]
   10040ff42: 48 8d 2c 24           lea    rbp,[rsp]
   10040ff46: 48 8d ac 24 ff ff ff 7f   lea    rbp,[rsp+0x7fffffff]
   10040ff4e: 48 8d 6d 00           lea    rbp,[rbp+0x0]
   10040ff52: 48 8d ad ff ff ff 7f  lea    rbp,[rbp+0x7fffffff]
   10040ff59: 48 8d 2e              lea    rbp,[rsi]
   10040ff5c: 48 8d ae ff ff ff 7f  lea    rbp,[rsi+0x7fffffff]
   10040ff63: 48 8d 2f              lea    rbp,[rdi]
   10040ff66: 48 8d af ff ff ff 7f  lea    rbp,[rdi+0x7fffffff]
   10040ff6d: 49 8d 28              lea    rbp,[r8]
   10040ff70: 49 8d a8 ff ff ff 7f  lea    rbp,[r8+0x7fffffff]
   10040ff77: 49 8d 29              lea    rbp,[r9]
   10040ff7a: 49 8d a9 ff ff ff 7f  lea    rbp,[r9+0x7fffffff]
   10040ff81: 49 8d 2a              lea    rbp,[r10]
   10040ff84: 49 8d aa ff ff ff 7f  lea    rbp,[r10+0x7fffffff]
   10040ff8b: 49 8d 2b              lea    rbp,[r11]
   10040ff8e: 49 8d ab ff ff ff 7f  lea    rbp,[r11+0x7fffffff]
   10040ff95: 49 8d 2c 24           lea    rbp,[r12]
   10040ff99: 49 8d ac 24 ff ff ff 7f   lea    rbp,[r12+0x7fffffff]
   10040ffa1: 49 8d 6d 00           lea    rbp,[r13+0x0]
   10040ffa5: 49 8d ad ff ff ff 7f  lea    rbp,[r13+0x7fffffff]
   10040ffac: 49 8d 2e              lea    rbp,[r14]
   10040ffaf: 49 8d ae ff ff ff 7f  lea    rbp,[r14+0x7fffffff]
   10040ffb6: 49 8d 2f              lea    rbp,[r15]
   10040ffb9: 49 8d af ff ff ff 7f  lea    rbp,[r15+0x7fffffff]
   10040ffc0: 48 8d 2d 00 00 00 00  lea    rbp,[rip+0x0]        # 10040ffc7 <main+0xef47>
   10040ffc7: 48 8d 2d ff ff ff 7f  lea    rbp,[rip+0x7fffffff]        # 18040ffcd <.debug_loc+0x7ffd2959>
   10040ffce: 48 8d 30              lea    rsi,[rax]
   10040ffd1: 48 8d b0 ff ff ff 7f  lea    rsi,[rax+0x7fffffff]
   10040ffd8: 48 8d 31              lea    rsi,[rcx]
   10040ffdb: 48 8d b1 ff ff ff 7f  lea    rsi,[rcx+0x7fffffff]
   10040ffe2: 48 8d 32              lea    rsi,[rdx]
   10040ffe5: 48 8d b2 ff ff ff 7f  lea    rsi,[rdx+0x7fffffff]
   10040ffec: 48 8d 33              lea    rsi,[rbx]
   10040ffef: 48 8d b3 ff ff ff 7f  lea    rsi,[rbx+0x7fffffff]
   10040fff6: 48 8d 34 24           lea    rsi,[rsp]
   10040fffa: 48 8d b4 24 ff ff ff 7f   lea    rsi,[rsp+0x7fffffff]
   100410002: 48 8d 75 00           lea    rsi,[rbp+0x0]
   100410006: 48 8d b5 ff ff ff 7f  lea    rsi,[rbp+0x7fffffff]
   10041000d: 48 8d 36              lea    rsi,[rsi]
   100410010: 48 8d b6 ff ff ff 7f  lea    rsi,[rsi+0x7fffffff]
   100410017: 48 8d 37              lea    rsi,[rdi]
   10041001a: 48 8d b7 ff ff ff 7f  lea    rsi,[rdi+0x7fffffff]
   100410021: 49 8d 30              lea    rsi,[r8]
   100410024: 49 8d b0 ff ff ff 7f  lea    rsi,[r8+0x7fffffff]
   10041002b: 49 8d 31              lea    rsi,[r9]
   10041002e: 49 8d b1 ff ff ff 7f  lea    rsi,[r9+0x7fffffff]
   100410035: 49 8d 32              lea    rsi,[r10]
   100410038: 49 8d b2 ff ff ff 7f  lea    rsi,[r10+0x7fffffff]
   10041003f: 49 8d 33              lea    rsi,[r11]
   100410042: 49 8d b3 ff ff ff 7f  lea    rsi,[r11+0x7fffffff]
   100410049: 49 8d 34 24           lea    rsi,[r12]
   10041004d: 49 8d b4 24 ff ff ff 7f   lea    rsi,[r12+0x7fffffff]
   100410055: 49 8d 75 00           lea    rsi,[r13+0x0]
   100410059: 49 8d b5 ff ff ff 7f  lea    rsi,[r13+0x7fffffff]
   100410060: 49 8d 36              lea    rsi,[r14]
   100410063: 49 8d b6 ff ff ff 7f  lea    rsi,[r14+0x7fffffff]
   10041006a: 49 8d 37              lea    rsi,[r15]
   10041006d: 49 8d b7 ff ff ff 7f  lea    rsi,[r15+0x7fffffff]
   100410074: 48 8d 35 00 00 00 00  lea    rsi,[rip+0x0]        # 10041007b <main+0xeffb>
   10041007b: 48 8d 35 ff ff ff 7f  lea    rsi,[rip+0x7fffffff]        # 180410081 <.debug_loc+0x7ffd2a0d>
   100410082: 48 8d 38              lea    rdi,[rax]
   100410085: 48 8d b8 ff ff ff 7f  lea    rdi,[rax+0x7fffffff]
   10041008c: 48 8d 39              lea    rdi,[rcx]
   10041008f: 48 8d b9 ff ff ff 7f  lea    rdi,[rcx+0x7fffffff]
   100410096: 48 8d 3a              lea    rdi,[rdx]
   100410099: 48 8d ba ff ff ff 7f  lea    rdi,[rdx+0x7fffffff]
   1004100a0: 48 8d 3b              lea    rdi,[rbx]
   1004100a3: 48 8d bb ff ff ff 7f  lea    rdi,[rbx+0x7fffffff]
   1004100aa: 48 8d 3c 24           lea    rdi,[rsp]
   1004100ae: 48 8d bc 24 ff ff ff 7f   lea    rdi,[rsp+0x7fffffff]
   1004100b6: 48 8d 7d 00           lea    rdi,[rbp+0x0]
   1004100ba: 48 8d bd ff ff ff 7f  lea    rdi,[rbp+0x7fffffff]
   1004100c1: 48 8d 3e              lea    rdi,[rsi]
   1004100c4: 48 8d be ff ff ff 7f  lea    rdi,[rsi+0x7fffffff]
   1004100cb: 48 8d 3f              lea    rdi,[rdi]
   1004100ce: 48 8d bf ff ff ff 7f  lea    rdi,[rdi+0x7fffffff]
   1004100d5: 49 8d 38              lea    rdi,[r8]
   1004100d8: 49 8d b8 ff ff ff 7f  lea    rdi,[r8+0x7fffffff]
   1004100df: 49 8d 39              lea    rdi,[r9]
   1004100e2: 49 8d b9 ff ff ff 7f  lea    rdi,[r9+0x7fffffff]
   1004100e9: 49 8d 3a              lea    rdi,[r10]
   1004100ec: 49 8d ba ff ff ff 7f  lea    rdi,[r10+0x7fffffff]
   1004100f3: 49 8d 3b              lea    rdi,[r11]
   1004100f6: 49 8d bb ff ff ff 7f  lea    rdi,[r11+0x7fffffff]
   1004100fd: 49 8d 3c 24           lea    rdi,[r12]
   100410101: 49 8d bc 24 ff ff ff 7f   lea    rdi,[r12+0x7fffffff]
   100410109: 49 8d 7d 00           lea    rdi,[r13+0x0]
   10041010d: 49 8d bd ff ff ff 7f  lea    rdi,[r13+0x7fffffff]
   100410114: 49 8d 3e              lea    rdi,[r14]
   100410117: 49 8d be ff ff ff 7f  lea    rdi,[r14+0x7fffffff]
   10041011e: 49 8d 3f              lea    rdi,[r15]
   100410121: 49 8d bf ff ff ff 7f  lea    rdi,[r15+0x7fffffff]
   100410128: 48 8d 3d 00 00 00 00  lea    rdi,[rip+0x0]        # 10041012f <main+0xf0af>
   10041012f: 48 8d 3d ff ff ff 7f  lea    rdi,[rip+0x7fffffff]        # 180410135 <.debug_loc+0x7ffd2ac1>
   100410136: 4c 8d 00              lea    r8,[rax]
   100410139: 4c 8d 80 ff ff ff 7f  lea    r8,[rax+0x7fffffff]
   100410140: 4c 8d 01              lea    r8,[rcx]
   100410143: 4c 8d 81 ff ff ff 7f  lea    r8,[rcx+0x7fffffff]
   10041014a: 4c 8d 02              lea    r8,[rdx]
   10041014d: 4c 8d 82 ff ff ff 7f  lea    r8,[rdx+0x7fffffff]
   100410154: 4c 8d 03              lea    r8,[rbx]
   100410157: 4c 8d 83 ff ff ff 7f  lea    r8,[rbx+0x7fffffff]
   10041015e: 4c 8d 04 24           lea    r8,[rsp]
   100410162: 4c 8d 84 24 ff ff ff 7f   lea    r8,[rsp+0x7fffffff]
   10041016a: 4c 8d 45 00           lea    r8,[rbp+0x0]
   10041016e: 4c 8d 85 ff ff ff 7f  lea    r8,[rbp+0x7fffffff]
   100410175: 4c 8d 06              lea    r8,[rsi]
   100410178: 4c 8d 86 ff ff ff 7f  lea    r8,[rsi+0x7fffffff]
   10041017f: 4c 8d 07              lea    r8,[rdi]
   100410182: 4c 8d 87 ff ff ff 7f  lea    r8,[rdi+0x7fffffff]
   100410189: 4d 8d 00              lea    r8,[r8]
   10041018c: 4d 8d 80 ff ff ff 7f  lea    r8,[r8+0x7fffffff]
   100410193: 4d 8d 01              lea    r8,[r9]
   100410196: 4d 8d 81 ff ff ff 7f  lea    r8,[r9+0x7fffffff]
   10041019d: 4d 8d 02              lea    r8,[r10]
   1004101a0: 4d 8d 82 ff ff ff 7f  lea    r8,[r10+0x7fffffff]
   1004101a7: 4d 8d 03              lea    r8,[r11]
   1004101aa: 4d 8d 83 ff ff ff 7f  lea    r8,[r11+0x7fffffff]
   1004101b1: 4d 8d 04 24           lea    r8,[r12]
   1004101b5: 4d 8d 84 24 ff ff ff 7f   lea    r8,[r12+0x7fffffff]
   1004101bd: 4d 8d 45 00           lea    r8,[r13+0x0]
   1004101c1: 4d 8d 85 ff ff ff 7f  lea    r8,[r13+0x7fffffff]
   1004101c8: 4d 8d 06              lea    r8,[r14]
   1004101cb: 4d 8d 86 ff ff ff 7f  lea    r8,[r14+0x7fffffff]
   1004101d2: 4d 8d 07              lea    r8,[r15]
   1004101d5: 4d 8d 87 ff ff ff 7f  lea    r8,[r15+0x7fffffff]
   1004101dc: 4c 8d 05 00 00 00 00  lea    r8,[rip+0x0]        # 1004101e3 <main+0xf163>
   1004101e3: 4c 8d 05 ff ff ff 7f  lea    r8,[rip+0x7fffffff]        # 1804101e9 <.debug_loc+0x7ffd2b75>
   1004101ea: 4c 8d 08              lea    r9,[rax]
   1004101ed: 4c 8d 88 ff ff ff 7f  lea    r9,[rax+0x7fffffff]
   1004101f4: 4c 8d 09              lea    r9,[rcx]
   1004101f7: 4c 8d 89 ff ff ff 7f  lea    r9,[rcx+0x7fffffff]
   1004101fe: 4c 8d 0a              lea    r9,[rdx]
   100410201: 4c 8d 8a ff ff ff 7f  lea    r9,[rdx+0x7fffffff]
   100410208: 4c 8d 0b              lea    r9,[rbx]
   10041020b: 4c 8d 8b ff ff ff 7f  lea    r9,[rbx+0x7fffffff]
   100410212: 4c 8d 0c 24           lea    r9,[rsp]
   100410216: 4c 8d 8c 24 ff ff ff 7f   lea    r9,[rsp+0x7fffffff]
   10041021e: 4c 8d 4d 00           lea    r9,[rbp+0x0]
   100410222: 4c 8d 8d ff ff ff 7f  lea    r9,[rbp+0x7fffffff]
   100410229: 4c 8d 0e              lea    r9,[rsi]
   10041022c: 4c 8d 8e ff ff ff 7f  lea    r9,[rsi+0x7fffffff]
   100410233: 4c 8d 0f              lea    r9,[rdi]
   100410236: 4c 8d 8f ff ff ff 7f  lea    r9,[rdi+0x7fffffff]
   10041023d: 4d 8d 08              lea    r9,[r8]
   100410240: 4d 8d 88 ff ff ff 7f  lea    r9,[r8+0x7fffffff]
   100410247: 4d 8d 09              lea    r9,[r9]
   10041024a: 4d 8d 89 ff ff ff 7f  lea    r9,[r9+0x7fffffff]
   100410251: 4d 8d 0a              lea    r9,[r10]
   100410254: 4d 8d 8a ff ff ff 7f  lea    r9,[r10+0x7fffffff]
   10041025b: 4d 8d 0b              lea    r9,[r11]
   10041025e: 4d 8d 8b ff ff ff 7f  lea    r9,[r11+0x7fffffff]
   100410265: 4d 8d 0c 24           lea    r9,[r12]
   100410269: 4d 8d 8c 24 ff ff ff 7f   lea    r9,[r12+0x7fffffff]
   100410271: 4d 8d 4d 00           lea    r9,[r13+0x0]
   100410275: 4d 8d 8d ff ff ff 7f  lea    r9,[r13+0x7fffffff]
   10041027c: 4d 8d 0e              lea    r9,[r14]
   10041027f: 4d 8d 8e ff ff ff 7f  lea    r9,[r14+0x7fffffff]
   100410286: 4d 8d 0f              lea    r9,[r15]
   100410289: 4d 8d 8f ff ff ff 7f  lea    r9,[r15+0x7fffffff]
   100410290: 4c 8d 0d 00 00 00 00  lea    r9,[rip+0x0]        # 100410297 <main+0xf217>
   100410297: 4c 8d 0d ff ff ff 7f  lea    r9,[rip+0x7fffffff]        # 18041029d <.debug_loc+0x7ffd2c29>
   10041029e: 4c 8d 10              lea    r10,[rax]
   1004102a1: 4c 8d 90 ff ff ff 7f  lea    r10,[rax+0x7fffffff]
   1004102a8: 4c 8d 11              lea    r10,[rcx]
   1004102ab: 4c 8d 91 ff ff ff 7f  lea    r10,[rcx+0x7fffffff]
   1004102b2: 4c 8d 12              lea    r10,[rdx]
   1004102b5: 4c 8d 92 ff ff ff 7f  lea    r10,[rdx+0x7fffffff]
   1004102bc: 4c 8d 13              lea    r10,[rbx]
   1004102bf: 4c 8d 93 ff ff ff 7f  lea    r10,[rbx+0x7fffffff]
   1004102c6: 4c 8d 14 24           lea    r10,[rsp]
   1004102ca: 4c 8d 94 24 ff ff ff 7f   lea    r10,[rsp+0x7fffffff]
   1004102d2: 4c 8d 55 00           lea    r10,[rbp+0x0]
   1004102d6: 4c 8d 95 ff ff ff 7f  lea    r10,[rbp+0x7fffffff]
   1004102dd: 4c 8d 16              lea    r10,[rsi]
   1004102e0: 4c 8d 96 ff ff ff 7f  lea    r10,[rsi+0x7fffffff]
   1004102e7: 4c 8d 17              lea    r10,[rdi]
   1004102ea: 4c 8d 97 ff ff ff 7f  lea    r10,[rdi+0x7fffffff]
   1004102f1: 4d 8d 10              lea    r10,[r8]
   1004102f4: 4d 8d 90 ff ff ff 7f  lea    r10,[r8+0x7fffffff]
   1004102fb: 4d 8d 11              lea    r10,[r9]
   1004102fe: 4d 8d 91 ff ff ff 7f  lea    r10,[r9+0x7fffffff]
   100410305: 4d 8d 12              lea    r10,[r10]
   100410308: 4d 8d 92 ff ff ff 7f  lea    r10,[r10+0x7fffffff]
   10041030f: 4d 8d 13              lea    r10,[r11]
   100410312: 4d 8d 93 ff ff ff 7f  lea    r10,[r11+0x7fffffff]
   100410319: 4d 8d 14 24           lea    r10,[r12]
   10041031d: 4d 8d 94 24 ff ff ff 7f   lea    r10,[r12+0x7fffffff]
   100410325: 4d 8d 55 00           lea    r10,[r13+0x0]
   100410329: 4d 8d 95 ff ff ff 7f  lea    r10,[r13+0x7fffffff]
   100410330: 4d 8d 16              lea    r10,[r14]
   100410333: 4d 8d 96 ff ff ff 7f  lea    r10,[r14+0x7fffffff]
   10041033a: 4d 8d 17              lea    r10,[r15]
   10041033d: 4d 8d 97 ff ff ff 7f  lea    r10,[r15+0x7fffffff]
   100410344: 4c 8d 15 00 00 00 00  lea    r10,[rip+0x0]        # 10041034b <main+0xf2cb>
   10041034b: 4c 8d 15 ff ff ff 7f  lea    r10,[rip+0x7fffffff]        # 180410351 <.debug_loc+0x7ffd2cdd>
   100410352: 4c 8d 18              lea    r11,[rax]
   100410355: 4c 8d 98 ff ff ff 7f  lea    r11,[rax+0x7fffffff]
   10041035c: 4c 8d 19              lea    r11,[rcx]
   10041035f: 4c 8d 99 ff ff ff 7f  lea    r11,[rcx+0x7fffffff]
   100410366: 4c 8d 1a              lea    r11,[rdx]
   100410369: 4c 8d 9a ff ff ff 7f  lea    r11,[rdx+0x7fffffff]
   100410370: 4c 8d 1b              lea    r11,[rbx]
   100410373: 4c 8d 9b ff ff ff 7f  lea    r11,[rbx+0x7fffffff]
   10041037a: 4c 8d 1c 24           lea    r11,[rsp]
   10041037e: 4c 8d 9c 24 ff ff ff 7f   lea    r11,[rsp+0x7fffffff]
   100410386: 4c 8d 5d 00           lea    r11,[rbp+0x0]
   10041038a: 4c 8d 9d ff ff ff 7f  lea    r11,[rbp+0x7fffffff]
   100410391: 4c 8d 1e              lea    r11,[rsi]
   100410394: 4c 8d 9e ff ff ff 7f  lea    r11,[rsi+0x7fffffff]
   10041039b: 4c 8d 1f              lea    r11,[rdi]
   10041039e: 4c 8d 9f ff ff ff 7f  lea    r11,[rdi+0x7fffffff]
   1004103a5: 4d 8d 18              lea    r11,[r8]
   1004103a8: 4d 8d 98 ff ff ff 7f  lea    r11,[r8+0x7fffffff]
   1004103af: 4d 8d 19              lea    r11,[r9]
   1004103b2: 4d 8d 99 ff ff ff 7f  lea    r11,[r9+0x7fffffff]
   1004103b9: 4d 8d 1a              lea    r11,[r10]
   1004103bc: 4d 8d 9a ff ff ff 7f  lea    r11,[r10+0x7fffffff]
   1004103c3: 4d 8d 1b              lea    r11,[r11]
   1004103c6: 4d 8d 9b ff ff ff 7f  lea    r11,[r11+0x7fffffff]
   1004103cd: 4d 8d 1c 24           lea    r11,[r12]
   1004103d1: 4d 8d 9c 24 ff ff ff 7f   lea    r11,[r12+0x7fffffff]
   1004103d9: 4d 8d 5d 00           lea    r11,[r13+0x0]
   1004103dd: 4d 8d 9d ff ff ff 7f  lea    r11,[r13+0x7fffffff]
   1004103e4: 4d 8d 1e              lea    r11,[r14]
   1004103e7: 4d 8d 9e ff ff ff 7f  lea    r11,[r14+0x7fffffff]
   1004103ee: 4d 8d 1f              lea    r11,[r15]
   1004103f1: 4d 8d 9f ff ff ff 7f  lea    r11,[r15+0x7fffffff]
   1004103f8: 4c 8d 1d 00 00 00 00  lea    r11,[rip+0x0]        # 1004103ff <main+0xf37f>
   1004103ff: 4c 8d 1d ff ff ff 7f  lea    r11,[rip+0x7fffffff]        # 180410405 <.debug_loc+0x7ffd2d91>
   100410406: 4c 8d 20              lea    r12,[rax]
   100410409: 4c 8d a0 ff ff ff 7f  lea    r12,[rax+0x7fffffff]
   100410410: 4c 8d 21              lea    r12,[rcx]
   100410413: 4c 8d a1 ff ff ff 7f  lea    r12,[rcx+0x7fffffff]
   10041041a: 4c 8d 22              lea    r12,[rdx]
   10041041d: 4c 8d a2 ff ff ff 7f  lea    r12,[rdx+0x7fffffff]
   100410424: 4c 8d 23              lea    r12,[rbx]
   100410427: 4c 8d a3 ff ff ff 7f  lea    r12,[rbx+0x7fffffff]
   10041042e: 4c 8d 24 24           lea    r12,[rsp]
   100410432: 4c 8d a4 24 ff ff ff 7f   lea    r12,[rsp+0x7fffffff]
   10041043a: 4c 8d 65 00           lea    r12,[rbp+0x0]
   10041043e: 4c 8d a5 ff ff ff 7f  lea    r12,[rbp+0x7fffffff]
   100410445: 4c 8d 26              lea    r12,[rsi]
   100410448: 4c 8d a6 ff ff ff 7f  lea    r12,[rsi+0x7fffffff]
   10041044f: 4c 8d 27              lea    r12,[rdi]
   100410452: 4c 8d a7 ff ff ff 7f  lea    r12,[rdi+0x7fffffff]
   100410459: 4d 8d 20              lea    r12,[r8]
   10041045c: 4d 8d a0 ff ff ff 7f  lea    r12,[r8+0x7fffffff]
   100410463: 4d 8d 21              lea    r12,[r9]
   100410466: 4d 8d a1 ff ff ff 7f  lea    r12,[r9+0x7fffffff]
   10041046d: 4d 8d 22              lea    r12,[r10]
   100410470: 4d 8d a2 ff ff ff 7f  lea    r12,[r10+0x7fffffff]
   100410477: 4d 8d 23              lea    r12,[r11]
   10041047a: 4d 8d a3 ff ff ff 7f  lea    r12,[r11+0x7fffffff]
   100410481: 4d 8d 24 24           lea    r12,[r12]
   100410485: 4d 8d a4 24 ff ff ff 7f   lea    r12,[r12+0x7fffffff]
   10041048d: 4d 8d 65 00           lea    r12,[r13+0x0]
   100410491: 4d 8d a5 ff ff ff 7f  lea    r12,[r13+0x7fffffff]
   100410498: 4d 8d 26              lea    r12,[r14]
   10041049b: 4d 8d a6 ff ff ff 7f  lea    r12,[r14+0x7fffffff]
   1004104a2: 4d 8d 27              lea    r12,[r15]
   1004104a5: 4d 8d a7 ff ff ff 7f  lea    r12,[r15+0x7fffffff]
   1004104ac: 4c 8d 25 00 00 00 00  lea    r12,[rip+0x0]        # 1004104b3 <main+0xf433>
   1004104b3: 4c 8d 25 ff ff ff 7f  lea    r12,[rip+0x7fffffff]        # 1804104b9 <.debug_loc+0x7ffd2e45>
   1004104ba: 4c 8d 28              lea    r13,[rax]
   1004104bd: 4c 8d a8 ff ff ff 7f  lea    r13,[rax+0x7fffffff]
   1004104c4: 4c 8d 29              lea    r13,[rcx]
   1004104c7: 4c 8d a9 ff ff ff 7f  lea    r13,[rcx+0x7fffffff]
   1004104ce: 4c 8d 2a              lea    r13,[rdx]
   1004104d1: 4c 8d aa ff ff ff 7f  lea    r13,[rdx+0x7fffffff]
   1004104d8: 4c 8d 2b              lea    r13,[rbx]
   1004104db: 4c 8d ab ff ff ff 7f  lea    r13,[rbx+0x7fffffff]
   1004104e2: 4c 8d 2c 24           lea    r13,[rsp]
   1004104e6: 4c 8d ac 24 ff ff ff 7f   lea    r13,[rsp+0x7fffffff]
   1004104ee: 4c 8d 6d 00           lea    r13,[rbp+0x0]
   1004104f2: 4c 8d ad ff ff ff 7f  lea    r13,[rbp+0x7fffffff]
   1004104f9: 4c 8d 2e              lea    r13,[rsi]
   1004104fc: 4c 8d ae ff ff ff 7f  lea    r13,[rsi+0x7fffffff]
   100410503: 4c 8d 2f              lea    r13,[rdi]
   100410506: 4c 8d af ff ff ff 7f  lea    r13,[rdi+0x7fffffff]
   10041050d: 4d 8d 28              lea    r13,[r8]
   100410510: 4d 8d a8 ff ff ff 7f  lea    r13,[r8+0x7fffffff]
   100410517: 4d 8d 29              lea    r13,[r9]
   10041051a: 4d 8d a9 ff ff ff 7f  lea    r13,[r9+0x7fffffff]
   100410521: 4d 8d 2a              lea    r13,[r10]
   100410524: 4d 8d aa ff ff ff 7f  lea    r13,[r10+0x7fffffff]
   10041052b: 4d 8d 2b              lea    r13,[r11]
   10041052e: 4d 8d ab ff ff ff 7f  lea    r13,[r11+0x7fffffff]
   100410535: 4d 8d 2c 24           lea    r13,[r12]
   100410539: 4d 8d ac 24 ff ff ff 7f   lea    r13,[r12+0x7fffffff]
   100410541: 4d 8d 6d 00           lea    r13,[r13+0x0]
   100410545: 4d 8d ad ff ff ff 7f  lea    r13,[r13+0x7fffffff]
   10041054c: 4d 8d 2e              lea    r13,[r14]
   10041054f: 4d 8d ae ff ff ff 7f  lea    r13,[r14+0x7fffffff]
   100410556: 4d 8d 2f              lea    r13,[r15]
   100410559: 4d 8d af ff ff ff 7f  lea    r13,[r15+0x7fffffff]
   100410560: 4c 8d 2d 00 00 00 00  lea    r13,[rip+0x0]        # 100410567 <main+0xf4e7>
   100410567: 4c 8d 2d ff ff ff 7f  lea    r13,[rip+0x7fffffff]        # 18041056d <.debug_loc+0x7ffd2ef9>
   10041056e: 4c 8d 30              lea    r14,[rax]
   100410571: 4c 8d b0 ff ff ff 7f  lea    r14,[rax+0x7fffffff]
   100410578: 4c 8d 31              lea    r14,[rcx]
   10041057b: 4c 8d b1 ff ff ff 7f  lea    r14,[rcx+0x7fffffff]
   100410582: 4c 8d 32              lea    r14,[rdx]
   100410585: 4c 8d b2 ff ff ff 7f  lea    r14,[rdx+0x7fffffff]
   10041058c: 4c 8d 33              lea    r14,[rbx]
   10041058f: 4c 8d b3 ff ff ff 7f  lea    r14,[rbx+0x7fffffff]
   100410596: 4c 8d 34 24           lea    r14,[rsp]
   10041059a: 4c 8d b4 24 ff ff ff 7f   lea    r14,[rsp+0x7fffffff]
   1004105a2: 4c 8d 75 00           lea    r14,[rbp+0x0]
   1004105a6: 4c 8d b5 ff ff ff 7f  lea    r14,[rbp+0x7fffffff]
   1004105ad: 4c 8d 36              lea    r14,[rsi]
   1004105b0: 4c 8d b6 ff ff ff 7f  lea    r14,[rsi+0x7fffffff]
   1004105b7: 4c 8d 37              lea    r14,[rdi]
   1004105ba: 4c 8d b7 ff ff ff 7f  lea    r14,[rdi+0x7fffffff]
   1004105c1: 4d 8d 30              lea    r14,[r8]
   1004105c4: 4d 8d b0 ff ff ff 7f  lea    r14,[r8+0x7fffffff]
   1004105cb: 4d 8d 31              lea    r14,[r9]
   1004105ce: 4d 8d b1 ff ff ff 7f  lea    r14,[r9+0x7fffffff]
   1004105d5: 4d 8d 32              lea    r14,[r10]
   1004105d8: 4d 8d b2 ff ff ff 7f  lea    r14,[r10+0x7fffffff]
   1004105df: 4d 8d 33              lea    r14,[r11]
   1004105e2: 4d 8d b3 ff ff ff 7f  lea    r14,[r11+0x7fffffff]
   1004105e9: 4d 8d 34 24           lea    r14,[r12]
   1004105ed: 4d 8d b4 24 ff ff ff 7f   lea    r14,[r12+0x7fffffff]
   1004105f5: 4d 8d 75 00           lea    r14,[r13+0x0]
   1004105f9: 4d 8d b5 ff ff ff 7f  lea    r14,[r13+0x7fffffff]
   100410600: 4d 8d 36              lea    r14,[r14]
   100410603: 4d 8d b6 ff ff ff 7f  lea    r14,[r14+0x7fffffff]
   10041060a: 4d 8d 37              lea    r14,[r15]
   10041060d: 4d 8d b7 ff ff ff 7f  lea    r14,[r15+0x7fffffff]
   100410614: 4c 8d 35 00 00 00 00  lea    r14,[rip+0x0]        # 10041061b <main+0xf59b>
   10041061b: 4c 8d 35 ff ff ff 7f  lea    r14,[rip+0x7fffffff]        # 180410621 <.debug_loc+0x7ffd2fad>
   100410622: 4c 8d 38              lea    r15,[rax]
   100410625: 4c 8d b8 ff ff ff 7f  lea    r15,[rax+0x7fffffff]
   10041062c: 4c 8d 39              lea    r15,[rcx]
   10041062f: 4c 8d b9 ff ff ff 7f  lea    r15,[rcx+0x7fffffff]
   100410636: 4c 8d 3a              lea    r15,[rdx]
   100410639: 4c 8d ba ff ff ff 7f  lea    r15,[rdx+0x7fffffff]
   100410640: 4c 8d 3b              lea    r15,[rbx]
   100410643: 4c 8d bb ff ff ff 7f  lea    r15,[rbx+0x7fffffff]
   10041064a: 4c 8d 3c 24           lea    r15,[rsp]
   10041064e: 4c 8d bc 24 ff ff ff 7f   lea    r15,[rsp+0x7fffffff]
   100410656: 4c 8d 7d 00           lea    r15,[rbp+0x0]
   10041065a: 4c 8d bd ff ff ff 7f  lea    r15,[rbp+0x7fffffff]
   100410661: 4c 8d 3e              lea    r15,[rsi]
   100410664: 4c 8d be ff ff ff 7f  lea    r15,[rsi+0x7fffffff]
   10041066b: 4c 8d 3f              lea    r15,[rdi]
   10041066e: 4c 8d bf ff ff ff 7f  lea    r15,[rdi+0x7fffffff]
   100410675: 4d 8d 38              lea    r15,[r8]
   100410678: 4d 8d b8 ff ff ff 7f  lea    r15,[r8+0x7fffffff]
   10041067f: 4d 8d 39              lea    r15,[r9]
   100410682: 4d 8d b9 ff ff ff 7f  lea    r15,[r9+0x7fffffff]
   100410689: 4d 8d 3a              lea    r15,[r10]
   10041068c: 4d 8d ba ff ff ff 7f  lea    r15,[r10+0x7fffffff]
   100410693: 4d 8d 3b              lea    r15,[r11]
   100410696: 4d 8d bb ff ff ff 7f  lea    r15,[r11+0x7fffffff]
   10041069d: 4d 8d 3c 24           lea    r15,[r12]
   1004106a1: 4d 8d bc 24 ff ff ff 7f   lea    r15,[r12+0x7fffffff]
   1004106a9: 4d 8d 7d 00           lea    r15,[r13+0x0]
   1004106ad: 4d 8d bd ff ff ff 7f  lea    r15,[r13+0x7fffffff]
   1004106b4: 4d 8d 3e              lea    r15,[r14]
   1004106b7: 4d 8d be ff ff ff 7f  lea    r15,[r14+0x7fffffff]
   1004106be: 4d 8d 3f              lea    r15,[r15]
   1004106c1: 4d 8d bf ff ff ff 7f  lea    r15,[r15+0x7fffffff]
   1004106c8: 4c 8d 3d 00 00 00 00  lea    r15,[rip+0x0]        # 1004106cf <main+0xf64f>
   1004106cf: 4c 8d 3d ff ff ff 7f  lea    r15,[rip+0x7fffffff]        # 1804106d5 <.debug_loc+0x7ffd3061>
   1004106d6: 48 d3 e0              shl    rax,cl
   1004106d9: 48 d3 e1              shl    rcx,cl
   1004106dc: 48 d3 e2              shl    rdx,cl
   1004106df: 48 d3 e3              shl    rbx,cl
   1004106e2: 48 d3 e4              shl    rsp,cl
   1004106e5: 48 d3 e5              shl    rbp,cl
   1004106e8: 48 d3 e6              shl    rsi,cl
   1004106eb: 48 d3 e7              shl    rdi,cl
   1004106ee: 49 d3 e0              shl    r8,cl
   1004106f1: 49 d3 e1              shl    r9,cl
   1004106f4: 49 d3 e2              shl    r10,cl
   1004106f7: 49 d3 e3              shl    r11,cl
   1004106fa: 49 d3 e4              shl    r12,cl
   1004106fd: 49 d3 e5              shl    r13,cl
   100410700: 49 d3 e6              shl    r14,cl
   100410703: 49 d3 e7              shl    r15,cl
   100410706: 48 d3 e8              shr    rax,cl
   100410709: 48 d3 e9              shr    rcx,cl
   10041070c: 48 d3 ea              shr    rdx,cl
   10041070f: 48 d3 eb              shr    rbx,cl
   100410712: 48 d3 ec              shr    rsp,cl
   100410715: 48 d3 ed              shr    rbp,cl
   100410718: 48 d3 ee              shr    rsi,cl
   10041071b: 48 d3 ef              shr    rdi,cl
   10041071e: 49 d3 e8              shr    r8,cl
   100410721: 49 d3 e9              shr    r9,cl
   100410724: 49 d3 ea              shr    r10,cl
   100410727: 49 d3 eb              shr    r11,cl
   10041072a: 49 d3 ec              shr    r12,cl
   10041072d: 49 d3 ed              shr    r13,cl
   100410730: 49 d3 ee              shr    r14,cl
   100410733: 49 d3 ef              shr    r15,cl
   100410736: 48 d3 f8              sar    rax,cl
   100410739: 48 d3 f9              sar    rcx,cl
   10041073c: 48 d3 fa              sar    rdx,cl
   10041073f: 48 d3 fb              sar    rbx,cl
   100410742: 48 d3 fc              sar    rsp,cl
   100410745: 48 d3 fd              sar    rbp,cl
   100410748: 48 d3 fe              sar    rsi,cl
   10041074b: 48 d3 ff              sar    rdi,cl
   10041074e: 49 d3 f8              sar    r8,cl
   100410751: 49 d3 f9              sar    r9,cl
   100410754: 49 d3 fa              sar    r10,cl
   100410757: 49 d3 fb              sar    r11,cl
   10041075a: 49 d3 fc              sar    r12,cl
   10041075d: 49 d3 fd              sar    r13,cl
   100410760: 49 d3 fe              sar    r14,cl
   100410763: 49 d3 ff              sar    r15,cl
   100410766: 68 ff ff ff 7f        push   0x7fffffff
   10041076b: ff 30                 push   QWORD PTR [rax]
   10041076d: ff 31                 push   QWORD PTR [rcx]
   10041076f: ff 32                 push   QWORD PTR [rdx]
   100410771: ff 33                 push   QWORD PTR [rbx]
   100410773: ff 34 24              push   QWORD PTR [rsp]
   100410776: ff 75 00              push   QWORD PTR [rbp+0x0]
   100410779: ff 36                 push   QWORD PTR [rsi]
   10041077b: ff 37                 push   QWORD PTR [rdi]
   10041077d: 41 ff 30              push   QWORD PTR [r8]
   100410780: 41 ff 31              push   QWORD PTR [r9]
   100410783: 41 ff 32              push   QWORD PTR [r10]
   100410786: 41 ff 33              push   QWORD PTR [r11]
   100410789: 41 ff 34 24           push   QWORD PTR [r12]
   10041078d: 41 ff 75 00           push   QWORD PTR [r13+0x0]
   100410791: 41 ff 36              push   QWORD PTR [r14]
   100410794: 41 ff 37              push   QWORD PTR [r15]
   100410797: 8f 00                 pop    QWORD PTR [rax]
   100410799: 8f 01                 pop    QWORD PTR [rcx]
   10041079b: 8f 02                 pop    QWORD PTR [rdx]
   10041079d: 8f 03                 pop    QWORD PTR [rbx]
   10041079f: 8f 04 24              pop    QWORD PTR [rsp]
   1004107a2: 8f 45 00              pop    QWORD PTR [rbp+0x0]
   1004107a5: 8f 06                 pop    QWORD PTR [rsi]
   1004107a7: 8f 07                 pop    QWORD PTR [rdi]
   1004107a9: 41 8f 00              pop    QWORD PTR [r8]
   1004107ac: 41 8f 01              pop    QWORD PTR [r9]
   1004107af: 41 8f 02              pop    QWORD PTR [r10]
   1004107b2: 41 8f 03              pop    QWORD PTR [r11]
   1004107b5: 41 8f 04 24           pop    QWORD PTR [r12]
   1004107b9: 41 8f 45 00           pop    QWORD PTR [r13+0x0]
   1004107bd: 41 8f 06              pop    QWORD PTR [r14]
   1004107c0: 41 8f 07              pop    QWORD PTR [r15]
   